Archive member included to satisfy reference by file (symbol)

C:/ProgramData/KMC/SOLID/SDK/2.0/solid-os/core/lib/armv7aLaiv/CT_\libsolid_cs.a(solid_cs_asm.o)
                              C:/Users/admin/Documents/SOLID-IDE/Projects/lwip_server/Debug_tasan/exeClang_SOLID/lwip_server/lwip_server_all.o (exit)
C:/ProgramData/KMC/SOLID/SDK/2.0/solid-os/core/lib/armv7aLaiv/CT_\libsolid_cs.a(solid_cs_main.o)
                              C:/ProgramData/KMC/SOLID/SDK/2.0/solid-os/core/lib/armv7aLaiv/CT_\libsolid_cs.a(solid_cs_asm.o) (solid_cs_main)
C:/ProgramData/KMC/SOLID/SDK/2.0/solid-os/core/lib/armv7aLaiv/CT_\libsolid_cs.a(kmc_trace_mem_dummy.o)
                              C:/ProgramData/KMC/SOLID/SDK/2.0/solid-os/core/lib/armv7aLaiv/CT_\libsolid_cs.a(solid_cs_main.o) (SOLID_kmc_trace_init)
C:/ProgramData/KMC/SOLID/SDK/2.0/solid-os/core/lib/armv7aLaiv/CT_\libsolid_cs.a(solid_cs_event.o)
                              C:/ProgramData/KMC/SOLID/SDK/2.0/solid-os/core/lib/armv7aLaiv/CT_\libsolid_cs.a(solid_cs_main.o) (SOLID_CS_EventNotify)
C:/ProgramData/KMC/SOLID/SDK/2.0/solid-os/core/lib/armv7aLaiv/CT_\libsolid_cs.a(solid_debugger.o)
                              C:/ProgramData/KMC/SOLID/SDK/2.0/solid-os/core/lib/armv7aLaiv/CT_\libsolid_cs.a(solid_cs_event.o) (SOLID_DBG_EventNotify)
C:/ProgramData/KMC/SOLID/SDK/2.0/solid-os/core/lib/armv7aLaiv/CT_\libsolid_cs.a(solid_dmac.o)
                              C:/ProgramData/KMC/SOLID/SDK/2.0/solid-os/core/lib/armv7aLaiv/CT_\libsolid_cs.a(solid_cs_main.o) (SOLID_DMAC_Init)
C:/ProgramData/KMC/SOLID/SDK/2.0/solid-os/core/lib/armv7aLaiv/CT_\libsolid_cs.a(solid_exception.o)
                              C:/ProgramData/KMC/SOLID/SDK/2.0/solid-os/core/lib/armv7aLaiv/CT_\libsolid_cs.a(solid_cs_main.o) (SOLID_Exception_Init)
C:/ProgramData/KMC/SOLID/SDK/2.0/solid-os/core/lib/armv7aLaiv/CT_\libsolid_cs.a(solid_fs_base.o)
                              C:/ProgramData/KMC/SOLID/SDK/2.0/solid-os/core/lib/armv7aLaiv/CT_\libsolid_cs.a(solid_cs_main.o) (SOLID_FS_Init)
C:/ProgramData/KMC/SOLID/SDK/2.0/solid-os/core/lib/armv7aLaiv/CT_\libsolid_cs.a(solid_fs_mem.o)
                              C:/ProgramData/KMC/SOLID/SDK/2.0/solid-os/core/lib/armv7aLaiv/CT_\libsolid_cs.a(solid_cs_main.o) (SOLID_FS_MEM_Init)
C:/ProgramData/KMC/SOLID/SDK/2.0/solid-os/core/lib/armv7aLaiv/CT_\libsolid_cs.a(solid_fs_vlink.o)
                              C:/ProgramData/KMC/SOLID/SDK/2.0/solid-os/core/lib/armv7aLaiv/CT_\libsolid_cs.a(solid_cs_main.o) (SOLID_FS_VLink_Init)
C:/ProgramData/KMC/SOLID/SDK/2.0/solid-os/core/lib/armv7aLaiv/CT_\libsolid_cs.a(solid_intc.o)
                              C:/ProgramData/KMC/SOLID/SDK/2.0/solid-os/core/lib/armv7aLaiv/CT_\libsolid_cs.a(solid_cs_main.o) (SOLID_INTC_Init)
C:/ProgramData/KMC/SOLID/SDK/2.0/solid-os/core/lib/armv7aLaiv/CT_\libsolid_cs.a(solid_iores.o)
                              C:/ProgramData/KMC/SOLID/SDK/2.0/solid-os/core/lib/armv7aLaiv/CT_\libsolid_cs.a(solid_intc.o) (SOLID_IORES_GetInfo)
C:/ProgramData/KMC/SOLID/SDK/2.0/solid-os/core/lib/armv7aLaiv/CT_\libsolid_cs.a(solid_loader.o)
                              C:/ProgramData/KMC/SOLID/SDK/2.0/solid-os/core/lib/armv7aLaiv/CT_\libsolid_cs.a(solid_cs_main.o) (SOLID_LDR_Init)
C:/ProgramData/KMC/SOLID/SDK/2.0/solid-os/core/lib/armv7aLaiv/CT_\libsolid_cs.a(solid_loader_fixed.o)
                              C:/ProgramData/KMC/SOLID/SDK/2.0/solid-os/core/lib/armv7aLaiv/CT_\libsolid_cs.a(solid_loader.o) (SOLID_LDR_FixedSymbol_Init)
C:/ProgramData/KMC/SOLID/SDK/2.0/solid-os/core/lib/armv7aLaiv/CT_\libsolid_cs.a(solid_log.o)
                              C:/ProgramData/KMC/SOLID/SDK/2.0/solid-os/core/lib/armv7aLaiv/CT_\libsolid_cs.a(solid_cs_main.o) (SOLID_LOG_Init)
C:/ProgramData/KMC/SOLID/SDK/2.0/solid-os/core/lib/armv7aLaiv/CT_\libsolid_cs.a(solid_malloc.o)
                              C:/ProgramData/KMC/SOLID/SDK/2.0/solid-os/core/lib/armv7aLaiv/CT_\libsolid_cs.a(solid_dmac.o) (SOLID_free)
C:/ProgramData/KMC/SOLID/SDK/2.0/solid-os/core/lib/armv7aLaiv/CT_\libsolid_cs.a(solid_mem.o)
                              C:/ProgramData/KMC/SOLID/SDK/2.0/solid-os/core/lib/armv7aLaiv/CT_\libsolid_cs.a(solid_loader.o) (SOLID_MEM_Alloc)
C:/ProgramData/KMC/SOLID/SDK/2.0/solid-os/core/lib/armv7aLaiv/CT_\libsolid_cs.a(solid_mem_cache.o)
                              C:/ProgramData/KMC/SOLID/SDK/2.0/solid-os/core/lib/armv7aLaiv/CT_\libsolid_cs.a(solid_mem.o) (_ZN3kmg5solid5CACHE10InvDStrictEmj)
C:/ProgramData/KMC/SOLID/SDK/2.0/solid-os/core/lib/armv7aLaiv/CT_\libsolid_cs.a(solid_mutex.o)
                              C:/ProgramData/KMC/SOLID/SDK/2.0/solid-os/core/lib/armv7aLaiv/CT_\libsolid_cs.a(solid_log.o) (SOLID_EnterCriticalSection)
C:/ProgramData/KMC/SOLID/SDK/2.0/solid-os/core/lib/armv7aLaiv/CT_\libsolid_cs.a(solid_rtc.o)
                              C:/ProgramData/KMC/SOLID/SDK/2.0/solid-os/core/lib/armv7aLaiv/CT_\libsolid_cs.a(solid_loader_fixed.o) (SOLID_RTC_ReadTime)
C:/ProgramData/KMC/SOLID/SDK/2.0/solid-os/core/lib/armv7aLaiv/CT_\libsolid_cs.a(solid_timer.o)
                              C:/ProgramData/KMC/SOLID/SDK/2.0/solid-os/core/lib/armv7aLaiv/CT_\libsolid_cs.a(solid_cs_main.o) (SOLID_TIMER_GetCurrentTick)
C:/ProgramData/KMC/SOLID/SDK/2.0/solid-os/core/lib/armv7aLaiv/CT_\libsolid_cs.a(solid_vector.o)
                              C:/ProgramData/KMC/SOLID/SDK/2.0/solid-os/core/lib/armv7aLaiv/CT_\libsolid_cs.a(solid_cs_main.o) (SOLID_VECTOR_Init)
C:/ProgramData/KMC/SOLID/SDK/2.0/solid-os/core/lib/armv7aLaiv/CT_\libsolid_cs.a(solid_vlink.o)
                              C:/ProgramData/KMC/SOLID/SDK/2.0/solid-os/core/lib/armv7aLaiv/CT_\libsolid_cs.a(solid_loader_fixed.o) (SOLID_VLINK_GetCwd)
C:/ProgramData/KMC/SOLID/SDK/2.0/solid-os/core/lib/armv7aLaiv/CT_\libsolid_cs.a(tasan.o)
                              C:/Users/admin/Documents/SOLID-IDE/Projects/lwip_server/Debug_tasan/exeClang_SOLID/lwip_server/lwip_server_all.o (__asan_handle_no_return)
C:/ProgramData/KMC/SOLID/SDK/2.0/solid-os/core/lib/armv7aLaiv/CT_\libsolid_cs.a(tasan_interceptors.o)
                              C:/Users/admin/Documents/SOLID-IDE/Projects/lwip_server/Debug_tasan/exeClang_SOLID/lwip_server/lwip_server_all.o (__wrap_memset)
C:/ProgramData/KMC/SOLID/SDK/2.0/solid-os/core/lib/armv7aLaiv/CT_\libsolid_cs.a(solid_mem_mmu.o)
                              C:/ProgramData/KMC/SOLID/SDK/2.0/solid-os/core/lib/armv7aLaiv/CT_\libsolid_cs.a(solid_mem.o) (_ZN3kmg5solid3MMU3MapEmjmb)
C:/ProgramData/KMC/SOLID/SDK/2.0/solid-os/core/lib/armv7aLaiv/CT_\libsolid_cs.a(kmc_evttracker_core.o)
                              C:/ProgramData/KMC/SOLID/SDK/2.0/solid-os/core/lib/armv7aLaiv/CT_\libsolid_cs.a(solid_intc.o) (__kmc_log_inh_enter)
C:/ProgramData/KMC/SOLID/SDK/2.0/solid-os/core/lib/armv7aLaiv/CT_\libsolid_cs.a(dlmalloc.o)
                              C:/ProgramData/KMC/SOLID/SDK/2.0/solid-os/core/lib/armv7aLaiv/CT_\libsolid_cs.a(solid_malloc.o) (create_mspace_with_base)
C:/ProgramData/KMC/SOLID/SDK/2.0/solid-os/core/lib/armv7aLaiv/CT_\libsolid_cs.a(solid_asan.o)
                              C:/ProgramData/KMC/SOLID/SDK/2.0/solid-os/core/lib/armv7aLaiv/CT_\libsolid_cs.a(solid_loader_fixed.o) (SOLID_ASAN_Enabled)
C:/ProgramData/KMC/SOLID/SDK/2.0/solid-os/core/lib/armv7aLaiv/CT_\libsolid_cs.a(solid_cs_args.o)
                              C:/ProgramData/KMC/SOLID/SDK/2.0/solid-os/core/lib/armv7aLaiv/CT_\libsolid_cs.a(solid_mem_mmu.o) (solid_args)
C:/ProgramData/KMC/SOLID/SDK/2.0/solid-os/net/lwIP/lib/armv7aLaiv/CT_\libnet.a(sys_arch.o)
                              C:/Users/admin/Documents/SOLID-IDE/Projects/lwip_server/Debug_tasan/exeClang_SOLID/lwip_server/lwip_server_all.o (lwip_thread_task)
C:/ProgramData/KMC/SOLID/SDK/2.0/solid-os/net/lwIP/lib/armv7aLaiv/CT_\libnet.a(sockets.o)
                              C:/Users/admin/Documents/SOLID-IDE/Projects/lwip_server/Debug_tasan/exeClang_SOLID/lwip_server/lwip_server_all.o (lwip_accept)
C:/ProgramData/KMC/SOLID/SDK/2.0/solid-os/net/lwIP/lib/armv7aLaiv/CT_\libnet.a(tcpip.o)
                              C:/ProgramData/KMC/SOLID/SDK/2.0/solid-os/net/lwIP/lib/armv7aLaiv/CT_\libnet.a(sockets.o) (lock_tcpip_core)
C:/ProgramData/KMC/SOLID/SDK/2.0/solid-os/net/lwIP/lib/armv7aLaiv/CT_\libnet.a(def.o)
                              C:/Users/admin/Documents/SOLID-IDE/Projects/lwip_server/Debug_tasan/exeClang_SOLID/lwip_server/lwip_server_all.o (lwip_htonl)
C:/ProgramData/KMC/SOLID/SDK/2.0/solid-os/net/lwIP/lib/armv7aLaiv/CT_\libnet.a(init.o)
                              C:/ProgramData/KMC/SOLID/SDK/2.0/solid-os/net/lwIP/lib/armv7aLaiv/CT_\libnet.a(tcpip.o) (lwip_init)
C:/ProgramData/KMC/SOLID/SDK/2.0/solid-os/net/lwIP/lib/armv7aLaiv/CT_\libnet.a(ip4.o)
                              C:/ProgramData/KMC/SOLID/SDK/2.0/solid-os/net/lwIP/lib/armv7aLaiv/CT_\libnet.a(tcpip.o) (ip4_input)
C:/ProgramData/KMC/SOLID/SDK/2.0/solid-os/net/lwIP/lib/armv7aLaiv/CT_\libnet.a(ip4_addr.o)
                              C:/ProgramData/KMC/SOLID/SDK/2.0/solid-os/net/lwIP/lib/armv7aLaiv/CT_\libnet.a(ip4.o) (ip4_addr_isbroadcast_u32)
C:/ProgramData/KMC/SOLID/SDK/2.0/solid-os/net/lwIP/lib/armv7aLaiv/CT_\libnet.a(ip4_frag.o)
                              C:/ProgramData/KMC/SOLID/SDK/2.0/solid-os/net/lwIP/lib/armv7aLaiv/CT_\libnet.a(ip4.o) (ip4_frag)
C:/ProgramData/KMC/SOLID/SDK/2.0/solid-os/net/lwIP/lib/armv7aLaiv/CT_\libnet.a(mem.o)
                              C:/ProgramData/KMC/SOLID/SDK/2.0/solid-os/net/lwIP/lib/armv7aLaiv/CT_\libnet.a(tcpip.o) (mem_free)
C:/ProgramData/KMC/SOLID/SDK/2.0/solid-os/net/lwIP/lib/armv7aLaiv/CT_\libnet.a(memp.o)
                              C:/ProgramData/KMC/SOLID/SDK/2.0/solid-os/net/lwIP/lib/armv7aLaiv/CT_\libnet.a(tcpip.o) (memp_free)
C:/ProgramData/KMC/SOLID/SDK/2.0/solid-os/net/lwIP/lib/armv7aLaiv/CT_\libnet.a(netif.o)
                              C:/ProgramData/KMC/SOLID/SDK/2.0/solid-os/net/lwIP/lib/armv7aLaiv/CT_\libnet.a(ip4.o) (netif_default)
C:/ProgramData/KMC/SOLID/SDK/2.0/solid-os/net/lwIP/lib/armv7aLaiv/CT_\libnet.a(pbuf.o)
                              C:/ProgramData/KMC/SOLID/SDK/2.0/solid-os/net/lwIP/lib/armv7aLaiv/CT_\libnet.a(sockets.o) (pbuf_alloc)
C:/ProgramData/KMC/SOLID/SDK/2.0/solid-os/net/lwIP/lib/armv7aLaiv/CT_\libnet.a(stats.o)
                              C:/ProgramData/KMC/SOLID/SDK/2.0/solid-os/net/lwIP/lib/armv7aLaiv/CT_\libnet.a(ip4.o) (lwip_stats)
C:/ProgramData/KMC/SOLID/SDK/2.0/solid-os/net/lwIP/lib/armv7aLaiv/CT_\libnet.a(tcp.o)
                              C:/ProgramData/KMC/SOLID/SDK/2.0/solid-os/net/lwIP/lib/armv7aLaiv/CT_\libnet.a(pbuf.o) (tcp_active_pcbs)
C:/ProgramData/KMC/SOLID/SDK/2.0/solid-os/net/lwIP/lib/armv7aLaiv/CT_\libnet.a(tcp_in.o)
                              C:/ProgramData/KMC/SOLID/SDK/2.0/solid-os/net/lwIP/lib/armv7aLaiv/CT_\libnet.a(ip4.o) (tcp_input)
C:/ProgramData/KMC/SOLID/SDK/2.0/solid-os/net/lwIP/lib/armv7aLaiv/CT_\libnet.a(tcp_out.o)
                              C:/ProgramData/KMC/SOLID/SDK/2.0/solid-os/net/lwIP/lib/armv7aLaiv/CT_\libnet.a(tcp.o) (tcp_enqueue_flags)
C:/ProgramData/KMC/SOLID/SDK/2.0/solid-os/net/lwIP/lib/armv7aLaiv/CT_\libnet.a(timeouts.o)
                              C:/ProgramData/KMC/SOLID/SDK/2.0/solid-os/net/lwIP/lib/armv7aLaiv/CT_\libnet.a(init.o) (sys_timeouts_init)
C:/ProgramData/KMC/SOLID/SDK/2.0/solid-os/net/lwIP/lib/armv7aLaiv/CT_\libnet.a(udp.o)
                              C:/ProgramData/KMC/SOLID/SDK/2.0/solid-os/net/lwIP/lib/armv7aLaiv/CT_\libnet.a(init.o) (udp_init)
C:/ProgramData/KMC/SOLID/SDK/2.0/solid-os/net/lwIP/lib/armv7aLaiv/CT_\libnet.a(ethernet.o)
                              C:/ProgramData/KMC/SOLID/SDK/2.0/solid-os/net/lwIP/lib/armv7aLaiv/CT_\libnet.a(tcpip.o) (ethernet_input)
C:/ProgramData/KMC/SOLID/SDK/2.0/solid-os/net/lwIP/lib/armv7aLaiv/CT_\libnet.a(solid_net_if.o)
                              C:/ProgramData/KMC/SOLID/SDK/2.0/solid-os/core/lib/armv7aLaiv/CT_\libsolid_cs.a(solid_cs_main.o) (SOLID_NET_IF_Init)
C:/ProgramData/KMC/SOLID/SDK/2.0/solid-os/net/lwIP/lib/armv7aLaiv/CT_\libnet.a(solid_net_registerapi.o)
                              C:/ProgramData/KMC/SOLID/SDK/2.0/solid-os/net/lwIP/lib/armv7aLaiv/CT_\libnet.a(solid_net_if.o) (SOLID_NET_RegisterAPIs)
C:/ProgramData/KMC/SOLID/SDK/2.0/solid-os/net/lwIP/lib/armv7aLaiv/CT_\libnet.a(impl_net_stack.o)
                              C:/ProgramData/KMC/SOLID/SDK/2.0/solid-os/net/lwIP/lib/armv7aLaiv/CT_\libnet.a(solid_net_if.o) (IMPL_NET_STACK_AddInterface)
C:/ProgramData/KMC/SOLID/SDK/2.0/solid-os/net/lwIP/lib/armv7aLaiv/CT_\libnet.a(impl_net_stack_errno.o)
                              C:/ProgramData/KMC/SOLID/SDK/2.0/solid-os/net/lwIP/lib/armv7aLaiv/CT_\libnet.a(sockets.o) (_net_sys_errno)
C:/ProgramData/KMC/SOLID/SDK/2.0/solid-os/net/lwIP/lib/armv7aLaiv/CT_\libnet.a(ethernetif.o)
                              C:/ProgramData/KMC/SOLID/SDK/2.0/solid-os/net/lwIP/lib/armv7aLaiv/CT_\libnet.a(impl_net_stack.o) (ethernetif_init)
C:/ProgramData/KMC/SOLID/SDK/2.0/solid-os/net/lwIP/lib/armv7aLaiv/CT_\libnet.a(api_lib.o)
                              C:/ProgramData/KMC/SOLID/SDK/2.0/solid-os/net/lwIP/lib/armv7aLaiv/CT_\libnet.a(sockets.o) (netconn_accept)
C:/ProgramData/KMC/SOLID/SDK/2.0/solid-os/net/lwIP/lib/armv7aLaiv/CT_\libnet.a(api_msg.o)
                              C:/ProgramData/KMC/SOLID/SDK/2.0/solid-os/net/lwIP/lib/armv7aLaiv/CT_\libnet.a(api_lib.o) (lwip_netconn_do_bind)
C:/ProgramData/KMC/SOLID/SDK/2.0/solid-os/net/lwIP/lib/armv7aLaiv/CT_\libnet.a(err.o)
                              C:/ProgramData/KMC/SOLID/SDK/2.0/solid-os/net/lwIP/lib/armv7aLaiv/CT_\libnet.a(sockets.o) (err_to_errno)
C:/ProgramData/KMC/SOLID/SDK/2.0/solid-os/net/lwIP/lib/armv7aLaiv/CT_\libnet.a(netbuf.o)
                              C:/ProgramData/KMC/SOLID/SDK/2.0/solid-os/net/lwIP/lib/armv7aLaiv/CT_\libnet.a(solid_net_registerapi.o) (netbuf_alloc)
C:/ProgramData/KMC/SOLID/SDK/2.0/solid-os/net/lwIP/lib/armv7aLaiv/CT_\libnet.a(netdb.o)
                              C:/ProgramData/KMC/SOLID/SDK/2.0/solid-os/net/lwIP/lib/armv7aLaiv/CT_\libnet.a(solid_net_registerapi.o) (lwip_freeaddrinfo)
C:/ProgramData/KMC/SOLID/SDK/2.0/solid-os/net/lwIP/lib/armv7aLaiv/CT_\libnet.a(dns.o)
                              C:/ProgramData/KMC/SOLID/SDK/2.0/solid-os/net/lwIP/lib/armv7aLaiv/CT_\libnet.a(api_msg.o) (dns_gethostbyname_addrtype)
C:/ProgramData/KMC/SOLID/SDK/2.0/solid-os/net/lwIP/lib/armv7aLaiv/CT_\libnet.a(inet_chksum.o)
                              C:/ProgramData/KMC/SOLID/SDK/2.0/solid-os/net/lwIP/lib/armv7aLaiv/CT_\libnet.a(ip4.o) (inet_chksum)
C:/ProgramData/KMC/SOLID/SDK/2.0/solid-os/net/lwIP/lib/armv7aLaiv/CT_\libnet.a(ip.o)
                              C:/ProgramData/KMC/SOLID/SDK/2.0/solid-os/net/lwIP/lib/armv7aLaiv/CT_\libnet.a(ip4.o) (ip_data)
C:/ProgramData/KMC/SOLID/SDK/2.0/solid-os/net/lwIP/lib/armv7aLaiv/CT_\libnet.a(dhcp.o)
                              C:/ProgramData/KMC/SOLID/SDK/2.0/solid-os/net/lwIP/lib/armv7aLaiv/CT_\libnet.a(timeouts.o) (dhcp_coarse_tmr)
C:/ProgramData/KMC/SOLID/SDK/2.0/solid-os/net/lwIP/lib/armv7aLaiv/CT_\libnet.a(etharp.o)
                              C:/ProgramData/KMC/SOLID/SDK/2.0/solid-os/net/lwIP/lib/armv7aLaiv/CT_\libnet.a(netif.o) (etharp_cleanup_netif)
C:/ProgramData/KMC/SOLID/SDK/2.0/solid-os/net/lwIP/lib/armv7aLaiv/CT_\libnet.a(icmp.o)
                              C:/ProgramData/KMC/SOLID/SDK/2.0/solid-os/net/lwIP/lib/armv7aLaiv/CT_\libnet.a(ip4.o) (icmp_dest_unreach)
C:/ProgramData/KMC/SOLID/SDK/2.0/solid-os/rtos/toppers_asp3/lib/armv7aLaiv/CT__\libkernel.a(dataqueue.o)
                              C:/ProgramData/KMC/SOLID/SDK/2.0/solid-os/net/lwIP/lib/armv7aLaiv/CT_\libnet.a(sys_arch.o) (prcv_dtq)
C:/ProgramData/KMC/SOLID/SDK/2.0/solid-os/rtos/toppers_asp3/lib/armv7aLaiv/CT__\libkernel.a(interrupt.o)
                              C:/ProgramData/KMC/SOLID/SDK/2.0/solid-os/net/lwIP/lib/armv7aLaiv/CT_\libnet.a(solid_net_if.o) (ena_int)
C:/ProgramData/KMC/SOLID/SDK/2.0/solid-os/rtos/toppers_asp3/lib/armv7aLaiv/CT__\libkernel.a(vasyslog.o)
                              C:/Users/admin/Documents/SOLID-IDE/Projects/lwip_server/Debug_tasan/exeClang_SOLID/lwip_server/lwip_server_all.o (syslog)
C:/ProgramData/KMC/SOLID/SDK/2.0/solid-os/rtos/toppers_asp3/lib/armv7aLaiv/CT__\libkernel.a(semaphore.o)
                              C:/ProgramData/KMC/SOLID/SDK/2.0/solid-os/net/lwIP/lib/armv7aLaiv/CT_\libnet.a(sys_arch.o) (sig_sem)
C:/ProgramData/KMC/SOLID/SDK/2.0/solid-os/rtos/toppers_asp3/lib/armv7aLaiv/CT__\libkernel.a(startup.o)
                              C:/ProgramData/KMC/SOLID/SDK/2.0/solid-os/rtos/toppers_asp3/lib/armv7aLaiv/CT__\libkernel.a(dataqueue.o) (_kernel_kernel_malloc)
C:/ProgramData/KMC/SOLID/SDK/2.0/solid-os/rtos/toppers_asp3/lib/armv7aLaiv/CT__\libkernel.a(sys_manage.o)
                              C:/ProgramData/KMC/SOLID/SDK/2.0/solid-os/net/lwIP/lib/armv7aLaiv/CT_\libnet.a(sys_arch.o) (get_tid)
C:/ProgramData/KMC/SOLID/SDK/2.0/solid-os/rtos/toppers_asp3/lib/armv7aLaiv/CT__\libkernel.a(task.o)
                              C:/ProgramData/KMC/SOLID/SDK/2.0/solid-os/rtos/toppers_asp3/lib/armv7aLaiv/CT__\libkernel.a(dataqueue.o) (_kernel_dspflg)
C:/ProgramData/KMC/SOLID/SDK/2.0/solid-os/rtos/toppers_asp3/lib/armv7aLaiv/CT__\libkernel.a(taskhook.o)
                              C:/ProgramData/KMC/SOLID/SDK/2.0/solid-os/rtos/toppers_asp3/lib/armv7aLaiv/CT__\libkernel.a(task.o) (_kernel_mtxhook_release_all)
C:/ProgramData/KMC/SOLID/SDK/2.0/solid-os/rtos/toppers_asp3/lib/armv7aLaiv/CT__\libkernel.a(task_manage.o)
                              C:/ProgramData/KMC/SOLID/SDK/2.0/solid-os/net/lwIP/lib/armv7aLaiv/CT_\libnet.a(sys_arch.o) (act_tsk)
C:/ProgramData/KMC/SOLID/SDK/2.0/solid-os/rtos/toppers_asp3/lib/armv7aLaiv/CT__\libkernel.a(time_event.o)
                              C:/ProgramData/KMC/SOLID/SDK/2.0/solid-os/rtos/toppers_asp3/lib/armv7aLaiv/CT__\libkernel.a(startup.o) (_kernel_current_hrtcnt)
C:/ProgramData/KMC/SOLID/SDK/2.0/solid-os/rtos/toppers_asp3/lib/armv7aLaiv/CT__\libkernel.a(wait.o)
                              C:/ProgramData/KMC/SOLID/SDK/2.0/solid-os/rtos/toppers_asp3/lib/armv7aLaiv/CT__\libkernel.a(dataqueue.o) (_kernel_init_wait_queue)
C:/ProgramData/KMC/SOLID/SDK/2.0/solid-os/rtos/toppers_asp3/lib/armv7aLaiv/CT__\libkernel.a(solid_rtos_registerapi.o)
                              C:/ProgramData/KMC/SOLID/SDK/2.0/solid-os/rtos/toppers_asp3/lib/armv7aLaiv/CT__\libkernel.a(startup.o) (SOLID_RTOS_RegisterAPIs)
C:/ProgramData/KMC/SOLID/SDK/2.0/solid-os/rtos/toppers_asp3/lib/armv7aLaiv/CT__\libkernel.a(target_fput_log.o)
                              C:/ProgramData/KMC/SOLID/SDK/2.0/solid-os/rtos/toppers_asp3/lib/armv7aLaiv/CT__\libkernel.a(dataqueue.o) (tSysLog_eSysLog_write)
C:/ProgramData/KMC/SOLID/SDK/2.0/solid-os/rtos/toppers_asp3/lib/armv7aLaiv/CT__\libkernel.a(target_intc_impl.o)
                              C:/ProgramData/KMC/SOLID/SDK/2.0/solid-os/rtos/toppers_asp3/lib/armv7aLaiv/CT__\libkernel.a(interrupt.o) (__TMAX_INTNO__)
C:/ProgramData/KMC/SOLID/SDK/2.0/solid-os/rtos/toppers_asp3/lib/armv7aLaiv/CT__\libkernel.a(target_timer_impl.o)
                              C:/ProgramData/KMC/SOLID/SDK/2.0/solid-os/rtos/toppers_asp3/lib/armv7aLaiv/CT__\libkernel.a(startup.o) (_kernel_target_hrt_initialize)
C:/ProgramData/KMC/SOLID/SDK/2.0/solid-os/rtos/toppers_asp3/lib/armv7aLaiv/CT__\libkernel.a(kmc_evttracker_rtos.o)
                              C:/ProgramData/KMC/SOLID/SDK/2.0/solid-os/core/lib/armv7aLaiv/CT_\libsolid_cs.a(kmc_evttracker_core.o) (__kmc_eventlog_tstat_mask)
C:/ProgramData/KMC/SOLID/SDK/2.0/solid-os/rtos/toppers_asp3/lib/armv7aLaiv/CT__\libkernel.a(rtos_prof.o)
                              C:/ProgramData/KMC/SOLID/SDK/2.0/solid-os/rtos/toppers_asp3/lib/armv7aLaiv/CT__\libkernel.a(solid_rtos_registerapi.o) (RTOS_check_stack_overflow)
C:/ProgramData/KMC/SOLID/SDK/2.0/solid-os/rtos/toppers_asp3/lib/armv7aLaiv/CT__\libkernel.a(core_support.o)
                              C:/ProgramData/KMC/SOLID/SDK/2.0/solid-os/rtos/toppers_asp3/lib/armv7aLaiv/CT__\libkernel.a(startup.o) (_kernel_call_exit_kernel)
C:/ProgramData/KMC/SOLID/SDK/2.0/solid-os/rtos/toppers_asp3/lib/armv7aLaiv/CT__\libkernel.a(kernel_cfg_intl.o)
                              C:/ProgramData/KMC/SOLID/SDK/2.0/solid-os/rtos/toppers_asp3/lib/armv7aLaiv/CT__\libkernel.a(startup.o) (_kernel_initialize_object)
C:/ProgramData/KMC/SOLID/SDK/2.0/solid-os/rtos/toppers_asp3/lib/armv7aLaiv/CT__\libkernel.a(alarm.o)
                              C:/ProgramData/KMC/SOLID/SDK/2.0/solid-os/rtos/toppers_asp3/lib/armv7aLaiv/CT__\libkernel.a(kernel_cfg_intl.o) (_kernel_initialize_alarm)
C:/ProgramData/KMC/SOLID/SDK/2.0/solid-os/rtos/toppers_asp3/lib/armv7aLaiv/CT__\libkernel.a(core_kernel_impl.o)
                              C:/ProgramData/KMC/SOLID/SDK/2.0/solid-os/rtos/toppers_asp3/lib/armv7aLaiv/CT__\libkernel.a(startup.o) (_kernel_core_initialize)
C:/ProgramData/KMC/SOLID/SDK/2.0/solid-os/rtos/toppers_asp3/lib/armv7aLaiv/CT__\libkernel.a(cyclic.o)
                              C:/ProgramData/KMC/SOLID/SDK/2.0/solid-os/rtos/toppers_asp3/lib/armv7aLaiv/CT__\libkernel.a(kernel_cfg_intl.o) (_kernel_initialize_cyclic)
C:/ProgramData/KMC/SOLID/SDK/2.0/solid-os/rtos/toppers_asp3/lib/armv7aLaiv/CT__\libkernel.a(eventflag.o)
                              C:/ProgramData/KMC/SOLID/SDK/2.0/solid-os/rtos/toppers_asp3/lib/armv7aLaiv/CT__\libkernel.a(kernel_cfg_intl.o) (_kernel_initialize_eventflag)
C:/ProgramData/KMC/SOLID/SDK/2.0/solid-os/rtos/toppers_asp3/lib/armv7aLaiv/CT__\libkernel.a(exception.o)
                              C:/ProgramData/KMC/SOLID/SDK/2.0/solid-os/rtos/toppers_asp3/lib/armv7aLaiv/CT__\libkernel.a(solid_rtos_registerapi.o) (xsns_dpn)
C:/ProgramData/KMC/SOLID/SDK/2.0/solid-os/rtos/toppers_asp3/lib/armv7aLaiv/CT__\libkernel.a(mempfix.o)
                              C:/ProgramData/KMC/SOLID/SDK/2.0/solid-os/rtos/toppers_asp3/lib/armv7aLaiv/CT__\libkernel.a(kernel_cfg_intl.o) (_kernel_initialize_mempfix)
C:/ProgramData/KMC/SOLID/SDK/2.0/solid-os/rtos/toppers_asp3/lib/armv7aLaiv/CT__\libkernel.a(tSysLog.o)
                              C:/ProgramData/KMC/SOLID/SDK/2.0/solid-os/rtos/toppers_asp3/lib/armv7aLaiv/CT__\libkernel.a(solid_rtos_registerapi.o) (syslog_fls_log)
C:/ProgramData/KMC/SOLID/SDK/2.0/solid-os/rtos/toppers_asp3/lib/armv7aLaiv/CT__\libkernel.a(mutex.o)
                              C:/ProgramData/KMC/SOLID/SDK/2.0/solid-os/rtos/toppers_asp3/lib/armv7aLaiv/CT__\libkernel.a(kernel_cfg_intl.o) (_kernel_initialize_mutex)
C:/ProgramData/KMC/SOLID/SDK/2.0/solid-os/rtos/toppers_asp3/lib/armv7aLaiv/CT__\libkernel.a(pridataq.o)
                              C:/ProgramData/KMC/SOLID/SDK/2.0/solid-os/rtos/toppers_asp3/lib/armv7aLaiv/CT__\libkernel.a(kernel_cfg_intl.o) (_kernel_initialize_pridataq)
C:/ProgramData/KMC/SOLID/SDK/2.0/solid-os/rtos/toppers_asp3/lib/armv7aLaiv/CT__\libkernel.a(task_refer.o)
                              C:/ProgramData/KMC/SOLID/SDK/2.0/solid-os/rtos/toppers_asp3/lib/armv7aLaiv/CT__\libkernel.a(solid_rtos_registerapi.o) (ref_tsk)
C:/ProgramData/KMC/SOLID/SDK/2.0/solid-os/rtos/toppers_asp3/lib/armv7aLaiv/CT__\libkernel.a(task_sync.o)
                              C:/ProgramData/KMC/SOLID/SDK/2.0/solid-os/rtos/toppers_asp3/lib/armv7aLaiv/CT__\libkernel.a(solid_rtos_registerapi.o) (can_wup)
C:/ProgramData/KMC/SOLID/SDK/2.0/solid-os/rtos/toppers_asp3/lib/armv7aLaiv/CT__\libkernel.a(task_term.o)
                              C:/ProgramData/KMC/SOLID/SDK/2.0/solid-os/rtos/toppers_asp3/lib/armv7aLaiv/CT__\libkernel.a(solid_rtos_registerapi.o) (dis_ter)
C:/ProgramData/KMC/SOLID/SDK/2.0/solid-os/rtos/toppers_asp3/lib/armv7aLaiv/CT__\libkernel.a(time_manage.o)
                              C:/ProgramData/KMC/SOLID/SDK/2.0/solid-os/rtos/toppers_asp3/lib/armv7aLaiv/CT__\libkernel.a(solid_rtos_registerapi.o) (adj_tim)
C:/ProgramData/KMC/SOLID/SDK/2.0/solid-os/rtos/toppers_asp3/lib/armv7aLaiv/CT__\libkernel.a(log_output.o)
                              C:/ProgramData/KMC/SOLID/SDK/2.0/solid-os/rtos/toppers_asp3/lib/armv7aLaiv/CT__\libkernel.a(tSysLog.o) (syslog_lostmsg)
C:/Users/admin/Documents/SOLID-IDE/Projects/lwip_server/Debug_tasan/exeClang_SOLID/\libbsp.a(impl_cs_event.o)
                              C:/ProgramData/KMC/SOLID/SDK/2.0/solid-os/core/lib/armv7aLaiv/CT_\libsolid_cs.a(solid_cs_event.o) (IMPL_CS_EventNotify)
C:/Users/admin/Documents/SOLID-IDE/Projects/lwip_server/Debug_tasan/exeClang_SOLID/\libbsp.a(impl_dmac.o)
                              C:/ProgramData/KMC/SOLID/SDK/2.0/solid-os/core/lib/armv7aLaiv/CT_\libsolid_cs.a(solid_dmac.o) (IMPL_DMAC_AbortTransfer)
C:/Users/admin/Documents/SOLID-IDE/Projects/lwip_server/Debug_tasan/exeClang_SOLID/\libbsp.a(impl_iores.o)
                              C:/ProgramData/KMC/SOLID/SDK/2.0/solid-os/core/lib/armv7aLaiv/CT_\libsolid_cs.a(solid_iores.o) (IMPL_IORES_GetConfig)
C:/Users/admin/Documents/SOLID-IDE/Projects/lwip_server/Debug_tasan/exeClang_SOLID/\libbsp.a(impl_log.o)
                              C:/ProgramData/KMC/SOLID/SDK/2.0/solid-os/core/lib/armv7aLaiv/CT_\libsolid_cs.a(solid_log.o) (IMPL_LOG_Init)
C:/Users/admin/Documents/SOLID-IDE/Projects/lwip_server/Debug_tasan/exeClang_SOLID/\libbsp.a(impl_net_dev_ether.o)
                              C:/ProgramData/KMC/SOLID/SDK/2.0/solid-os/net/lwIP/lib/armv7aLaiv/CT_\libnet.a(solid_net_if.o) (IMPL_NET_DEV_init)
C:/Users/admin/Documents/SOLID-IDE/Projects/lwip_server/Debug_tasan/exeClang_SOLID/\libbsp.a(impl_net_dev_get_macaddr.o)
                              C:/ProgramData/KMC/SOLID/SDK/2.0/solid-os/net/lwIP/lib/armv7aLaiv/CT_\libnet.a(solid_net_if.o) (IMPL_NET_DEV_get_macaddr)
C:/Users/admin/Documents/SOLID-IDE/Projects/lwip_server/Debug_tasan/exeClang_SOLID/\libbsp.a(impl_net_dev_getconfig.o)
                              C:/ProgramData/KMC/SOLID/SDK/2.0/solid-os/net/lwIP/lib/armv7aLaiv/CT_\libnet.a(solid_net_if.o) (IMPL_NET_DEV_get_netconfig)
C:/Users/admin/Documents/SOLID-IDE/Projects/lwip_server/Debug_tasan/exeClang_SOLID/\libbsp.a(impl_rtc.o)
                              C:/ProgramData/KMC/SOLID/SDK/2.0/solid-os/core/lib/armv7aLaiv/CT_\libsolid_cs.a(solid_rtc.o) (IMPL_RTC_Init)
C:/Users/admin/Documents/SOLID-IDE/Projects/lwip_server/Debug_tasan/exeClang_SOLID/\libbsp.a(impl_timer.o)
                              C:/ProgramData/KMC/SOLID/SDK/2.0/solid-os/core/lib/armv7aLaiv/CT_\libsolid_cs.a(solid_timer.o) (IMPL_TIMER_ClearInterrupt)
C:/Users/admin/Documents/SOLID-IDE/Projects/lwip_server/Debug_tasan/exeClang_SOLID/\libbsp.a(rtc.o)
                              C:/Users/admin/Documents/SOLID-IDE/Projects/lwip_server/Debug_tasan/exeClang_SOLID/\libbsp.a(impl_rtc.o) (R_RTC_GetCnt)
C:/Users/admin/Documents/SOLID-IDE/Projects/lwip_server/Debug_tasan/exeClang_SOLID/\libbsp.a(rtc_userdef.o)
                              C:/Users/admin/Documents/SOLID-IDE/Projects/lwip_server/Debug_tasan/exeClang_SOLID/\libbsp.a(rtc.o) (Userdef_RTC_Init)
C:/Users/admin/Documents/SOLID-IDE/Projects/lwip_server/Debug_tasan/exeClang_SOLID/\libbsp.a(bsp_globals.o)
                              C:/Users/admin/Documents/SOLID-IDE/Projects/lwip_server/Debug_tasan/exeClang_SOLID/\libbsp.a(impl_cs_event.o) (IMPL_SYSTEM_IO_Initialize)
C:/Users/admin/Documents/SOLID-IDE/Projects/lwip_server/Debug_tasan/exeClang_SOLID/\libbsp.a(rza_io_regrw.o)
                              C:/Users/admin/Documents/SOLID-IDE/Projects/lwip_server/Debug_tasan/exeClang_SOLID/\libbsp.a(rtc.o) (RZA_IO_RegRead_16)
C:/GCC4/ARM/s002/lib/armv7aLaiv\libstdc++.a(class_type_info.o)
                              C:/ProgramData/KMC/SOLID/SDK/2.0/solid-os/core/lib/armv7aLaiv/CT_\libsolid_cs.a(solid_dmac.o) (_ZTVN10__cxxabiv117__class_type_infoE)
C:/GCC4/ARM/s002/lib/armv7aLaiv\libstdc++.a(new_handler.o)
                              C:/ProgramData/KMC/SOLID/SDK/2.0/solid-os/core/lib/armv7aLaiv/CT_\libsolid_cs.a(solid_dmac.o) (_ZSt7nothrow)
C:/GCC4/ARM/s002/lib/armv7aLaiv\libstdc++.a(del_ops.o)
                              C:/GCC4/ARM/s002/lib/armv7aLaiv\libstdc++.a(class_type_info.o) (_ZdlPvj)
C:/GCC4/ARM/s002/lib/armv7aLaiv\libstdc++.a(si_class_type_info.o)
                              C:/ProgramData/KMC/SOLID/SDK/2.0/solid-os/core/lib/armv7aLaiv/CT_\libsolid_cs.a(solid_loader.o) (_ZTVN10__cxxabiv120__si_class_type_infoE)
C:/GCC4/ARM/s002/lib/armv7aLaiv\libstdc++.a(del_op.o)
                              C:/ProgramData/KMC/SOLID/SDK/2.0/solid-os/core/lib/armv7aLaiv/CT_\libsolid_cs.a(solid_dmac.o) (_ZdlPv)
C:/GCC4/ARM/s002/lib/armv7aLaiv\libstdc++.a(tinfo.o)
                              C:/GCC4/ARM/s002/lib/armv7aLaiv\libstdc++.a(class_type_info.o) (_ZNSt9type_infoD2Ev)
C:/GCC4/ARM/s002/lib/armv7aLaiv/libgcc.a(_udivsi3.o)
                              C:/ProgramData/KMC/SOLID/SDK/2.0/solid-os/core/lib/armv7aLaiv/CT_\libsolid_cs.a(solid_loader.o) (__aeabi_uidiv)
C:/GCC4/ARM/s002/lib/armv7aLaiv/libgcc.a(_dvmd_tls.o)
                              C:/GCC4/ARM/s002/lib/armv7aLaiv/libgcc.a(_udivsi3.o) (__aeabi_idiv0)
C:/GCC4/ARM/s002/lib/armv7aLaiv/libgcc.a(_aeabi_uldivmod.o)
                              C:/ProgramData/KMC/SOLID/SDK/2.0/solid-os/core/lib/armv7aLaiv/CT_\libsolid_cs.a(solid_timer.o) (__aeabi_uldivmod)
C:/GCC4/ARM/s002/lib/armv7aLaiv/libgcc.a(_udivmoddi4.o)
                              C:/GCC4/ARM/s002/lib/armv7aLaiv/libgcc.a(_aeabi_uldivmod.o) (__udivmoddi4)
C:/GCC4/ARM/s002/lib/armv7aLaiv/libgcc.a(unwind-arm.o)
                              C:/Users/admin/Documents/SOLID-IDE/Projects/lwip_server/Debug_tasan/exeClang_SOLID/lwip_server/lwip_server_all.o (__aeabi_unwind_cpp_pr0)
C:/GCC4/ARM/s002/lib/armv7aLaiv/libgcc.a(libunwind.o)
                              C:/GCC4/ARM/s002/lib/armv7aLaiv/libgcc.a(unwind-arm.o) (restore_core_regs)
C:/GCC4/ARM/s002/lib/armv7aLaiv/libgcc.a(pr-support.o)
                              C:/GCC4/ARM/s002/lib/armv7aLaiv/libgcc.a(unwind-arm.o) (__gnu_unwind_execute)
C:/GCC4/ARM/s002/lib/armv7aLaiv/libc.a(_m_init.o)
                              C:/ProgramData/KMC/SOLID/SDK/2.0/solid-os/core/lib/armv7aLaiv/CT_\libsolid_cs.a(solid_cs_main.o) (_m_init)
C:/GCC4/ARM/s002/lib/armv7aLaiv/libc.a(abort.o)
                              C:/ProgramData/KMC/SOLID/SDK/2.0/solid-os/core/lib/armv7aLaiv/CT_\libsolid_cs.a(dlmalloc.o) (abort)
C:/GCC4/ARM/s002/lib/armv7aLaiv/libc.a(errno.o)
                              C:/ProgramData/KMC/SOLID/SDK/2.0/solid-os/core/lib/armv7aLaiv/CT_\libsolid_cs.a(dlmalloc.o) (__get_errno_addr)
C:/GCC4/ARM/s002/lib/armv7aLaiv/libc.a(atoi.o)
                              C:/ProgramData/KMC/SOLID/SDK/2.0/solid-os/net/lwIP/lib/armv7aLaiv/CT_\libnet.a(netdb.o) (atoi)
C:/GCC4/ARM/s002/lib/armv7aLaiv/libc.a(rand.o)
                              C:/ProgramData/KMC/SOLID/SDK/2.0/solid-os/net/lwIP/lib/armv7aLaiv/CT_\libnet.a(dns.o) (rand)
C:/GCC4/ARM/s002/lib/armv7aLaiv/libc.a(strtol.o)
                              C:/GCC4/ARM/s002/lib/armv7aLaiv/libc.a(atoi.o) (strtol)
C:/GCC4/ARM/s002/lib/armv7aLaiv/libc.a(strtoul.o)
                              C:/ProgramData/KMC/SOLID/SDK/2.0/solid-os/core/lib/armv7aLaiv/CT_\libsolid_cs.a(solid_fs_mem.o) (strtoul)
C:/GCC4/ARM/s002/lib/armv7aLaiv/libc.a(atexit.o)
                              C:/GCC4/ARM/s002/lib/armv7aLaiv/libc.a(_m_init.o) (__libc_atexit_init)
C:/GCC4/ARM/s002/lib/armv7aLaiv/libc.a(memcmp.o)
                              C:/ProgramData/KMC/SOLID/SDK/2.0/solid-os/core/lib/armv7aLaiv/CT_\libsolid_cs.a(tasan_interceptors.o) (memcmp)
C:/GCC4/ARM/s002/lib/armv7aLaiv/libc.a(memcpy.o)
                              C:/ProgramData/KMC/SOLID/SDK/2.0/solid-os/core/lib/armv7aLaiv/CT_\libsolid_cs.a(tasan_interceptors.o) (memcpy)
C:/GCC4/ARM/s002/lib/armv7aLaiv/libc.a(memmove.o)
                              C:/ProgramData/KMC/SOLID/SDK/2.0/solid-os/core/lib/armv7aLaiv/CT_\libsolid_cs.a(tasan_interceptors.o) (memmove)
C:/GCC4/ARM/s002/lib/armv7aLaiv/libc.a(memset.o)
                              C:/ProgramData/KMC/SOLID/SDK/2.0/solid-os/core/lib/armv7aLaiv/CT_\libsolid_cs.a(tasan.o) (__aeabi_memset)
C:/GCC4/ARM/s002/lib/armv7aLaiv/libc.a(strcpy.o)
                              C:/ProgramData/KMC/SOLID/SDK/2.0/solid-os/core/lib/armv7aLaiv/CT_\libsolid_cs.a(tasan_interceptors.o) (strcpy)
C:/GCC4/ARM/s002/lib/armv7aLaiv/libc.a(strncpy.o)
                              C:/ProgramData/KMC/SOLID/SDK/2.0/solid-os/core/lib/armv7aLaiv/CT_\libsolid_cs.a(solid_fs_base.o) (strncpy)
C:/GCC4/ARM/s002/lib/armv7aLaiv/libc.a(strcmp.o)
                              C:/ProgramData/KMC/SOLID/SDK/2.0/solid-os/core/lib/armv7aLaiv/CT_\libsolid_cs.a(solid_fs_base.o) (strcmp)
C:/GCC4/ARM/s002/lib/armv7aLaiv/libc.a(strncmp.o)
                              C:/ProgramData/KMC/SOLID/SDK/2.0/solid-os/core/lib/armv7aLaiv/CT_\libsolid_cs.a(solid_fs_base.o) (strncmp)
C:/GCC4/ARM/s002/lib/armv7aLaiv/libc.a(strlen.o)
                              C:/ProgramData/KMC/SOLID/SDK/2.0/solid-os/core/lib/armv7aLaiv/CT_\libsolid_cs.a(solid_fs_base.o) (strlen)
C:/GCC4/ARM/s002/lib/armv7aLaiv/libc.a(isctype.o)
                              C:/GCC4/ARM/s002/lib/armv7aLaiv/libc.a(strtol.o) (isspace_l)
C:/GCC4/ARM/s002/lib/armv7aLaiv/libc.a(global_locale.o)
                              C:/GCC4/ARM/s002/lib/armv7aLaiv/libc.a(strtol.o) (_lc_global_locale)
C:/GCC4/ARM/s002/lib/armv7aLaiv/libc.a(runetable.o)
                              C:/GCC4/ARM/s002/lib/armv7aLaiv/libc.a(global_locale.o) (_DefaultRuneLocale)
C:/GCC4/ARM/s002/lib/armv7aLaiv/libc.a(thread-stub-init.o)
                              C:/GCC4/ARM/s002/lib/armv7aLaiv/libc.a(_m_init.o) (__libc_thr_init)
C:/GCC4/ARM/s002/lib/armv7aLaiv/libc.a(thread-stub.o)
                              C:/GCC4/ARM/s002/lib/armv7aLaiv/libc.a(atexit.o) (__libc_mutex_init)
C:/GCC4/ARM/s002/lib/armv7aLaiv/libc.a(ssp_init.o)
                              C:/GCC4/ARM/s002/lib/armv7aLaiv/libc.a(_m_init.o) (__guard_setup)
C:/GCC4/ARM/s002/lib/armv7aLaiv/libc.a(findfp.o)
                              C:/ProgramData/KMC/SOLID/SDK/2.0/solid-os/core/lib/armv7aLaiv/CT_\libsolid_cs.a(dlmalloc.o) (__sF)
C:/GCC4/ARM/s002/lib/armv7aLaiv/libc.a(fprintf.o)
                              C:/ProgramData/KMC/SOLID/SDK/2.0/solid-os/core/lib/armv7aLaiv/CT_\libsolid_cs.a(dlmalloc.o) (fprintf)
C:/GCC4/ARM/s002/lib/armv7aLaiv/libc.a(stdio.o)
                              C:/GCC4/ARM/s002/lib/armv7aLaiv/libc.a(findfp.o) (__sread)
C:/GCC4/ARM/s002/lib/armv7aLaiv/libc.a(vfprintf.o)
                              C:/GCC4/ARM/s002/lib/armv7aLaiv/libc.a(fprintf.o) (_vfprintf_l)
C:/GCC4/ARM/s002/lib/armv7aLaiv/libc.a(vsnprintf.o)
                              C:/ProgramData/KMC/SOLID/SDK/2.0/solid-os/core/lib/armv7aLaiv/CT_\libsolid_cs.a(solid_cs_event.o) (vsnprintf)
C:/GCC4/ARM/s002/lib/armv7aLaiv/libc.a(wsetup.o)
                              C:/GCC4/ARM/s002/lib/armv7aLaiv/libc.a(vfprintf.o) (__swsetup)
C:/GCC4/ARM/s002/lib/armv7aLaiv/libc.a(makebuf.o)
                              C:/GCC4/ARM/s002/lib/armv7aLaiv/libc.a(wsetup.o) (__smakebuf)
C:/GCC4/ARM/s002/lib/armv7aLaiv/libc.a(close.o)
                              C:/GCC4/ARM/s002/lib/armv7aLaiv/libc.a(stdio.o) (close)
C:/GCC4/ARM/s002/lib/armv7aLaiv/libc.a(fstat.o)
                              C:/GCC4/ARM/s002/lib/armv7aLaiv/libc.a(makebuf.o) (fstat)
C:/GCC4/ARM/s002/lib/armv7aLaiv/libc.a(lseek.o)
                              C:/GCC4/ARM/s002/lib/armv7aLaiv/libc.a(stdio.o) (lseek)
C:/GCC4/ARM/s002/lib/armv7aLaiv/libc.a(open.o)
                              C:/GCC4/ARM/s002/lib/armv7aLaiv/libc.a(close.o) (_fd_status)
C:/GCC4/ARM/s002/lib/armv7aLaiv/libc.a(osemu.o)
                              C:/GCC4/ARM/s002/lib/armv7aLaiv/libc.a(open.o) (_vlink_open)
C:/GCC4/ARM/s002/lib/armv7aLaiv/libc.a(perror.o)
                              C:/Users/admin/Documents/SOLID-IDE/Projects/lwip_server/Debug_tasan/exeClang_SOLID/lwip_server/lwip_server_all.o (perror)
C:/GCC4/ARM/s002/lib/armv7aLaiv/libc.a(read.o)
                              C:/GCC4/ARM/s002/lib/armv7aLaiv/libc.a(stdio.o) (read)
C:/GCC4/ARM/s002/lib/armv7aLaiv/libc.a(u2dname.o)
                              C:/GCC4/ARM/s002/lib/armv7aLaiv/libc.a(open.o) (_unix2dosname)
C:/GCC4/ARM/s002/lib/armv7aLaiv/libc.a(utime.o)
                              C:/GCC4/ARM/s002/lib/armv7aLaiv/libc.a(fstat.o) (_dos2unix_file_time)
C:/GCC4/ARM/s002/lib/armv7aLaiv/libc.a(write.o)
                              C:/GCC4/ARM/s002/lib/armv7aLaiv/libc.a(abort.o) (write)
C:/GCC4/ARM/s002/lib/armv7aLaiv/libc.a(_env.o)
                              C:/GCC4/ARM/s002/lib/armv7aLaiv/libc.a(_m_init.o) (__libc_env_init)
C:/GCC4/ARM/s002/lib/armv7aLaiv/libc.a(exit.o)
                              C:/GCC4/ARM/s002/lib/armv7aLaiv/libc.a(findfp.o) (__cleanup)
C:/GCC4/ARM/s002/lib/armv7aLaiv/libc.a(signal.o)
                              C:/GCC4/ARM/s002/lib/armv7aLaiv/libc.a(thread-stub-init.o) (raise)
C:/GCC4/ARM/s002/lib/armv7aLaiv/libc.a(localtime.o)
                              C:/GCC4/ARM/s002/lib/armv7aLaiv/libc.a(utime.o) (_dos2unix_time)
C:/GCC4/ARM/s002/lib/armv7aLaiv/libc.a(lldiv.o)
                              C:/GCC4/ARM/s002/lib/armv7aLaiv/libc.a(localtime.o) (lldiv)
C:/GCC4/ARM/s002/lib/armv7aLaiv/libc.a(memchr.o)
                              C:/GCC4/ARM/s002/lib/armv7aLaiv/libc.a(vfprintf.o) (memchr)
C:/GCC4/ARM/s002/lib/armv7aLaiv/libc.a(strnlen.o)
                              C:/GCC4/ARM/s002/lib/armv7aLaiv/libc.a(perror.o) (strnlen)
C:/GCC4/ARM/s002/lib/armv7aLaiv/libc.a(strcspn.o)
                              C:/GCC4/ARM/s002/lib/armv7aLaiv/libc.a(_env.o) (strcspn)
C:/GCC4/ARM/s002/lib/armv7aLaiv/libc.a(strncasecmp.o)
                              C:/GCC4/ARM/s002/lib/armv7aLaiv/libc.a(_env.o) (_strncasecmp)
C:/GCC4/ARM/s002/lib/armv7aLaiv/libc.a(strdup.o)
                              C:/GCC4/ARM/s002/lib/armv7aLaiv/libc.a(vfprintf.o) (_strdup)
C:/GCC4/ARM/s002/lib/armv7aLaiv/libc.a(ctype_.o)
                              C:/GCC4/ARM/s002/lib/armv7aLaiv/libc.a(isctype.o) (_ctype_tab_)
C:/GCC4/ARM/s002/lib/armv7aLaiv/libc.a(toupper_.o)
                              C:/GCC4/ARM/s002/lib/armv7aLaiv/libc.a(isctype.o) (_toupper_tab_)
C:/GCC4/ARM/s002/lib/armv7aLaiv/libc.a(tolower_.o)
                              C:/GCC4/ARM/s002/lib/armv7aLaiv/libc.a(isctype.o) (_tolower_tab_)
C:/GCC4/ARM/s002/lib/armv7aLaiv/libc.a(citrus_ctype.o)
                              C:/GCC4/ARM/s002/lib/armv7aLaiv/libc.a(runetable.o) (_citrus_ctype_default)
C:/GCC4/ARM/s002/lib/armv7aLaiv/libc.a(citrus_none.o)
                              C:/GCC4/ARM/s002/lib/armv7aLaiv/libc.a(citrus_ctype.o) (_citrus_NONE_ctype_ops)
C:/GCC4/ARM/s002/lib/armv7aLaiv/libc.a(citrus_mskanji.o)
                              C:/GCC4/ARM/s002/lib/armv7aLaiv/libc.a(citrus_ctype.o) (_citrus_MSKanji_ctype_ops)
C:/GCC4/ARM/s002/lib/armv7aLaiv/libc.a(citrus_utf8.o)
                              C:/GCC4/ARM/s002/lib/armv7aLaiv/libc.a(citrus_ctype.o) (_citrus_UTF8_ctype_ops)
C:/GCC4/ARM/s002/lib/armv7aLaiv/libc.a(localeconv.o)
                              C:/GCC4/ARM/s002/lib/armv7aLaiv/libc.a(vfprintf.o) (localeconv_l)
C:/GCC4/ARM/s002/lib/armv7aLaiv/libc.a(multibyte_amd1.o)
                              C:/GCC4/ARM/s002/lib/armv7aLaiv/libc.a(vfprintf.o) (wcrtomb_l)
C:/GCC4/ARM/s002/lib/armv7aLaiv/libc.a(__isthreaded.o)
                              C:/GCC4/ARM/s002/lib/armv7aLaiv/libc.a(thread-stub.o) (__isthreaded)
C:/GCC4/ARM/s002/lib/armv7aLaiv/libc.a(dtoa.o)
                              C:/GCC4/ARM/s002/lib/armv7aLaiv/libc.a(vfprintf.o) (__dtoa)
C:/GCC4/ARM/s002/lib/armv7aLaiv/libc.a(ldtoa.o)
                              C:/GCC4/ARM/s002/lib/armv7aLaiv/libc.a(vfprintf.o) (__ldtoa)
C:/GCC4/ARM/s002/lib/armv7aLaiv/libc.a(hdtoa.o)
                              C:/GCC4/ARM/s002/lib/armv7aLaiv/libc.a(vfprintf.o) (__hdtoa)
C:/GCC4/ARM/s002/lib/armv7aLaiv/libc.a(dmisc.o)
                              C:/GCC4/ARM/s002/lib/armv7aLaiv/libc.a(dtoa.o) (__rv_alloc_D2A)
C:/GCC4/ARM/s002/lib/armv7aLaiv/libc.a(misc.o)
                              C:/GCC4/ARM/s002/lib/armv7aLaiv/libc.a(dtoa.o) (__Balloc_D2A)
C:/GCC4/ARM/s002/lib/armv7aLaiv/libc.a(softfloat.o)
                              C:/GCC4/ARM/s002/lib/armv7aLaiv/libc.a(dtoa.o) (__aeabi_i2d)
C:/GCC4/ARM/s002/lib/armv7aLaiv/libc.a(__aeabi_dcmpeq.o)
                              C:/GCC4/ARM/s002/lib/armv7aLaiv/libc.a(dtoa.o) (__aeabi_dcmpeq)
C:/GCC4/ARM/s002/lib/armv7aLaiv/libc.a(__aeabi_dcmpge.o)
                              C:/GCC4/ARM/s002/lib/armv7aLaiv/libc.a(dtoa.o) (__aeabi_dcmpge)
C:/GCC4/ARM/s002/lib/armv7aLaiv/libc.a(__aeabi_dcmpgt.o)
                              C:/GCC4/ARM/s002/lib/armv7aLaiv/libc.a(dtoa.o) (__aeabi_dcmpgt)
C:/GCC4/ARM/s002/lib/armv7aLaiv/libc.a(__aeabi_dcmplt.o)
                              C:/GCC4/ARM/s002/lib/armv7aLaiv/libc.a(dtoa.o) (__aeabi_dcmplt)
C:/GCC4/ARM/s002/lib/armv7aLaiv/libc.a(rb.o)
                              C:/GCC4/ARM/s002/lib/armv7aLaiv/libc.a(_env.o) (_rb_tree_init)
C:/GCC4/ARM/s002/lib/armv7aLaiv/libc.a(fflush.o)
                              C:/GCC4/ARM/s002/lib/armv7aLaiv/libc.a(findfp.o) (fflush)
C:/GCC4/ARM/s002/lib/armv7aLaiv/libc.a(flockfile.o)
                              C:/GCC4/ARM/s002/lib/armv7aLaiv/libc.a(vfprintf.o) (__flockfile_internal)
C:/GCC4/ARM/s002/lib/armv7aLaiv/libc.a(fvwrite.o)
                              C:/GCC4/ARM/s002/lib/armv7aLaiv/libc.a(vfprintf.o) (__sfvwrite)
C:/GCC4/ARM/s002/lib/armv7aLaiv/libc.a(fwalk.o)
                              C:/GCC4/ARM/s002/lib/armv7aLaiv/libc.a(fflush.o) (_fwalk)
C:/GCC4/ARM/s002/lib/armv7aLaiv/libc.a(creat.o)
                              C:/GCC4/ARM/s002/lib/armv7aLaiv/libc.a(open.o) (creat)
C:/GCC4/ARM/s002/lib/armv7aLaiv/libc.a(fpclassifyd_ieee754.o)
                              C:/GCC4/ARM/s002/lib/armv7aLaiv/libc.a(hdtoa.o) (__fpclassifyd)
C:/GCC4/ARM/s002/lib/armv7aLaiv/libc.a(strcasecmp.o)
                              C:/GCC4/ARM/s002/lib/armv7aLaiv/libc.a(citrus_ctype.o) (strcasecmp)
C:/GCC4/ARM/s002/lib/armv7aLaiv/libc.a(gdtoa_locks.o)
                              C:/GCC4/ARM/s002/lib/armv7aLaiv/libc.a(misc.o) (__gdtoa_locks)
C:/GCC4/ARM/s002/lib/armv7aLaiv/libgcc.a(_divsi3.o)
                              C:/GCC4/ARM/s002/lib/armv7aLaiv/libc.a(strtol.o) (__aeabi_idiv)
C:/GCC4/ARM/s002/lib/armv7aLaiv/libgcc.a(_arm_addsubdf3.o)
                              C:/GCC4/ARM/s002/lib/armv7aLaiv/libc.a(dtoa.o) (__aeabi_ui2d)
C:/GCC4/ARM/s002/lib/armv7aLaiv/libgcc.a(_aeabi_ldivmod.o)
                              C:/GCC4/ARM/s002/lib/armv7aLaiv/libc.a(vfprintf.o) (__aeabi_ldivmod)

Allocating common symbols
Common symbol       size              file

memp_memory_NETDB_base
                    0x137             C:/ProgramData/KMC/SOLID/SDK/2.0/solid-os/net/lwIP/lib/armv7aLaiv/CT_\libnet.a(memp.o)
_kernel_isrcb_table
                    0x1               C:/Users/admin/Documents/SOLID-IDE/Projects/lwip_server/Debug_tasan/exeClang_SOLID/lwip_server/lwip_server_all.o
g_MTU2Regs          0xc               C:/Users/admin/Documents/SOLID-IDE/Projects/lwip_server/Debug_tasan/exeClang_SOLID/\libbsp.a(bsp_globals.o)
csMem               0x4               C:/ProgramData/KMC/SOLID/SDK/2.0/solid-os/core/lib/armv7aLaiv/CT_\libsolid_cs.a(solid_malloc.o)
_kernel_isr_queue_table
                    0x1               C:/Users/admin/Documents/SOLID-IDE/Projects/lwip_server/Debug_tasan/exeClang_SOLID/lwip_server/lwip_server_all.o
_kernel_cyccb_table
                    0x1               C:/Users/admin/Documents/SOLID-IDE/Projects/lwip_server/Debug_tasan/exeClang_SOLID/lwip_server/lwip_server_all.o
g_PFV1Regs          0xc               C:/Users/admin/Documents/SOLID-IDE/Projects/lwip_server/Debug_tasan/exeClang_SOLID/\libbsp.a(bsp_globals.o)
netif_list          0x4               C:/ProgramData/KMC/SOLID/SDK/2.0/solid-os/net/lwIP/lib/armv7aLaiv/CT_\libnet.a(netif.o)
rtcreg              0x4               C:/Users/admin/Documents/SOLID-IDE/Projects/lwip_server/Debug_tasan/exeClang_SOLID/\libbsp.a(rtc.o)
_kernel_p_schedtsk  0x4               C:/ProgramData/KMC/SOLID/SDK/2.0/solid-os/rtos/toppers_asp3/lib/armv7aLaiv/CT__\libkernel.a(task.o)
g_OSTM1Regs         0xc               C:/Users/admin/Documents/SOLID-IDE/Projects/lwip_server/Debug_tasan/exeClang_SOLID/\libbsp.a(bsp_globals.o)
g_DISC0Regs         0xc               C:/Users/admin/Documents/SOLID-IDE/Projects/lwip_server/Debug_tasan/exeClang_SOLID/\libbsp.a(bsp_globals.o)
g_SPDIFRegs         0xc               C:/Users/admin/Documents/SOLID-IDE/Projects/lwip_server/Debug_tasan/exeClang_SOLID/\libbsp.a(bsp_globals.o)
_kernel_monotonic_evttim
                    0x4               C:/ProgramData/KMC/SOLID/SDK/2.0/solid-os/rtos/toppers_asp3/lib/armv7aLaiv/CT__\libkernel.a(time_event.o)
lock_tcpip_core     0x4               C:/ProgramData/KMC/SOLID/SDK/2.0/solid-os/net/lwIP/lib/armv7aLaiv/CT_\libnet.a(tcpip.o)
_kernel_mtxcb_table
                    0x1               C:/Users/admin/Documents/SOLID-IDE/Projects/lwip_server/Debug_tasan/exeClang_SOLID/lwip_server/lwip_server_all.o
ip_data             0x18              C:/ProgramData/KMC/SOLID/SDK/2.0/solid-os/net/lwIP/lib/armv7aLaiv/CT_\libnet.a(ip.o)
g_SPIBSC0Regs       0xc               C:/Users/admin/Documents/SOLID-IDE/Projects/lwip_server/Debug_tasan/exeClang_SOLID/\libbsp.a(bsp_globals.o)
memp_memory_NETBUF_base
                    0x23              C:/ProgramData/KMC/SOLID/SDK/2.0/solid-os/net/lwIP/lib/armv7aLaiv/CT_\libnet.a(memp.o)
tcp_active_pcbs_changed
                    0x1               C:/ProgramData/KMC/SOLID/SDK/2.0/solid-os/net/lwIP/lib/armv7aLaiv/CT_\libnet.a(tcp.o)
tcp_active_pcbs     0x4               C:/ProgramData/KMC/SOLID/SDK/2.0/solid-os/net/lwIP/lib/armv7aLaiv/CT_\libnet.a(tcp.o)
g_VDC50Regs         0xc               C:/Users/admin/Documents/SOLID-IDE/Projects/lwip_server/Debug_tasan/exeClang_SOLID/\libbsp.a(bsp_globals.o)
udp_pcbs            0x4               C:/ProgramData/KMC/SOLID/SDK/2.0/solid-os/net/lwIP/lib/armv7aLaiv/CT_\libnet.a(udp.o)
g_BSCRegs           0xc               C:/Users/admin/Documents/SOLID-IDE/Projects/lwip_server/Debug_tasan/exeClang_SOLID/\libbsp.a(bsp_globals.o)
_kernel_in_signal_time
                    0x4               C:/ProgramData/KMC/SOLID/SDK/2.0/solid-os/rtos/toppers_asp3/lib/armv7aLaiv/CT__\libkernel.a(time_event.o)
_kernel_apdqinib_table
                    0x1               C:/Users/admin/Documents/SOLID-IDE/Projects/lwip_server/Debug_tasan/exeClang_SOLID/lwip_server/lwip_server_all.o
_kernel_pdqcb_table
                    0x1               C:/Users/admin/Documents/SOLID-IDE/Projects/lwip_server/Debug_tasan/exeClang_SOLID/lwip_server/lwip_server_all.o
_kernel_boundary_evttim
                    0x4               C:/ProgramData/KMC/SOLID/SDK/2.0/solid-os/rtos/toppers_asp3/lib/armv7aLaiv/CT__\libkernel.a(time_event.o)
memp_memory_TCPIP_MSG_INPKT_base
                    0x203             C:/ProgramData/KMC/SOLID/SDK/2.0/solid-os/net/lwIP/lib/armv7aLaiv/CT_\libnet.a(memp.o)
_vlink_arg          0x4               C:/GCC4/ARM/s002/lib/armv7aLaiv/libc.a(osemu.o)
tcp_ticks           0x4               C:/ProgramData/KMC/SOLID/SDK/2.0/solid-os/net/lwIP/lib/armv7aLaiv/CT_\libnet.a(tcp.o)
tcp_listen_pcbs     0x4               C:/ProgramData/KMC/SOLID/SDK/2.0/solid-os/net/lwIP/lib/armv7aLaiv/CT_\libnet.a(tcp.o)
g_SSIF1Regs         0xc               C:/Users/admin/Documents/SOLID-IDE/Projects/lwip_server/Debug_tasan/exeClang_SOLID/\libbsp.a(bsp_globals.o)
_kernel_ampfinib_table
                    0x1               C:/Users/admin/Documents/SOLID-IDE/Projects/lwip_server/Debug_tasan/exeClang_SOLID/lwip_server/lwip_server_all.o
g_SCUXRegs          0xc               C:/Users/admin/Documents/SOLID-IDE/Projects/lwip_server/Debug_tasan/exeClang_SOLID/\libbsp.a(bsp_globals.o)
_kernel_aisrinib_table
                    0x1               C:/Users/admin/Documents/SOLID-IDE/Projects/lwip_server/Debug_tasan/exeClang_SOLID/lwip_server/lwip_server_all.o
_kernel_current_evttim
                    0x4               C:/ProgramData/KMC/SOLID/SDK/2.0/solid-os/rtos/toppers_asp3/lib/armv7aLaiv/CT__\libkernel.a(time_event.o)
memp_memory_TCP_SEG_base
                    0x323             C:/ProgramData/KMC/SOLID/SDK/2.0/solid-os/net/lwIP/lib/armv7aLaiv/CT_\libnet.a(memp.o)
g_USB200Regs        0xc               C:/Users/admin/Documents/SOLID-IDE/Projects/lwip_server/Debug_tasan/exeClang_SOLID/\libbsp.a(bsp_globals.o)
_kernel_acyc_nfyinfo_table
                    0x1               C:/Users/admin/Documents/SOLID-IDE/Projects/lwip_server/Debug_tasan/exeClang_SOLID/lwip_server/lwip_server_all.o
_kernel_dtqcb_table
                    0xa0              C:/Users/admin/Documents/SOLID-IDE/Projects/lwip_server/Debug_tasan/exeClang_SOLID/lwip_server/lwip_server_all.o
g_LIN0Regs          0xc               C:/Users/admin/Documents/SOLID-IDE/Projects/lwip_server/Debug_tasan/exeClang_SOLID/\libbsp.a(bsp_globals.o)
g_CPGRegs           0xc               C:/Users/admin/Documents/SOLID-IDE/Projects/lwip_server/Debug_tasan/exeClang_SOLID/\libbsp.a(bsp_globals.o)
_vlink_end_fnc      0x4               C:/GCC4/ARM/s002/lib/armv7aLaiv/libc.a(osemu.o)
g_RIIC2Regs         0xc               C:/Users/admin/Documents/SOLID-IDE/Projects/lwip_server/Debug_tasan/exeClang_SOLID/\libbsp.a(bsp_globals.o)
_eth_io_base1       0x4               C:/Users/admin/Documents/SOLID-IDE/Projects/lwip_server/Debug_tasan/exeClang_SOLID/\libbsp.a(impl_net_dev_ether.o)
_kernel_aalm_nfyinfo_table
                    0x1               C:/Users/admin/Documents/SOLID-IDE/Projects/lwip_server/Debug_tasan/exeClang_SOLID/lwip_server/lwip_server_all.o
memp_memory_PBUF_POOL_base
                    0x2fe03           C:/ProgramData/KMC/SOLID/SDK/2.0/solid-os/net/lwIP/lib/armv7aLaiv/CT_\libnet.a(memp.o)
g_pNestedContext    0x4               C:/ProgramData/KMC/SOLID/SDK/2.0/solid-os/core/lib/armv7aLaiv/CT_\libsolid_cs.a(solid_vector.o)
g_SDG3Regs          0xc               C:/Users/admin/Documents/SOLID-IDE/Projects/lwip_server/Debug_tasan/exeClang_SOLID/\libbsp.a(bsp_globals.o)
_kernel_ready_queue
                    0x80              C:/ProgramData/KMC/SOLID/SDK/2.0/solid-os/rtos/toppers_asp3/lib/armv7aLaiv/CT__\libkernel.a(task.o)
_kernel_atinib_table
                    0x1               C:/Users/admin/Documents/SOLID-IDE/Projects/lwip_server/Debug_tasan/exeClang_SOLID/lwip_server/lwip_server_all.o
_kernel_semcb_table
                    0x50              C:/Users/admin/Documents/SOLID-IDE/Projects/lwip_server/Debug_tasan/exeClang_SOLID/lwip_server/lwip_server_all.o
g_LVDSRegs          0xc               C:/Users/admin/Documents/SOLID-IDE/Projects/lwip_server/Debug_tasan/exeClang_SOLID/\libbsp.a(bsp_globals.o)
g_INBRegs           0xc               C:/Users/admin/Documents/SOLID-IDE/Projects/lwip_server/Debug_tasan/exeClang_SOLID/\libbsp.a(bsp_globals.o)
memp_memory_FRAG_PBUF_base
                    0x16b             C:/ProgramData/KMC/SOLID/SDK/2.0/solid-os/net/lwIP/lib/armv7aLaiv/CT_\libnet.a(memp.o)
memp_memory_TCPIP_MSG_API_base
                    0x103             C:/ProgramData/KMC/SOLID/SDK/2.0/solid-os/net/lwIP/lib/armv7aLaiv/CT_\libnet.a(memp.o)
sys_semaphore_table
                    0x28              C:/ProgramData/KMC/SOLID/SDK/2.0/solid-os/net/lwIP/lib/armv7aLaiv/CT_\libnet.a(sys_arch.o)
__global_vlink_errno
                    0x4               C:/GCC4/ARM/s002/lib/armv7aLaiv/libc.a(errno.o)
g_SSIF5Regs         0xc               C:/Users/admin/Documents/SOLID-IDE/Projects/lwip_server/Debug_tasan/exeClang_SOLID/\libbsp.a(bsp_globals.o)
_kernel_tmevt_heap  0x1c              C:/Users/admin/Documents/SOLID-IDE/Projects/lwip_server/Debug_tasan/exeClang_SOLID/lwip_server/lwip_server_all.o
_kernel_dspflg      0x4               C:/ProgramData/KMC/SOLID/SDK/2.0/solid-os/rtos/toppers_asp3/lib/armv7aLaiv/CT__\libkernel.a(task.o)
__atexit_mutex      0x1c              C:/GCC4/ARM/s002/lib/armv7aLaiv/libc.a(atexit.o)
g_USB201Regs        0xc               C:/Users/admin/Documents/SOLID-IDE/Projects/lwip_server/Debug_tasan/exeClang_SOLID/\libbsp.a(bsp_globals.o)
h_errno             0x4               C:/ProgramData/KMC/SOLID/SDK/2.0/solid-os/net/lwIP/lib/armv7aLaiv/CT_\libnet.a(netdb.o)
_netif_store_       0x38              C:/ProgramData/KMC/SOLID/SDK/2.0/solid-os/net/lwIP/lib/armv7aLaiv/CT_\libnet.a(impl_net_stack.o)
_kernel_ready_primap
                    0x2               C:/ProgramData/KMC/SOLID/SDK/2.0/solid-os/rtos/toppers_asp3/lib/armv7aLaiv/CT__\libkernel.a(task.o)
_kernel_inhcb_table
                    0x1               C:/Users/admin/Documents/SOLID-IDE/Projects/lwip_server/Debug_tasan/exeClang_SOLID/lwip_server/lwip_server_all.o
_kernel_almcb_table
                    0x1               C:/Users/admin/Documents/SOLID-IDE/Projects/lwip_server/Debug_tasan/exeClang_SOLID/lwip_server/lwip_server_all.o
environ             0x4               C:/GCC4/ARM/s002/lib/armv7aLaiv/libc.a(_env.o)
g_RTCRegs           0xc               C:/Users/admin/Documents/SOLID-IDE/Projects/lwip_server/Debug_tasan/exeClang_SOLID/\libbsp.a(bsp_globals.o)
tcp_input_pcb       0x4               C:/ProgramData/KMC/SOLID/SDK/2.0/solid-os/net/lwIP/lib/armv7aLaiv/CT_\libnet.a(tcp_in.o)
g_CEURegs           0xc               C:/Users/admin/Documents/SOLID-IDE/Projects/lwip_server/Debug_tasan/exeClang_SOLID/\libbsp.a(bsp_globals.o)
g_SSIF2Regs         0xc               C:/Users/admin/Documents/SOLID-IDE/Projects/lwip_server/Debug_tasan/exeClang_SOLID/\libbsp.a(bsp_globals.o)
__cleanup           0x4               C:/GCC4/ARM/s002/lib/armv7aLaiv/libc.a(exit.o)
_kernel_aflginib_table
                    0x1               C:/Users/admin/Documents/SOLID-IDE/Projects/lwip_server/Debug_tasan/exeClang_SOLID/lwip_server/lwip_server_all.o
_kernel_free_tcb    0x8               C:/ProgramData/KMC/SOLID/SDK/2.0/solid-os/rtos/toppers_asp3/lib/armv7aLaiv/CT__\libkernel.a(task.o)
_malloc_start_fnc   0x4               C:/GCC4/ARM/s002/lib/armv7aLaiv/libc.a(_m_init.o)
g_RIIC0Regs         0xc               C:/Users/admin/Documents/SOLID-IDE/Projects/lwip_server/Debug_tasan/exeClang_SOLID/\libbsp.a(bsp_globals.o)
sys_mutex_table     0x28              C:/ProgramData/KMC/SOLID/SDK/2.0/solid-os/net/lwIP/lib/armv7aLaiv/CT_\libnet.a(sys_arch.o)
_kernel_current_hrtcnt
                    0x4               C:/ProgramData/KMC/SOLID/SDK/2.0/solid-os/rtos/toppers_asp3/lib/armv7aLaiv/CT__\libkernel.a(time_event.o)
g_IRDARegs          0xc               C:/Users/admin/Documents/SOLID-IDE/Projects/lwip_server/Debug_tasan/exeClang_SOLID/\libbsp.a(bsp_globals.o)
_kernel_isrinib_table
                    0x1               C:/Users/admin/Documents/SOLID-IDE/Projects/lwip_server/Debug_tasan/exeClang_SOLID/lwip_server/lwip_server_all.o
_kernel_amtxinib_table
                    0x1               C:/Users/admin/Documents/SOLID-IDE/Projects/lwip_server/Debug_tasan/exeClang_SOLID/lwip_server/lwip_server_all.o
g_RIIC1Regs         0xc               C:/Users/admin/Documents/SOLID-IDE/Projects/lwip_server/Debug_tasan/exeClang_SOLID/\libbsp.a(bsp_globals.o)
dhcp_rx_options_given
                    0xa               C:/ProgramData/KMC/SOLID/SDK/2.0/solid-os/net/lwIP/lib/armv7aLaiv/CT_\libnet.a(dhcp.o)
g_SDG0Regs          0xc               C:/Users/admin/Documents/SOLID-IDE/Projects/lwip_server/Debug_tasan/exeClang_SOLID/\libbsp.a(bsp_globals.o)
_vlink_env          0x4               C:/GCC4/ARM/s002/lib/armv7aLaiv/libc.a(osemu.o)
memp_memory_PBUF_base
                    0x103             C:/ProgramData/KMC/SOLID/SDK/2.0/solid-os/net/lwIP/lib/armv7aLaiv/CT_\libnet.a(memp.o)
_kernel_aalminib_table
                    0x1               C:/Users/admin/Documents/SOLID-IDE/Projects/lwip_server/Debug_tasan/exeClang_SOLID/lwip_server/lwip_server_all.o
g_ROMDECRegs        0xc               C:/Users/admin/Documents/SOLID-IDE/Projects/lwip_server/Debug_tasan/exeClang_SOLID/\libbsp.a(bsp_globals.o)
_kernel_p_runtsk    0x4               C:/ProgramData/KMC/SOLID/SDK/2.0/solid-os/rtos/toppers_asp3/lib/armv7aLaiv/CT__\libkernel.a(task.o)
g_DMACRegs          0xc               C:/Users/admin/Documents/SOLID-IDE/Projects/lwip_server/Debug_tasan/exeClang_SOLID/\libbsp.a(impl_dmac.o)
tcp_bound_pcbs      0x4               C:/ProgramData/KMC/SOLID/SDK/2.0/solid-os/net/lwIP/lib/armv7aLaiv/CT_\libnet.a(tcp.o)
g_RSPI2Regs         0xc               C:/Users/admin/Documents/SOLID-IDE/Projects/lwip_server/Debug_tasan/exeClang_SOLID/\libbsp.a(bsp_globals.o)
memp_memory_TCP_PCB_LISTEN_base
                    0x103             C:/ProgramData/KMC/SOLID/SDK/2.0/solid-os/net/lwIP/lib/armv7aLaiv/CT_\libnet.a(memp.o)
memp_memory_REASSDATA_base
                    0xa3              C:/ProgramData/KMC/SOLID/SDK/2.0/solid-os/net/lwIP/lib/armv7aLaiv/CT_\libnet.a(memp.o)
g_RIIC3Regs         0xc               C:/Users/admin/Documents/SOLID-IDE/Projects/lwip_server/Debug_tasan/exeClang_SOLID/\libbsp.a(bsp_globals.o)
g_DVDEC1Regs        0xc               C:/Users/admin/Documents/SOLID-IDE/Projects/lwip_server/Debug_tasan/exeClang_SOLID/\libbsp.a(bsp_globals.o)
g_DISC1Regs         0xc               C:/Users/admin/Documents/SOLID-IDE/Projects/lwip_server/Debug_tasan/exeClang_SOLID/\libbsp.a(bsp_globals.o)
_kernel_mpfcb_table
                    0x1               C:/Users/admin/Documents/SOLID-IDE/Projects/lwip_server/Debug_tasan/exeClang_SOLID/lwip_server/lwip_server_all.o
g_ADCRegs           0xc               C:/Users/admin/Documents/SOLID-IDE/Projects/lwip_server/Debug_tasan/exeClang_SOLID/\libbsp.a(bsp_globals.o)
_kernel_tcb_table   0x168             C:/Users/admin/Documents/SOLID-IDE/Projects/lwip_server/Debug_tasan/exeClang_SOLID/lwip_server/lwip_server_all.o
g_PWMRegs           0xc               C:/Users/admin/Documents/SOLID-IDE/Projects/lwip_server/Debug_tasan/exeClang_SOLID/\libbsp.a(bsp_globals.o)
g_VDC51Regs         0xc               C:/Users/admin/Documents/SOLID-IDE/Projects/lwip_server/Debug_tasan/exeClang_SOLID/\libbsp.a(bsp_globals.o)
g_SDG1Regs          0xc               C:/Users/admin/Documents/SOLID-IDE/Projects/lwip_server/Debug_tasan/exeClang_SOLID/\libbsp.a(bsp_globals.o)
_malloc_end_fnc     0x4               C:/GCC4/ARM/s002/lib/armv7aLaiv/libc.a(_m_init.o)
g_SSIF4Regs         0xc               C:/Users/admin/Documents/SOLID-IDE/Projects/lwip_server/Debug_tasan/exeClang_SOLID/\libbsp.a(bsp_globals.o)
_kernel_excpt_nest_count
                    0x4               C:/ProgramData/KMC/SOLID/SDK/2.0/solid-os/rtos/toppers_asp3/lib/armv7aLaiv/CT__\libkernel.a(core_kernel_impl.o)
_kernel_enadsp      0x4               C:/ProgramData/KMC/SOLID/SDK/2.0/solid-os/rtos/toppers_asp3/lib/armv7aLaiv/CT__\libkernel.a(task.o)
memp_memory_UDP_PCB_base
                    0x83              C:/ProgramData/KMC/SOLID/SDK/2.0/solid-os/net/lwIP/lib/armv7aLaiv/CT_\libnet.a(memp.o)
pbuf_free_ooseq_pending
                    0x1               C:/ProgramData/KMC/SOLID/SDK/2.0/solid-os/net/lwIP/lib/armv7aLaiv/CT_\libnet.a(pbuf.o)
__kmc_toppers_event_data_size
                    0x4               C:/ProgramData/KMC/SOLID/SDK/2.0/solid-os/core/lib/armv7aLaiv/CT_\libsolid_cs.a(kmc_evttracker_core.o)
g_WDTRegs           0xc               C:/Users/admin/Documents/SOLID-IDE/Projects/lwip_server/Debug_tasan/exeClang_SOLID/\libbsp.a(bsp_globals.o)
g_SDG2Regs          0xc               C:/Users/admin/Documents/SOLID-IDE/Projects/lwip_server/Debug_tasan/exeClang_SOLID/\libbsp.a(bsp_globals.o)
g_RSPI4Regs         0xc               C:/Users/admin/Documents/SOLID-IDE/Projects/lwip_server/Debug_tasan/exeClang_SOLID/\libbsp.a(bsp_globals.o)
g_RSCAN0Regs        0xc               C:/Users/admin/Documents/SOLID-IDE/Projects/lwip_server/Debug_tasan/exeClang_SOLID/\libbsp.a(bsp_globals.o)
__global_errno      0x4               C:/GCC4/ARM/s002/lib/armv7aLaiv/libc.a(errno.o)
g_IEBRegs           0xc               C:/Users/admin/Documents/SOLID-IDE/Projects/lwip_server/Debug_tasan/exeClang_SOLID/\libbsp.a(bsp_globals.o)
g_LIN1Regs          0xc               C:/Users/admin/Documents/SOLID-IDE/Projects/lwip_server/Debug_tasan/exeClang_SOLID/\libbsp.a(bsp_globals.o)
g_GPIORegs          0xc               C:/Users/admin/Documents/SOLID-IDE/Projects/lwip_server/Debug_tasan/exeClang_SOLID/\libbsp.a(bsp_globals.o)
g_SSIF3Regs         0xc               C:/Users/admin/Documents/SOLID-IDE/Projects/lwip_server/Debug_tasan/exeClang_SOLID/\libbsp.a(bsp_globals.o)
netconn_aborted     0x1               C:/ProgramData/KMC/SOLID/SDK/2.0/solid-os/net/lwIP/lib/armv7aLaiv/CT_\libnet.a(api_msg.o)
_dhcp               0x40              C:/ProgramData/KMC/SOLID/SDK/2.0/solid-os/net/lwIP/lib/armv7aLaiv/CT_\libnet.a(impl_net_stack.o)
g_PFV0Regs          0xc               C:/Users/admin/Documents/SOLID-IDE/Projects/lwip_server/Debug_tasan/exeClang_SOLID/\libbsp.a(bsp_globals.o)
_kernel_isr_queue_list
                    0x1               C:/Users/admin/Documents/SOLID-IDE/Projects/lwip_server/Debug_tasan/exeClang_SOLID/lwip_server/lwip_server_all.o
g_RSPI3Regs         0xc               C:/Users/admin/Documents/SOLID-IDE/Projects/lwip_server/Debug_tasan/exeClang_SOLID/\libbsp.a(bsp_globals.o)
g_SPIBSC1Regs       0xc               C:/Users/admin/Documents/SOLID-IDE/Projects/lwip_server/Debug_tasan/exeClang_SOLID/\libbsp.a(bsp_globals.o)
__kmc_eventlog_buffer
                    0x30020           C:/Users/admin/Documents/SOLID-IDE/Projects/lwip_server/Debug_tasan/exeClang_SOLID/lwip_server/lwip_server_all.o
_eth_io_base3       0x4               C:/Users/admin/Documents/SOLID-IDE/Projects/lwip_server/Debug_tasan/exeClang_SOLID/\libbsp.a(impl_net_dev_ether.o)
_kernel_systim_offset
                    0x8               C:/ProgramData/KMC/SOLID/SDK/2.0/solid-os/rtos/toppers_asp3/lib/armv7aLaiv/CT__\libkernel.a(time_event.o)
g_FLCTLRegs         0xc               C:/Users/admin/Documents/SOLID-IDE/Projects/lwip_server/Debug_tasan/exeClang_SOLID/\libbsp.a(bsp_globals.o)
__kmc_toppers_event_data
                    0x4               C:/ProgramData/KMC/SOLID/SDK/2.0/solid-os/core/lib/armv7aLaiv/CT_\libsolid_cs.a(kmc_evttracker_core.o)
tcp_tw_pcbs         0x4               C:/ProgramData/KMC/SOLID/SDK/2.0/solid-os/net/lwIP/lib/armv7aLaiv/CT_\libnet.a(tcp.o)
memp_memory_NETCONN_base
                    0xc3              C:/ProgramData/KMC/SOLID/SDK/2.0/solid-os/net/lwIP/lib/armv7aLaiv/CT_\libnet.a(memp.o)
_kernel_aseminib_table
                    0x1               C:/Users/admin/Documents/SOLID-IDE/Projects/lwip_server/Debug_tasan/exeClang_SOLID/lwip_server/lwip_server_all.o
tasan_access_info   0x20              C:/ProgramData/KMC/SOLID/SDK/2.0/solid-os/core/lib/armv7aLaiv/CT_\libsolid_cs.a(tasan.o)
lwip_stats          0x104             C:/ProgramData/KMC/SOLID/SDK/2.0/solid-os/net/lwIP/lib/armv7aLaiv/CT_\libnet.a(stats.o)
g_RSPI0Regs         0xc               C:/Users/admin/Documents/SOLID-IDE/Projects/lwip_server/Debug_tasan/exeClang_SOLID/\libbsp.a(bsp_globals.o)
g_DMACRSRegs        0xc               C:/Users/admin/Documents/SOLID-IDE/Projects/lwip_server/Debug_tasan/exeClang_SOLID/\libbsp.a(bsp_globals.o)
netif_default       0x4               C:/ProgramData/KMC/SOLID/SDK/2.0/solid-os/net/lwIP/lib/armv7aLaiv/CT_\libnet.a(netif.o)
_vlink_start_fnc    0x4               C:/GCC4/ARM/s002/lib/armv7aLaiv/libc.a(osemu.o)
__sdidinit          0x4               C:/GCC4/ARM/s002/lib/armv7aLaiv/libc.a(findfp.o)
_kernel_acycinib_table
                    0x1               C:/Users/admin/Documents/SOLID-IDE/Projects/lwip_server/Debug_tasan/exeClang_SOLID/lwip_server/lwip_server_all.o
dhcp_rx_options_val
                    0x28              C:/ProgramData/KMC/SOLID/SDK/2.0/solid-os/net/lwIP/lib/armv7aLaiv/CT_\libnet.a(dhcp.o)
memp_memory_TCP_PCB_base
                    0x35f             C:/ProgramData/KMC/SOLID/SDK/2.0/solid-os/net/lwIP/lib/armv7aLaiv/CT_\libnet.a(memp.o)
memp_memory_SYS_TIMEOUT_base
                    0x63              C:/ProgramData/KMC/SOLID/SDK/2.0/solid-os/net/lwIP/lib/armv7aLaiv/CT_\libnet.a(memp.o)
_kernel_flgcb_table
                    0x1               C:/Users/admin/Documents/SOLID-IDE/Projects/lwip_server/Debug_tasan/exeClang_SOLID/lwip_server/lwip_server_all.o
g_MLBRegs           0xc               C:/Users/admin/Documents/SOLID-IDE/Projects/lwip_server/Debug_tasan/exeClang_SOLID/\libbsp.a(bsp_globals.o)
ram_heap            0x3e93            C:/ProgramData/KMC/SOLID/SDK/2.0/solid-os/net/lwIP/lib/armv7aLaiv/CT_\libnet.a(mem.o)
_eth_io_base2       0x4               C:/Users/admin/Documents/SOLID-IDE/Projects/lwip_server/Debug_tasan/exeClang_SOLID/\libbsp.a(impl_net_dev_ether.o)
g_DMARSRegs         0xc               C:/Users/admin/Documents/SOLID-IDE/Projects/lwip_server/Debug_tasan/exeClang_SOLID/\libbsp.a(impl_dmac.o)
g_SSIF0Regs         0xc               C:/Users/admin/Documents/SOLID-IDE/Projects/lwip_server/Debug_tasan/exeClang_SOLID/\libbsp.a(bsp_globals.o)
_net_sys_errno      0x4               C:/ProgramData/KMC/SOLID/SDK/2.0/solid-os/net/lwIP/lib/armv7aLaiv/CT_\libnet.a(impl_net_stack_errno.o)
g_JCURegs           0xc               C:/Users/admin/Documents/SOLID-IDE/Projects/lwip_server/Debug_tasan/exeClang_SOLID/\libbsp.a(bsp_globals.o)
sys_mbox_table      0x28              C:/ProgramData/KMC/SOLID/SDK/2.0/solid-os/net/lwIP/lib/armv7aLaiv/CT_\libnet.a(sys_arch.o)
g_DVDEC0Regs        0xc               C:/Users/admin/Documents/SOLID-IDE/Projects/lwip_server/Debug_tasan/exeClang_SOLID/\libbsp.a(bsp_globals.o)
g_RSPI1Regs         0xc               C:/Users/admin/Documents/SOLID-IDE/Projects/lwip_server/Debug_tasan/exeClang_SOLID/\libbsp.a(bsp_globals.o)
_kernel_adtqinib_table
                    0x1               C:/Users/admin/Documents/SOLID-IDE/Projects/lwip_server/Debug_tasan/exeClang_SOLID/lwip_server/lwip_server_all.o
g_OSTM0Regs         0xc               C:/Users/admin/Documents/SOLID-IDE/Projects/lwip_server/Debug_tasan/exeClang_SOLID/\libbsp.a(bsp_globals.o)
_kernel_free_isrcb  0x8               C:/ProgramData/KMC/SOLID/SDK/2.0/solid-os/rtos/toppers_asp3/lib/armv7aLaiv/CT__\libkernel.a(interrupt.o)

Discarded input sections

 .group         0x00000000        0xc C:/ProgramData/KMC/SOLID/SDK/2.0/solid-os/core/lib/armv7aLaiv/CT_\libsolid_cs.a(solid_dmac.o)
 .group         0x00000000        0xc C:/ProgramData/KMC/SOLID/SDK/2.0/solid-os/core/lib/armv7aLaiv/CT_\libsolid_cs.a(solid_dmac.o)
 .group         0x00000000        0xc C:/ProgramData/KMC/SOLID/SDK/2.0/solid-os/core/lib/armv7aLaiv/CT_\libsolid_cs.a(solid_dmac.o)
 .group         0x00000000        0xc C:/ProgramData/KMC/SOLID/SDK/2.0/solid-os/core/lib/armv7aLaiv/CT_\libsolid_cs.a(solid_dmac.o)
 .group         0x00000000        0xc C:/ProgramData/KMC/SOLID/SDK/2.0/solid-os/core/lib/armv7aLaiv/CT_\libsolid_cs.a(solid_dmac.o)
 .group         0x00000000        0xc C:/ProgramData/KMC/SOLID/SDK/2.0/solid-os/core/lib/armv7aLaiv/CT_\libsolid_cs.a(solid_dmac.o)
 .group         0x00000000        0xc C:/ProgramData/KMC/SOLID/SDK/2.0/solid-os/core/lib/armv7aLaiv/CT_\libsolid_cs.a(solid_dmac.o)
 .group         0x00000000        0x8 C:/ProgramData/KMC/SOLID/SDK/2.0/solid-os/core/lib/armv7aLaiv/CT_\libsolid_cs.a(solid_dmac.o)
 .group         0x00000000        0x8 C:/ProgramData/KMC/SOLID/SDK/2.0/solid-os/core/lib/armv7aLaiv/CT_\libsolid_cs.a(solid_dmac.o)
 .group         0x00000000        0x8 C:/ProgramData/KMC/SOLID/SDK/2.0/solid-os/core/lib/armv7aLaiv/CT_\libsolid_cs.a(solid_dmac.o)
 .group         0x00000000        0xc C:/ProgramData/KMC/SOLID/SDK/2.0/solid-os/core/lib/armv7aLaiv/CT_\libsolid_cs.a(solid_fs_base.o)
 .group         0x00000000        0xc C:/ProgramData/KMC/SOLID/SDK/2.0/solid-os/core/lib/armv7aLaiv/CT_\libsolid_cs.a(solid_fs_base.o)
 .group         0x00000000        0xc C:/ProgramData/KMC/SOLID/SDK/2.0/solid-os/core/lib/armv7aLaiv/CT_\libsolid_cs.a(solid_fs_base.o)
 .group         0x00000000        0xc C:/ProgramData/KMC/SOLID/SDK/2.0/solid-os/core/lib/armv7aLaiv/CT_\libsolid_cs.a(solid_fs_base.o)
 .group         0x00000000        0xc C:/ProgramData/KMC/SOLID/SDK/2.0/solid-os/core/lib/armv7aLaiv/CT_\libsolid_cs.a(solid_intc.o)
 .group         0x00000000        0xc C:/ProgramData/KMC/SOLID/SDK/2.0/solid-os/core/lib/armv7aLaiv/CT_\libsolid_cs.a(solid_intc.o)
 .group         0x00000000        0xc C:/ProgramData/KMC/SOLID/SDK/2.0/solid-os/core/lib/armv7aLaiv/CT_\libsolid_cs.a(solid_intc.o)
 .group         0x00000000        0xc C:/ProgramData/KMC/SOLID/SDK/2.0/solid-os/core/lib/armv7aLaiv/CT_\libsolid_cs.a(solid_intc.o)
 .group         0x00000000        0xc C:/ProgramData/KMC/SOLID/SDK/2.0/solid-os/core/lib/armv7aLaiv/CT_\libsolid_cs.a(solid_intc.o)
 .group         0x00000000        0xc C:/ProgramData/KMC/SOLID/SDK/2.0/solid-os/core/lib/armv7aLaiv/CT_\libsolid_cs.a(solid_intc.o)
 .group         0x00000000        0xc C:/ProgramData/KMC/SOLID/SDK/2.0/solid-os/core/lib/armv7aLaiv/CT_\libsolid_cs.a(solid_loader.o)
 .group         0x00000000        0xc C:/ProgramData/KMC/SOLID/SDK/2.0/solid-os/core/lib/armv7aLaiv/CT_\libsolid_cs.a(solid_loader.o)
 .group         0x00000000        0xc C:/ProgramData/KMC/SOLID/SDK/2.0/solid-os/core/lib/armv7aLaiv/CT_\libsolid_cs.a(solid_loader.o)
 .group         0x00000000        0xc C:/ProgramData/KMC/SOLID/SDK/2.0/solid-os/core/lib/armv7aLaiv/CT_\libsolid_cs.a(solid_loader.o)
 .group         0x00000000        0xc C:/ProgramData/KMC/SOLID/SDK/2.0/solid-os/core/lib/armv7aLaiv/CT_\libsolid_cs.a(solid_loader.o)
 .group         0x00000000        0xc C:/ProgramData/KMC/SOLID/SDK/2.0/solid-os/core/lib/armv7aLaiv/CT_\libsolid_cs.a(solid_loader.o)
 .group         0x00000000        0xc C:/ProgramData/KMC/SOLID/SDK/2.0/solid-os/core/lib/armv7aLaiv/CT_\libsolid_cs.a(solid_loader.o)
 .group         0x00000000        0xc C:/ProgramData/KMC/SOLID/SDK/2.0/solid-os/core/lib/armv7aLaiv/CT_\libsolid_cs.a(solid_loader.o)
 .group         0x00000000        0xc C:/ProgramData/KMC/SOLID/SDK/2.0/solid-os/core/lib/armv7aLaiv/CT_\libsolid_cs.a(solid_loader.o)
 .group         0x00000000        0xc C:/ProgramData/KMC/SOLID/SDK/2.0/solid-os/core/lib/armv7aLaiv/CT_\libsolid_cs.a(solid_loader.o)
 .group         0x00000000        0xc C:/ProgramData/KMC/SOLID/SDK/2.0/solid-os/core/lib/armv7aLaiv/CT_\libsolid_cs.a(solid_loader.o)
 .group         0x00000000        0xc C:/ProgramData/KMC/SOLID/SDK/2.0/solid-os/core/lib/armv7aLaiv/CT_\libsolid_cs.a(solid_loader.o)
 .group         0x00000000        0xc C:/ProgramData/KMC/SOLID/SDK/2.0/solid-os/core/lib/armv7aLaiv/CT_\libsolid_cs.a(solid_loader.o)
 .group         0x00000000        0xc C:/ProgramData/KMC/SOLID/SDK/2.0/solid-os/core/lib/armv7aLaiv/CT_\libsolid_cs.a(solid_loader.o)
 .group         0x00000000        0xc C:/ProgramData/KMC/SOLID/SDK/2.0/solid-os/core/lib/armv7aLaiv/CT_\libsolid_cs.a(solid_loader.o)
 .group         0x00000000        0xc C:/ProgramData/KMC/SOLID/SDK/2.0/solid-os/core/lib/armv7aLaiv/CT_\libsolid_cs.a(solid_loader.o)
 .group         0x00000000        0xc C:/ProgramData/KMC/SOLID/SDK/2.0/solid-os/core/lib/armv7aLaiv/CT_\libsolid_cs.a(solid_loader.o)
 .group         0x00000000        0xc C:/ProgramData/KMC/SOLID/SDK/2.0/solid-os/core/lib/armv7aLaiv/CT_\libsolid_cs.a(solid_loader.o)
 .group         0x00000000        0xc C:/ProgramData/KMC/SOLID/SDK/2.0/solid-os/core/lib/armv7aLaiv/CT_\libsolid_cs.a(solid_loader.o)
 .group         0x00000000        0xc C:/ProgramData/KMC/SOLID/SDK/2.0/solid-os/core/lib/armv7aLaiv/CT_\libsolid_cs.a(solid_loader.o)
 .group         0x00000000        0xc C:/ProgramData/KMC/SOLID/SDK/2.0/solid-os/core/lib/armv7aLaiv/CT_\libsolid_cs.a(solid_loader.o)
 .group         0x00000000        0xc C:/ProgramData/KMC/SOLID/SDK/2.0/solid-os/core/lib/armv7aLaiv/CT_\libsolid_cs.a(solid_loader.o)
 .group         0x00000000        0xc C:/ProgramData/KMC/SOLID/SDK/2.0/solid-os/core/lib/armv7aLaiv/CT_\libsolid_cs.a(solid_loader.o)
 .group         0x00000000        0xc C:/ProgramData/KMC/SOLID/SDK/2.0/solid-os/core/lib/armv7aLaiv/CT_\libsolid_cs.a(solid_loader.o)
 .group         0x00000000        0xc C:/ProgramData/KMC/SOLID/SDK/2.0/solid-os/core/lib/armv7aLaiv/CT_\libsolid_cs.a(solid_loader.o)
 .group         0x00000000        0x8 C:/ProgramData/KMC/SOLID/SDK/2.0/solid-os/core/lib/armv7aLaiv/CT_\libsolid_cs.a(solid_loader.o)
 .group         0x00000000        0x8 C:/ProgramData/KMC/SOLID/SDK/2.0/solid-os/core/lib/armv7aLaiv/CT_\libsolid_cs.a(solid_loader.o)
 .group         0x00000000        0x8 C:/ProgramData/KMC/SOLID/SDK/2.0/solid-os/core/lib/armv7aLaiv/CT_\libsolid_cs.a(solid_loader.o)
 .group         0x00000000        0x8 C:/ProgramData/KMC/SOLID/SDK/2.0/solid-os/core/lib/armv7aLaiv/CT_\libsolid_cs.a(solid_loader.o)
 .group         0x00000000        0x8 C:/ProgramData/KMC/SOLID/SDK/2.0/solid-os/core/lib/armv7aLaiv/CT_\libsolid_cs.a(solid_loader.o)
 .group         0x00000000        0x8 C:/ProgramData/KMC/SOLID/SDK/2.0/solid-os/core/lib/armv7aLaiv/CT_\libsolid_cs.a(solid_loader.o)
 .group         0x00000000        0xc C:/ProgramData/KMC/SOLID/SDK/2.0/solid-os/core/lib/armv7aLaiv/CT_\libsolid_cs.a(solid_mem.o)
 .group         0x00000000        0xc C:/ProgramData/KMC/SOLID/SDK/2.0/solid-os/core/lib/armv7aLaiv/CT_\libsolid_cs.a(solid_mem.o)
 .group         0x00000000        0xc C:/ProgramData/KMC/SOLID/SDK/2.0/solid-os/core/lib/armv7aLaiv/CT_\libsolid_cs.a(solid_mem.o)
 .group         0x00000000        0xc C:/ProgramData/KMC/SOLID/SDK/2.0/solid-os/core/lib/armv7aLaiv/CT_\libsolid_cs.a(solid_mem.o)
 .group         0x00000000        0xc C:/ProgramData/KMC/SOLID/SDK/2.0/solid-os/core/lib/armv7aLaiv/CT_\libsolid_cs.a(solid_mem.o)
 .group         0x00000000        0xc C:/ProgramData/KMC/SOLID/SDK/2.0/solid-os/core/lib/armv7aLaiv/CT_\libsolid_cs.a(solid_mem.o)
 .group         0x00000000        0xc C:/ProgramData/KMC/SOLID/SDK/2.0/solid-os/core/lib/armv7aLaiv/CT_\libsolid_cs.a(solid_mem.o)
 .group         0x00000000        0xc C:/ProgramData/KMC/SOLID/SDK/2.0/solid-os/core/lib/armv7aLaiv/CT_\libsolid_cs.a(solid_mem.o)
 .group         0x00000000        0xc C:/ProgramData/KMC/SOLID/SDK/2.0/solid-os/core/lib/armv7aLaiv/CT_\libsolid_cs.a(solid_mem.o)
 .group         0x00000000        0xc C:/ProgramData/KMC/SOLID/SDK/2.0/solid-os/core/lib/armv7aLaiv/CT_\libsolid_cs.a(solid_mem.o)
 .group         0x00000000        0xc C:/ProgramData/KMC/SOLID/SDK/2.0/solid-os/core/lib/armv7aLaiv/CT_\libsolid_cs.a(solid_mem.o)
 .group         0x00000000        0xc C:/ProgramData/KMC/SOLID/SDK/2.0/solid-os/core/lib/armv7aLaiv/CT_\libsolid_cs.a(solid_mem.o)
 .group         0x00000000        0xc C:/ProgramData/KMC/SOLID/SDK/2.0/solid-os/core/lib/armv7aLaiv/CT_\libsolid_cs.a(solid_mem.o)
 .group         0x00000000        0xc C:/ProgramData/KMC/SOLID/SDK/2.0/solid-os/core/lib/armv7aLaiv/CT_\libsolid_cs.a(solid_mem.o)
 .group         0x00000000        0xc C:/ProgramData/KMC/SOLID/SDK/2.0/solid-os/core/lib/armv7aLaiv/CT_\libsolid_cs.a(solid_mem.o)
 .group         0x00000000        0xc C:/ProgramData/KMC/SOLID/SDK/2.0/solid-os/core/lib/armv7aLaiv/CT_\libsolid_cs.a(solid_mem.o)
 .group         0x00000000        0xc C:/ProgramData/KMC/SOLID/SDK/2.0/solid-os/core/lib/armv7aLaiv/CT_\libsolid_cs.a(solid_mem.o)
 .group         0x00000000        0xc C:/ProgramData/KMC/SOLID/SDK/2.0/solid-os/core/lib/armv7aLaiv/CT_\libsolid_cs.a(solid_mem.o)
 .group         0x00000000        0xc C:/ProgramData/KMC/SOLID/SDK/2.0/solid-os/core/lib/armv7aLaiv/CT_\libsolid_cs.a(solid_mem.o)
 .group         0x00000000        0xc C:/ProgramData/KMC/SOLID/SDK/2.0/solid-os/core/lib/armv7aLaiv/CT_\libsolid_cs.a(solid_mem.o)
 .group         0x00000000        0xc C:/ProgramData/KMC/SOLID/SDK/2.0/solid-os/core/lib/armv7aLaiv/CT_\libsolid_cs.a(solid_mem.o)
 .group         0x00000000        0xc C:/ProgramData/KMC/SOLID/SDK/2.0/solid-os/core/lib/armv7aLaiv/CT_\libsolid_cs.a(solid_mem.o)
 .group         0x00000000        0xc C:/ProgramData/KMC/SOLID/SDK/2.0/solid-os/core/lib/armv7aLaiv/CT_\libsolid_cs.a(solid_mem.o)
 .group         0x00000000        0xc C:/ProgramData/KMC/SOLID/SDK/2.0/solid-os/core/lib/armv7aLaiv/CT_\libsolid_cs.a(solid_mem.o)
 .group         0x00000000        0xc C:/ProgramData/KMC/SOLID/SDK/2.0/solid-os/core/lib/armv7aLaiv/CT_\libsolid_cs.a(solid_mem.o)
 .group         0x00000000        0xc C:/ProgramData/KMC/SOLID/SDK/2.0/solid-os/core/lib/armv7aLaiv/CT_\libsolid_cs.a(solid_mem.o)
 .group         0x00000000        0xc C:/ProgramData/KMC/SOLID/SDK/2.0/solid-os/core/lib/armv7aLaiv/CT_\libsolid_cs.a(solid_mem.o)
 .group         0x00000000        0xc C:/ProgramData/KMC/SOLID/SDK/2.0/solid-os/core/lib/armv7aLaiv/CT_\libsolid_cs.a(solid_mem.o)
 .group         0x00000000        0x8 C:/ProgramData/KMC/SOLID/SDK/2.0/solid-os/core/lib/armv7aLaiv/CT_\libsolid_cs.a(solid_mem.o)
 .group         0x00000000        0x8 C:/ProgramData/KMC/SOLID/SDK/2.0/solid-os/core/lib/armv7aLaiv/CT_\libsolid_cs.a(solid_mem.o)
 .group         0x00000000        0x8 C:/ProgramData/KMC/SOLID/SDK/2.0/solid-os/core/lib/armv7aLaiv/CT_\libsolid_cs.a(solid_mem.o)
 .group         0x00000000        0x8 C:/ProgramData/KMC/SOLID/SDK/2.0/solid-os/core/lib/armv7aLaiv/CT_\libsolid_cs.a(solid_mem.o)
 .group         0x00000000        0x8 C:/ProgramData/KMC/SOLID/SDK/2.0/solid-os/core/lib/armv7aLaiv/CT_\libsolid_cs.a(solid_mem.o)
 .group         0x00000000        0x8 C:/ProgramData/KMC/SOLID/SDK/2.0/solid-os/core/lib/armv7aLaiv/CT_\libsolid_cs.a(solid_mem.o)
 .group         0x00000000        0xc C:/ProgramData/KMC/SOLID/SDK/2.0/solid-os/core/lib/armv7aLaiv/CT_\libsolid_cs.a(solid_timer.o)
 .group         0x00000000        0xc C:/ProgramData/KMC/SOLID/SDK/2.0/solid-os/core/lib/armv7aLaiv/CT_\libsolid_cs.a(solid_timer.o)
 .group         0x00000000        0xc C:/ProgramData/KMC/SOLID/SDK/2.0/solid-os/core/lib/armv7aLaiv/CT_\libsolid_cs.a(solid_timer.o)
 .group         0x00000000        0xc C:/ProgramData/KMC/SOLID/SDK/2.0/solid-os/core/lib/armv7aLaiv/CT_\libsolid_cs.a(solid_timer.o)
 .group         0x00000000        0xc C:/ProgramData/KMC/SOLID/SDK/2.0/solid-os/core/lib/armv7aLaiv/CT_\libsolid_cs.a(solid_timer.o)
 .group         0x00000000        0xc C:/ProgramData/KMC/SOLID/SDK/2.0/solid-os/core/lib/armv7aLaiv/CT_\libsolid_cs.a(solid_timer.o)
 .group         0x00000000        0xc C:/ProgramData/KMC/SOLID/SDK/2.0/solid-os/core/lib/armv7aLaiv/CT_\libsolid_cs.a(solid_timer.o)
 .group         0x00000000       0x10 C:/Users/admin/Documents/SOLID-IDE/Projects/lwip_server/Debug_tasan/exeClang_SOLID/\libbsp.a(impl_cs_event.o)
 .group         0x00000000       0x10 C:/Users/admin/Documents/SOLID-IDE/Projects/lwip_server/Debug_tasan/exeClang_SOLID/\libbsp.a(rtc.o)
 .text.asan.module_ctor
                0x00000000       0x10 C:/Users/admin/Documents/SOLID-IDE/Projects/lwip_server/Debug_tasan/exeClang_SOLID/\libbsp.a(rtc.o)
 .ARM.exidx.text.asan.module_ctor
                0x00000000        0x8 C:/Users/admin/Documents/SOLID-IDE/Projects/lwip_server/Debug_tasan/exeClang_SOLID/\libbsp.a(rtc.o)
 .group         0x00000000       0x10 C:/Users/admin/Documents/SOLID-IDE/Projects/lwip_server/Debug_tasan/exeClang_SOLID/\libbsp.a(rtc_userdef.o)
 .text.asan.module_ctor
                0x00000000       0x10 C:/Users/admin/Documents/SOLID-IDE/Projects/lwip_server/Debug_tasan/exeClang_SOLID/\libbsp.a(rtc_userdef.o)
 .ARM.exidx.text.asan.module_ctor
                0x00000000        0x8 C:/Users/admin/Documents/SOLID-IDE/Projects/lwip_server/Debug_tasan/exeClang_SOLID/\libbsp.a(rtc_userdef.o)
 .group         0x00000000       0x10 C:/Users/admin/Documents/SOLID-IDE/Projects/lwip_server/Debug_tasan/exeClang_SOLID/\libbsp.a(rza_io_regrw.o)
 .text.asan.module_ctor
                0x00000000       0x10 C:/Users/admin/Documents/SOLID-IDE/Projects/lwip_server/Debug_tasan/exeClang_SOLID/\libbsp.a(rza_io_regrw.o)
 .ARM.exidx.text.asan.module_ctor
                0x00000000        0x8 C:/Users/admin/Documents/SOLID-IDE/Projects/lwip_server/Debug_tasan/exeClang_SOLID/\libbsp.a(rza_io_regrw.o)
 .gnu.warning.__findenv
                0x00000000        0x0 C:/GCC4/ARM/s002/lib/armv7aLaiv/libc.a(_env.o)

Memory Configuration

Name             Origin             Length             Attributes
*default*        0x00000000         0xffffffff

Linker script and memory map

LOAD C:/Users/admin/Documents/SOLID-IDE/Projects/lwip_server/Debug_tasan/exeClang_SOLID/lwip_server/lwip_server_all.o
START GROUP
LOAD C:/ProgramData/KMC/SOLID/SDK/2.0/solid-os/core/lib/armv7aLaiv/CT_\libsolid_cs.a
LOAD C:/ProgramData/KMC/SOLID/SDK/2.0/solid-os/net/lwIP/lib/armv7aLaiv/CT_\libnet.a
LOAD C:/ProgramData/KMC/SOLID/SDK/2.0/solid-os/rtos/toppers_asp3/lib/armv7aLaiv/CT__\libkernel.a
LOAD C:/Users/admin/Documents/SOLID-IDE/Projects/lwip_server/Debug_tasan/exeClang_SOLID/\libbsp.a
LOAD C:/Users/admin/Documents/SOLID-IDE/Projects/lwip_server/Debug_tasan/exeClang_SOLID/\libjcu.a
LOAD C:/Users/admin/Documents/SOLID-IDE/Projects/lwip_server/Debug_tasan/exeClang_SOLID/\liblcd.a
LOAD C:/Users/admin/Documents/SOLID-IDE/Projects/lwip_server/Debug_tasan/exeClang_SOLID/\libospl.a
LOAD C:/Users/admin/Documents/SOLID-IDE/Projects/lwip_server/Debug_tasan/exeClang_SOLID/\libriic.a
LOAD C:/Users/admin/Documents/SOLID-IDE/Projects/lwip_server/Debug_tasan/exeClang_SOLID/\libvdc5.a
END GROUP
LOAD C:/GCC4/ARM/s002/lib/armv7aLaiv\libcompiler_rt.a
LOAD C:/GCC4/ARM/s002/lib/armv7aLaiv\libstdc++.a
LOAD C:/GCC4/ARM/s002/lib/armv7aLaiv\libm.a
START GROUP
LOAD C:/GCC4/ARM/s002/lib/armv7aLaiv/libgcc.a
LOAD C:/GCC4/ARM/s002/lib/armv7aLaiv/libc.a
END GROUP
                0xf8000000                _smm_AddressSanitizer_MonitoringAddress = 0xf8000000
                0x00800000                _smm_AddressSanitizer_MonitoringSize = 0x800000
                0x20600000                _smm_AddressSanitizer_ShadowMemoryPhysicalAddress = 0x20600000
                0x40000000                _smm_AddressSanitizer_ShadowMemoryVirtualAddress = 0x40000000
                0x21000000                _smm_AddressSanitizer_ShadowMemoryOffset = 0x21000000
                0x20100000                _smm_RAM_PhysicalAddress = 0x20100000
                0x00180000                _smm_RAM_Size = 0x180000
                0x20280000                _smm_TRACE_POINT_PhysicalAddress = 0x20280000
                0xf5000000                _smm_TRACE_POINT_VirtualAddress = 0xf5000000
                0x00100000                _smm_TRACE_POINT_Size = 0x100000
                0x20380000                _smm_JPEG_PhysicalAddress = 0x20380000
                0xf6000000                _smm_JPEG_VirtualAddress = 0xf6000000
                0x00018000                _smm_JPEG_Size = 0x18000
                0x20398000                _smm_JPEG_READ_BUF_PhysicalAddress = 0x20398000
                0xf6018000                _smm_JPEG_READ_BUF_VirtualAddress = 0xf6018000
                0x000e8000                _smm_JPEG_READ_BUF_Size = 0xe8000
                0x20480000                _smm_FRAME_PhysicalAddress = 0x20480000
                0xf6100000                _smm_FRAME_VirtualAddress = 0xf6100000
                0x00180000                _smm_FRAME_Size = 0x180000
                0x20700000                _smm_MEMFS_PhysicalAddress = 0x20700000
                0xf7000000                _smm_MEMFS_VirtualAddress = 0xf7000000
                0x00100000                _smm_MEMFS_Size = 0x100000
                0x20800000                _smm_SOLID_PhysicalAddress = 0x20800000
                0xf8000000                _smm_SOLID_VirtualAddress = 0xf8000000
                0x00200000                _smm_SOLID_Size = 0x200000
                0xe8000000                _smm_SLV3_PhysicalAddress = 0xe8000000
                0xf0000000                _smm_SLV3_VirtualAddress = 0xf0000000
                0x00020000                _smm_SLV3_Size = 0x20000
                0xe8030000                _smm_SLV2_PhysicalAddress = 0xe8030000
                0xf0030000                _smm_SLV2_VirtualAddress = 0xf0030000
                0x00020000                _smm_SLV2_Size = 0x20000
                0xe8100000                _smm_SLV5_PhysicalAddress = 0xe8100000
                0xf0100000                _smm_SLV5_VirtualAddress = 0xf0100000
                0x00040000                _smm_SLV5_Size = 0x40000
                0xe8200000                _smm_SLV4_PhysicalAddress = 0xe8200000
                0xf0200000                _smm_SLV4_VirtualAddress = 0xf0200000
                0x00015800                _smm_SLV4_Size = 0x15800
                0xf0000000                _smm_CA9_PhysicalAddress = 0xf0000000
                0xf1000000                _smm_CA9_VirtualAddress = 0xf1000000
                0x00002000                _smm_CA9_Size = 0x2000
                0xfc000000                _smm_SLV6_PhysicalAddress = 0xfc000000
                0xf1100000                _smm_SLV6_VirtualAddress = 0xf1100000
                0x00080000                _smm_SLV6_Size = 0x80000
                0xfcfe0000                _smm_SLV1_PhysicalAddress = 0xfcfe0000
                0xf1200000                _smm_SLV1_VirtualAddress = 0xf1200000
                0x00010000                _smm_SLV1_Size = 0x10000
                0xfcff0000                _smm_SLV0_PhysicalAddress = 0xfcff0000
                0xf1210000                _smm_SLV0_VirtualAddress = 0xf1210000
                0x00010000                _smm_SLV0_Size = 0x10000
                0xfa000000                _smm_IOAREA_VirtualAddress = 0xfa000000
                0x01000000                _smm_IOAREA_Size = 0x1000000
                0xf8300000                _smm_OSSTACK_VirtualAddress = 0xf8300000
                0x00300000                _smm_OSSTACK_Size = 0x300000
                0xf8700000                _smm_SOLID_HEAP_VirtualAddress = 0xf8700000
                0x00080000                _smm_SOLID_HEAP_Size = 0x80000
                0xf8000000                . = _smm_SOLID_VirtualAddress
                0xf8000000                _solid_start = .
                0xf8010000                . = (. + 0x10000)

.text           0xf8010000    0x7c998
                0xf8010000                _solid_text_start = .
 *(.head)
 .head          0xf8010000       0xa0 C:/ProgramData/KMC/SOLID/SDK/2.0/solid-os/core/lib/armv7aLaiv/CT_\libsolid_cs.a(solid_cs_asm.o)
                0xf8010000                solid_header
 *(.solid_vector)
 .solid_vector  0xf80100a0      0x1f8 C:/ProgramData/KMC/SOLID/SDK/2.0/solid-os/core/lib/armv7aLaiv/CT_\libsolid_cs.a(solid_cs_asm.o)
                0xf80100a0                solid_vector
                0xf801028c                exit
 *(.text .stub .text.* .gnu.linkonce.t.*)
 .text          0xf8010298      0x46c C:/Users/admin/Documents/SOLID-IDE/Projects/lwip_server/Debug_tasan/exeClang_SOLID/lwip_server/lwip_server_all.o
                0xf8010298                IMPL_MEM_GetConfig
                0xf801035c                _kernel_call_inirtn
                0xf8010380                _kernel_call_terrtn
                0xf80103bc                root_task
 .text          0xf8010704       0x90 C:/ProgramData/KMC/SOLID/SDK/2.0/solid-os/core/lib/armv7aLaiv/CT_\libsolid_cs.a(solid_cs_asm.o)
                0xf8010704                solid_start
 .text          0xf8010794      0x2c0 C:/ProgramData/KMC/SOLID/SDK/2.0/solid-os/core/lib/armv7aLaiv/CT_\libsolid_cs.a(solid_cs_main.o)
                0xf8010794                _kmc_cpp_ctors
                0xf8010800                _kmc_cpp_dtors
                0xf801089c                solid_cs_main
 .text          0xf8010a54        0x4 C:/ProgramData/KMC/SOLID/SDK/2.0/solid-os/core/lib/armv7aLaiv/CT_\libsolid_cs.a(kmc_trace_mem_dummy.o)
                0xf8010a54                SOLID_kmc_trace_init
 .text          0xf8010a58      0x448 C:/ProgramData/KMC/SOLID/SDK/2.0/solid-os/core/lib/armv7aLaiv/CT_\libsolid_cs.a(solid_cs_event.o)
                0xf8010a58                SOLID_CS_EventNotify
                0xf8010dc4                SOLID_CS_InitError
 .text          0xf8010ea0       0xd0 C:/ProgramData/KMC/SOLID/SDK/2.0/solid-os/core/lib/armv7aLaiv/CT_\libsolid_cs.a(solid_debugger.o)
                0xf8010ea0                SOLID_DBG_IsInDebugger
                0xf8010ebc                SOLID_DBG_EventNotify
 .text          0xf8010f70     0x1920 C:/ProgramData/KMC/SOLID/SDK/2.0/solid-os/core/lib/armv7aLaiv/CT_\libsolid_cs.a(solid_dmac.o)
                0xf8010f70                _ZN3kmg5solid4dmac7ChannelD2Ev
                0xf8010f70                _ZN3kmg5solid4dmac7ChannelD1Ev
                0xf8010fa4                _ZN3kmg5solid4dmac7Channel16ClearTransactionEv
                0xf8011088                _ZN3kmg5solid4dmac7Channel4InitEi
                0xf80110d8                _ZN3kmg5solid4dmac7Channel5AllocEv
                0xf80111f8                _ZN3kmg5solid4dmac7Channel4FreeEv
                0xf80112e0                _ZN3kmg5solid4dmac7Channel11GetBufStateEPi
                0xf8011348                _ZN3kmg5solid4dmac7Channel11SetBufStateEi
                0xf80113bc                _ZN3kmg5solid4dmac7Channel14AddTransactionEP24_SOLID_DMAC_TRANSACTION_
                0xf8011590                _ZN3kmg5solid4dmac7Channel10ClearTrashEv
                0xf80115f4                _ZN3kmg5solid4dmac7Channel14GetTransactionEPP24_SOLID_DMAC_TRANSACTION_
                0xf801165c                _ZN3kmg5solid4dmac7Channel5StartEv
                0xf8011840                SOLID_DMAC_MaintBuffer
                0xf801198c                _ZN3kmg5solid4dmac7Channel5AbortEv
                0xf8011a4c                _ZN3kmg5solid4dmac7Channel11SetCallbackEPFvPviiP24_SOLID_DMAC_TRANSACTION_ES3_
                0xf8011ab0                _ZN3kmg5solid4dmac7Channel6NotifyEi
                0xf8011e08                _ZN3kmg5solid4dmac7Channel5TrashEP24_SOLID_DMAC_TRANSACTION_
                0xf8011ed4                _ZN3kmg5solid4dmac10Controller4InitEv
                0xf8012084                _ZN3kmg5solid4dmac10Controller7GetInfoEv
                0xf80120d4                _ZN3kmg5solid4dmac10Controller10GetChannelEi
                0xf8012154                SOLID_DMAC_Init
                0xf8012168                SOLID_DMAC_GetInfo
                0xf80121d4                SOLID_DMAC_Alloc
                0xf8012244                SOLID_DMAC_Free
                0xf80122b4                SOLID_DMAC_SetBufState
                0xf8012324                SOLID_DMAC_GetBufState
                0xf8012394                SOLID_DMAC_AddTransaction
                0xf8012428                SOLID_DMAC_GetTransaction
                0xf80124bc                SOLID_DMAC_ClearTransaction
                0xf8012550                SOLID_DMAC_Start
                0xf80125e4                SOLID_DMAC_Abort
                0xf8012678                SOLID_DMAC_IsFinished
                0xf801270c                SOLID_DMAC_SetCallback
                0xf80127b0                SOLID_DMAC_Notify
                0xf8012810                SOLID_DMAC_GetConfigIdx
 .text._ZN3kmg5solid4dmac10ControllerC2Ev
                0xf8012890       0x2c C:/ProgramData/KMC/SOLID/SDK/2.0/solid-os/core/lib/armv7aLaiv/CT_\libsolid_cs.a(solid_dmac.o)
                0xf8012890                _ZN3kmg5solid4dmac10ControllerC2Ev
 .text._ZN3kmg5solid4dmac10ControllerD2Ev
                0xf80128bc       0x1c C:/ProgramData/KMC/SOLID/SDK/2.0/solid-os/core/lib/armv7aLaiv/CT_\libsolid_cs.a(solid_dmac.o)
                0xf80128bc                _ZN3kmg5solid4dmac10ControllerD2Ev
 .text._ZN3kmg5solid4dmac7ChannelnaEjRKSt9nothrow_t
                0xf80128d8       0x30 C:/ProgramData/KMC/SOLID/SDK/2.0/solid-os/core/lib/armv7aLaiv/CT_\libsolid_cs.a(solid_dmac.o)
                0xf80128d8                _ZN3kmg5solid4dmac7ChannelnaEjRKSt9nothrow_t
 .text._ZN3kmg5solid4dmac7ChannelC2Ev
                0xf8012908       0x1c C:/ProgramData/KMC/SOLID/SDK/2.0/solid-os/core/lib/armv7aLaiv/CT_\libsolid_cs.a(solid_dmac.o)
                0xf8012908                _ZN3kmg5solid4dmac7ChannelC2Ev
 .text._ZN3kmg5solid4dmac7Channel6IsUsedEv
                0xf8012924       0x28 C:/ProgramData/KMC/SOLID/SDK/2.0/solid-os/core/lib/armv7aLaiv/CT_\libsolid_cs.a(solid_dmac.o)
                0xf8012924                _ZN3kmg5solid4dmac7Channel6IsUsedEv
 .text._ZN3kmg5solid4dmac7Channel10IsFinishedEv
                0xf801294c       0x28 C:/ProgramData/KMC/SOLID/SDK/2.0/solid-os/core/lib/armv7aLaiv/CT_\libsolid_cs.a(solid_dmac.o)
                0xf801294c                _ZN3kmg5solid4dmac7Channel10IsFinishedEv
 .text._ZN3kmg5solid4dmac10ControllerD0Ev
                0xf8012974       0x30 C:/ProgramData/KMC/SOLID/SDK/2.0/solid-os/core/lib/armv7aLaiv/CT_\libsolid_cs.a(solid_dmac.o)
                0xf8012974                _ZN3kmg5solid4dmac10ControllerD0Ev
 .text          0xf80129a4      0x218 C:/ProgramData/KMC/SOLID/SDK/2.0/solid-os/core/lib/armv7aLaiv/CT_\libsolid_cs.a(solid_exception.o)
                0xf80129a4                SOLID_Exception_Init
                0xf8012a10                SOLID_Register_Stack_Check
 .text          0xf8012bbc     0x227c C:/ProgramData/KMC/SOLID/SDK/2.0/solid-os/core/lib/armv7aLaiv/CT_\libsolid_cs.a(solid_fs_base.o)
                0xf8012bbc                _ZN5solid2fs7FileSys4InitEv
                0xf8012be0                _ZN5solid2fs7FileSys8RegisterEP18_SOLID_FS_HANDLER_
                0xf8012da8                _ZN5solid2fs7FileSys10UnRegisterEP18_SOLID_FS_HANDLER_
                0xf8012e8c                _ZN5solid2fs7FileSys11FindHandlerEPKc
                0xf8012f2c                _ZN5solid2fs7FileSys11EnumHandlerEPKcP18_SOLID_FS_HANDLER_
                0xf8013040                _ZN5solid2fs13sysfs_opendirEPKcPPv
                0xf8013184                _ZN5solid2fs14sysfs_closedirEPv
                0xf80131cc                _ZN5solid2fs13sysfs_readdirEPvP6dirent
                0xf8013310                _ZN5solid2fs10sysfs_InitEv
                0xf80133ac                _ZN5solid2fs11DescStocker4InitEv
                0xf80133d8                _ZN5solid2fs11DescStocker9AllocDescEi
                0xf8013478                _ZN5solid2fs11DescStocker8FreeDescEi
                0xf80134e8                _ZN5solid2fs11DescStocker7GetDescEi
                0xf8013594                SOLID_FS_Init
                0xf80135b8                SOLID_FS_Register
                0xf80135f4                SOLID_FS_UnRegister
                0xf8013630                SOLID_FS_Open
                0xf801384c                SOLID_FS_Lseek
                0xf8013ba4                SOLID_FS_Close
                0xf8013ca4                SOLID_FS_Read
                0xf8013e2c                SOLID_FS_Write
                0xf8013fb4                SOLID_FS_Sync
                0xf801409c                SOLID_FS_Ftell
                0xf80141a4                SOLID_FS_Feof
                0xf80142ac                SOLID_FS_Fsize
                0xf80143b4                SOLID_FS_Truncate
                0xf801449c                SOLID_FS_OpenDir
                0xf8014644                SOLID_FS_CloseDir
                0xf8014744                SOLID_FS_ReadDir
                0xf801484c                SOLID_FS_Stat
                0xf8014938                SOLID_FS_Unlink
                0xf8014a00                SOLID_FS_Rename
                0xf8014b9c                SOLID_FS_Chmod
                0xf8014c78                SOLID_FS_Utime
                0xf8014d60                SOLID_FS_Mkdir
 .text._ZN5solid2fs7FileSysC2Ev
                0xf8014e38       0x1c C:/ProgramData/KMC/SOLID/SDK/2.0/solid-os/core/lib/armv7aLaiv/CT_\libsolid_cs.a(solid_fs_base.o)
                0xf8014e38                _ZN5solid2fs7FileSysC2Ev
 .text._ZN5solid2fs7FileSysD2Ev
                0xf8014e54       0x1c C:/ProgramData/KMC/SOLID/SDK/2.0/solid-os/core/lib/armv7aLaiv/CT_\libsolid_cs.a(solid_fs_base.o)
                0xf8014e54                _ZN5solid2fs7FileSysD2Ev
 .text._ZN5solid2fs11DescStockerC2Ev
                0xf8014e70       0x1c C:/ProgramData/KMC/SOLID/SDK/2.0/solid-os/core/lib/armv7aLaiv/CT_\libsolid_cs.a(solid_fs_base.o)
                0xf8014e70                _ZN5solid2fs11DescStockerC2Ev
 .text._ZN5solid2fs11DescStockerD2Ev
                0xf8014e8c       0x1c C:/ProgramData/KMC/SOLID/SDK/2.0/solid-os/core/lib/armv7aLaiv/CT_\libsolid_cs.a(solid_fs_base.o)
                0xf8014e8c                _ZN5solid2fs11DescStockerD2Ev
 .text          0xf8014ea8      0x540 C:/ProgramData/KMC/SOLID/SDK/2.0/solid-os/core/lib/armv7aLaiv/CT_\libsolid_cs.a(solid_fs_mem.o)
                0xf8014ea8                SOLID_FS_MEM_Init
 .text          0xf80153e8      0x7e4 C:/ProgramData/KMC/SOLID/SDK/2.0/solid-os/core/lib/armv7aLaiv/CT_\libsolid_cs.a(solid_fs_vlink.o)
                0xf80153e8                SOLID_FS_VLink_Init
 .text          0xf8015bcc     0x1f80 C:/ProgramData/KMC/SOLID/SDK/2.0/solid-os/core/lib/armv7aLaiv/CT_\libsolid_cs.a(solid_intc.o)
                0xf8015bcc                _ZN3kmg5solid19InterruptController4InitEv
                0xf801603c                _ZN3kmg5solid19InterruptController7CheckIOEv
                0xf801612c                _ZN3kmg5solid19InterruptController9NotifyIrqEPvP19_SOLID_CPU_CONTEXT_
                0xf8016174                _ZN3kmg5solid19InterruptController6EnableEb
                0xf8016208                _ZN3kmg5solid19InterruptController15SetPriorityMaskEi
                0xf801625c                _ZN3kmg5solid19InterruptController6SetBPREi
                0xf80162a0                _ZN3kmg5solid19InterruptController10GetArchVerEv
                0xf80162d4                _ZN3kmg5solid19InterruptController15GetPriorityMaskEv
                0xf8016304                _ZN3kmg5solid19InterruptController8RegisterEP20_SOLID_INTC_HANDLER_i
                0xf80164a0                _ZN3kmg5solid19InterruptController15SetPriorityImplEii
                0xf80164f8                _ZN3kmg5solid19InterruptController16SetTargetProcessEic
                0xf801658c                _ZN3kmg5solid19InterruptController13SetConfigImplEii
                0xf8016644                _ZN3kmg5solid19InterruptController8RegisterEP20_SOLID_INTC_HANDLER_
                0xf8016680                _ZN3kmg5solid19InterruptController10UnRegisterEP20_SOLID_INTC_HANDLER_
                0xf8016734                _ZN3kmg5solid19InterruptController10DisableIntEi
                0xf80167b0                _ZN3kmg5solid19InterruptController7CallSGIEim
                0xf801686c                _ZN3kmg5solid19InterruptController10ProcessIrqEP19_SOLID_CPU_CONTEXT_
                0xf8016a04                _ZN3kmg5solid19InterruptController9EnableIntEi
                0xf8016a80                _ZN3kmg5solid19InterruptController11SetPriorityEii
                0xf8016b50                _ZN3kmg5solid19InterruptController11GetPriorityEiPi
                0xf8016c08                _ZN3kmg5solid19InterruptController15GetPriorityImplEi
                0xf8016c48                _ZN3kmg5solid19InterruptController20SetTargetProcessImplEii
                0xf8016ca0                _ZN3kmg5solid19InterruptController16GetTargetProcessEiPc
                0xf8016d48                _ZN3kmg5solid19InterruptController20GetTargetProcessImplEi
                0xf8016d88                _ZN3kmg5solid19InterruptController6GetBPREv
                0xf8016db8                _ZN3kmg5solid19InterruptController9SetConfigEii
                0xf8016e4c                _ZN3kmg5solid19InterruptController9GetConfigEiPi
                0xf8016ef4                _ZN3kmg5solid19InterruptController13GetConfigImplEi
                0xf8016f70                _ZN3kmg5solid19InterruptController9IsEnabledEi
                0xf8016fe8                _ZN3kmg5solid19InterruptController9IsPendingEi
                0xf8017060                _ZN3kmg5solid19InterruptController8IsActiveEi
                0xf80170d8                _ZN3kmg5solid19InterruptController7DisableEi
                0xf8017188                _ZN3kmg5solid19InterruptController6EnableEi
                0xf8017238                _ZN3kmg5solid19InterruptController9GetStatusEiPm
                0xf8017358                _ZN3kmg5solid19InterruptController7SetHookEP17_SOLID_INTC_HOOK_S3_
                0xf80173ac                _ZN3kmg5solid19InterruptController12ClearPendingEi
                0xf80174f8                SOLID_INTC_Init
                0xf801750c                SOLID_INTC_Register
                0xf8017548                SOLID_INTC_UnRegister
                0xf8017584                SOLID_INTC_CallSGI
                0xf80175d0                SOLID_INTC_Disable
                0xf801760c                SOLID_INTC_Enable
                0xf8017648                SOLID_INTC_GetStatus
                0xf8017694                SOLID_INTC_SetPriorityMask
                0xf80176dc                SOLID_INTC_GetPriorityMask
                0xf8017714                SOLID_INTC_GetPriorityLevel
                0xf8017728                SOLID_INTC_GetMinIntNo
                0xf801773c                SOLID_INTC_GetMaxIntNo
                0xf8017750                SOLID_INTC_GetIntPriority
                0xf801779c                SOLID_INTC_SetIntPriority
                0xf80177e8                SOLID_INTC_GetIntConfig
                0xf8017834                SOLID_INTC_SetIntConfig
                0xf8017880                SOLID_INTC_ClearPending
                0xf80178bc                SOLID_INTC_SetHook
                0xf8017908                test_unlock_cpu
                0xf8017934                test_restore_cpu
                0xf8017954                MyIntCallBack
                0xf8017a24                SOLID_INTC_Test
 .text._ZN3kmg5solid19InterruptControllerC2Ev
                0xf8017b4c       0x1c C:/ProgramData/KMC/SOLID/SDK/2.0/solid-os/core/lib/armv7aLaiv/CT_\libsolid_cs.a(solid_intc.o)
                0xf8017b4c                _ZN3kmg5solid19InterruptControllerC2Ev
 .text._ZN3kmg5solid19InterruptControllerD2Ev
                0xf8017b68       0x1c C:/ProgramData/KMC/SOLID/SDK/2.0/solid-os/core/lib/armv7aLaiv/CT_\libsolid_cs.a(solid_intc.o)
                0xf8017b68                _ZN3kmg5solid19InterruptControllerD2Ev
 .text._ZNK3kmg5solid19InterruptController16GetPriorityShiftEv
                0xf8017b84       0x24 C:/ProgramData/KMC/SOLID/SDK/2.0/solid-os/core/lib/armv7aLaiv/CT_\libsolid_cs.a(solid_intc.o)
                0xf8017b84                _ZNK3kmg5solid19InterruptController16GetPriorityShiftEv
 .text._ZNK3kmg5solid19InterruptController16GetPriorityLevelEv
                0xf8017ba8       0x24 C:/ProgramData/KMC/SOLID/SDK/2.0/solid-os/core/lib/armv7aLaiv/CT_\libsolid_cs.a(solid_intc.o)
                0xf8017ba8                _ZNK3kmg5solid19InterruptController16GetPriorityLevelEv
 .text._ZNK3kmg5solid19InterruptController11GetMinIntNoEv
                0xf8017bcc       0x24 C:/ProgramData/KMC/SOLID/SDK/2.0/solid-os/core/lib/armv7aLaiv/CT_\libsolid_cs.a(solid_intc.o)
                0xf8017bcc                _ZNK3kmg5solid19InterruptController11GetMinIntNoEv
 .text._ZNK3kmg5solid19InterruptController11GetMaxIntNoEv
                0xf8017bf0       0x24 C:/ProgramData/KMC/SOLID/SDK/2.0/solid-os/core/lib/armv7aLaiv/CT_\libsolid_cs.a(solid_intc.o)
                0xf8017bf0                _ZNK3kmg5solid19InterruptController11GetMaxIntNoEv
 .text          0xf8017c14      0xf6c C:/ProgramData/KMC/SOLID/SDK/2.0/solid-os/core/lib/armv7aLaiv/CT_\libsolid_cs.a(solid_iores.o)
                0xf8017c58                _ZN3kmg5solid5iores9IOManagerC2Ev
                0xf8017c58                _ZN3kmg5solid5iores9IOManagerC1Ev
                0xf8017c84                _ZN3kmg5solid5iores9IOManagerD1Ev
                0xf8017c84                _ZN3kmg5solid5iores9IOManagerD2Ev
                0xf8017d6c                _ZN3kmg5solid5iores9IOManagerD0Ev
                0xf8017da4                _ZN3kmg5solid5iores9IOManager4InitEv
                0xf8017e08                _ZN3kmg5solid5iores9IOManager8RegisterEP21_SOLID_IORES_REGINFO_b
                0xf8017fb0                _ZN3kmg5solid5iores9IOManager8FindNodeEPKc
                0xf801809c                _ZN3kmg5solid5iores9IOManager7FindMapEmjb
                0xf8018460                _ZN3kmg5solid5iores9IOManager8CalcHashEPKc
                0xf801858c                _ZN3kmg5solid5iores9IOManager3UseEPKc
                0xf80186f4                _ZN3kmg5solid5iores9IOManager5UnuseEPKc
                0xf80187c0                _ZN3kmg5solid5iores9IOManager9CheckInfoEPKc
                0xf8018828                _ZN3kmg5solid5iores9IOManager7GetInfoEPKcP18_SOLID_IORES_INFO_
                0xf801896c                SOLID_IORES_Init
                0xf8018a30                SOLID_IORES_Use
                0xf8018a6c                SOLID_IORES_Register
                0xf8018ab0                SOLID_IORES_CheckInfo
                0xf8018aec                SOLID_IORES_Unuse
                0xf8018b28                SOLID_IORES_GetInfo
 .text          0xf8018b80     0x4294 C:/ProgramData/KMC/SOLID/SDK/2.0/solid-os/core/lib/armv7aLaiv/CT_\libsolid_cs.a(solid_loader.o)
                0xf8018b80                _ZN3kmg5solid3elf8InitHeapEv
                0xf8018ba8                _ZN3kmg5solid3elf15DuplicateStringEPKc
                0xf8018c48                _ZN3kmg5solid3elf10FreeStringEPKc
                0xf8018d08                _ZNK3kmg5solid3elf10LinkObject7GetNextEv
                0xf8018d28                _ZN3kmg5solid3elf10LinkObject7GetFromEi
                0xf8018dc0                _ZN3kmg5solid3elf10LinkObject7AddTailEPS2_
                0xf8018e20                _ZN3kmg5solid3elf10LinkObject6RemoveEPS2_
                0xf8018e9c                _ZN3kmg5solid3elf7SectionC2EPNS1_9ELFObjectE
                0xf8018e9c                _ZN3kmg5solid3elf7SectionC1EPNS1_9ELFObjectE
                0xf8018ef8                _ZN3kmg5solid3elf7SectionD1Ev
                0xf8018ef8                _ZN3kmg5solid3elf7SectionD2Ev
                0xf8018f24                _ZN3kmg5solid3elf7SectionD0Ev
                0xf8018f5c                _ZN3kmg5solid3elf7Section4ReadEij
                0xf801903c                _ZN3kmg5solid3elf7Section4LoadEi
                0xf8019438                _ZN3kmg5solid3elf9ELFObject10NotifyNoteEPKcm
                0xf80194a8                _ZN3kmg5solid3elf9ELFObject10NotifyNoteEPKcS4_
                0xf801951c                _ZN3kmg5solid3elf7Section10SetMemAttrEv
                0xf8019628                _ZN3kmg5solid3elf7Section10GetMemAttrEv
                0xf80196c4                _ZN3kmg5solid3elf7Section10GetAlignedERmRj
                0xf8019768                _ZN3kmg5solid3elf7Section6UnloadEv
                0xf80197f0                _ZN3kmg5solid3elf7Section8DoImportEi
                0xf8019b7c                _ZN3kmg5solid3elf9ELFObject10GetSectionEi
                0xf8019bb4                _ZN3kmg5solid3elf7Section8GetEntryEimPv
                0xf8019c1c                _ZN3kmg5solid3elf7Section10ReadStringEimPvj
                0xf8019cf0                _ZN3kmg5solid3elf13SymbolManager7GetAddrEPKcPmPb
                0xf8019dd8                _ZN3kmg5solid3elf9ELFObject20RegisterRelocateInfoEPNS1_12RelocateInfoE
                0xf8019e50                _ZN3kmg5solid3elf12RelocateInfo10DoRelocateEmPNS1_9ELFObjectE
                0xf801a404                _ZN3kmg5solid3elf7Section8DoExportEi
                0xf801a5c0                _ZN3kmg5solid3elf13SymbolManager9AddSymbolEPKcmb
                0xf801a728                _ZN3kmg5solid3elf7Section12ReadFileDataEimPvj
                0xf801a874                _ZN3kmg5solid3elf7Section9IsInSpaceEm
                0xf801a918                _ZN3kmg5solid3elf7SegmentC2EPNS1_9ELFObjectE
                0xf801a918                _ZN3kmg5solid3elf7SegmentC1EPNS1_9ELFObjectE
                0xf801a974                _ZN3kmg5solid3elf7SegmentD1Ev
                0xf801a974                _ZN3kmg5solid3elf7SegmentD2Ev
                0xf801a9a0                _ZN3kmg5solid3elf7SegmentD0Ev
                0xf801a9d8                _ZN3kmg5solid3elf7Segment4ReadEij
                0xf801aab8                _ZN3kmg5solid3elf7Segment4LoadEi
                0xf801acf8                _ZN3kmg5solid3elf7Segment6UnloadEv
                0xf801ad80                _ZN3kmg5solid3elf7Segment10GetMemAttrEv
                0xf801ae08                _ZN3kmg5solid3elf7Segment10GetAlignedERmRj
                0xf801ae98                _ZN3kmg5solid3elf9ELFObjectC2EPKc
                0xf801ae98                _ZN3kmg5solid3elf9ELFObjectC1EPKc
                0xf801af10                _ZN3kmg5solid3elf9ELFObjectD1Ev
                0xf801af10                _ZN3kmg5solid3elf9ELFObjectD2Ev
                0xf801afd8                _ZN3kmg5solid3elf9ELFObjectD0Ev
                0xf801b010                _ZNK3kmg5solid3elf9ELFObject7GetNameEv
                0xf801b030                _ZNK3kmg5solid3elf9ELFObject7GetPathEv
                0xf801b050                _ZNK3kmg5solid3elf9ELFObject10GetObjPathEv
                0xf801b0a4                _ZN3kmg5solid3elf9ELFObject4LoadEPKc
                0xf801b700                _ZN3kmg5solid3elf9ELFObject22CheckOverlappedSectionEv
                0xf801b840                _ZN3kmg5solid3elf9ELFObject10SetMemAttrEv
                0xf801b8c4                _ZN3kmg5solid3elf9ELFObject22CheckOverlappedSegmentEv
                0xf801ba04                _ZN3kmg5solid3elf9ELFObject6UnloadEv
                0xf801bb04                _ZN3kmg5solid3elf9ELFObject7CanExecEPm
                0xf801bbd0                _ZN3kmg5solid3elf9ELFObject18GetUnresolvedCountEv
                0xf801bc34                _ZN3kmg5solid3elf9ELFObject21CheckUnresolvedSymbolEv
                0xf801bdac                _ZN3kmg5solid3elf9ELFObject13IsSameSectionEmm
                0xf801be4c                _ZN3kmg5solid3elf11LoadManager4InitEv
                0xf801be70                _ZN3kmg5solid3elf11LoadManager4LoadEPKcS4_
                0xf801c054                _ZN3kmg5solid3elf11LoadManager10FindObjectEPKc
                0xf801c0e4                _ZN3kmg5solid3elf11LoadManager21CheckUnresolvedSymbolEv
                0xf801c138                _ZN3kmg5solid3elf11LoadManager6UnLoadEPKc
                0xf801c280                _ZN3kmg5solid3elf11LoadManager7CanExecEPKcPm
                0xf801c320                _ZN3kmg5solid3elf11LoadManager15CheckUnresolvedEv
                0xf801c38c                _ZN3kmg5solid3elf12RelocateInfoC2EiimPKc
                0xf801c38c                _ZN3kmg5solid3elf12RelocateInfoC1EiimPKc
                0xf801c420                _ZN3kmg5solid3elf12RelocateInfoD1Ev
                0xf801c420                _ZN3kmg5solid3elf12RelocateInfoD2Ev
                0xf801c46c                _ZN3kmg5solid3elf12RelocateInfoD0Ev
                0xf801c4a4                _ZN3kmg5solid3elf12RelocateInfo14CheckVeneerARMEmPNS1_9ELFObjectEi
                0xf801c5f4                _ZN3kmg5solid3elf12RelocateInfo17CheckVeneerThumb2EmPNS1_9ELFObjectEi
                0xf801c7f0                _ZN3kmg5solid3elf6SymbolC1EPKcmb
                0xf801c7f0                _ZN3kmg5solid3elf6SymbolC2EPKcmb
                0xf801c8bc                _ZN3kmg5solid3elf6Symbol8CalcHashEPKc
                0xf801c94c                _ZN3kmg5solid3elf6SymbolD1Ev
                0xf801c94c                _ZN3kmg5solid3elf6SymbolD2Ev
                0xf801c9b0                _ZN3kmg5solid3elf6SymbolD0Ev
                0xf801c9e8                _ZN3kmg5solid3elf6Symbol11CheckNotifyEv
                0xf801ca3c                _ZN3kmg5solid3elf13SymbolManager4InitEv
                0xf801ca68                _ZN3kmg5solid3elf13SymbolManager10FindSymbolEPKc
                0xf801cb38                _ZN3kmg5solid3elf13SymbolManager9DelSymbolEPKc
                0xf801cc4c                SOLID_LDR_Init
                0xf801cc74                SOLID_LDR_GetAddr
                0xf801ccc8                SOLID_LDR_LoadFile
                0xf801cd14                SOLID_LDR_CanExec
                0xf801cd60                SOLID_LDR_UnLoad
                0xf801cd9c                SOLID_LDR_RegisterSymbol
                0xf801cdf0                SOLID_LDR_CheckUnresolved
 .text._ZN3kmg5solid3elf13SymbolManagerC2Ev
                0xf801ce14       0x1c C:/ProgramData/KMC/SOLID/SDK/2.0/solid-os/core/lib/armv7aLaiv/CT_\libsolid_cs.a(solid_loader.o)
                0xf801ce14                _ZN3kmg5solid3elf13SymbolManagerC2Ev
 .text._ZN3kmg5solid3elf13SymbolManagerD2Ev
                0xf801ce30       0x1c C:/ProgramData/KMC/SOLID/SDK/2.0/solid-os/core/lib/armv7aLaiv/CT_\libsolid_cs.a(solid_loader.o)
                0xf801ce30                _ZN3kmg5solid3elf13SymbolManagerD2Ev
 .text._ZN3kmg5solid3elf11LoadManagerC2Ev
                0xf801ce4c       0x2c C:/ProgramData/KMC/SOLID/SDK/2.0/solid-os/core/lib/armv7aLaiv/CT_\libsolid_cs.a(solid_loader.o)
                0xf801ce4c                _ZN3kmg5solid3elf11LoadManagerC2Ev
 .text._ZN3kmg5solid3elf11LoadManagerD2Ev
                0xf801ce78       0x1c C:/ProgramData/KMC/SOLID/SDK/2.0/solid-os/core/lib/armv7aLaiv/CT_\libsolid_cs.a(solid_loader.o)
                0xf801ce78                _ZN3kmg5solid3elf11LoadManagerD2Ev
 .text._ZN3kmg5solid3elf10LinkObjectC2Ev
                0xf801ce94       0x34 C:/ProgramData/KMC/SOLID/SDK/2.0/solid-os/core/lib/armv7aLaiv/CT_\libsolid_cs.a(solid_loader.o)
                0xf801ce94                _ZN3kmg5solid3elf10LinkObjectC2Ev
 .text._ZN3kmg5solid3elf7SectiondlEPv
                0xf801cec8       0x34 C:/ProgramData/KMC/SOLID/SDK/2.0/solid-os/core/lib/armv7aLaiv/CT_\libsolid_cs.a(solid_loader.o)
                0xf801cec8                _ZN3kmg5solid3elf7SectiondlEPv
 .text._ZN3kmg5solid3elf12RelocateInfonwEjRKSt9nothrow_t
                0xf801cefc       0x3c C:/ProgramData/KMC/SOLID/SDK/2.0/solid-os/core/lib/armv7aLaiv/CT_\libsolid_cs.a(solid_loader.o)
                0xf801cefc                _ZN3kmg5solid3elf12RelocateInfonwEjRKSt9nothrow_t
 .text._ZN3kmg5solid3elf7SegmentdlEPv
                0xf801cf38       0x34 C:/ProgramData/KMC/SOLID/SDK/2.0/solid-os/core/lib/armv7aLaiv/CT_\libsolid_cs.a(solid_loader.o)
                0xf801cf38                _ZN3kmg5solid3elf7SegmentdlEPv
 .text._ZN3kmg5solid3elf9ELFObjectdlEPv
                0xf801cf6c       0x34 C:/ProgramData/KMC/SOLID/SDK/2.0/solid-os/core/lib/armv7aLaiv/CT_\libsolid_cs.a(solid_loader.o)
                0xf801cf6c                _ZN3kmg5solid3elf9ELFObjectdlEPv
 .text._ZN3kmg5solid3elf7SectionnwEjRKSt9nothrow_t
                0xf801cfa0       0x3c C:/ProgramData/KMC/SOLID/SDK/2.0/solid-os/core/lib/armv7aLaiv/CT_\libsolid_cs.a(solid_loader.o)
                0xf801cfa0                _ZN3kmg5solid3elf7SectionnwEjRKSt9nothrow_t
 .text._ZN3kmg5solid3elf10LinkObject7SetNextEPS2_
                0xf801cfdc       0x30 C:/ProgramData/KMC/SOLID/SDK/2.0/solid-os/core/lib/armv7aLaiv/CT_\libsolid_cs.a(solid_loader.o)
                0xf801cfdc                _ZN3kmg5solid3elf10LinkObject7SetNextEPS2_
 .text._ZN3kmg5solid3elf7SegmentnwEjRKSt9nothrow_t
                0xf801d00c       0x3c C:/ProgramData/KMC/SOLID/SDK/2.0/solid-os/core/lib/armv7aLaiv/CT_\libsolid_cs.a(solid_loader.o)
                0xf801d00c                _ZN3kmg5solid3elf7SegmentnwEjRKSt9nothrow_t
 .text._ZN3kmg5solid3elf12RelocateInfo7GetNameEv
                0xf801d048       0x20 C:/ProgramData/KMC/SOLID/SDK/2.0/solid-os/core/lib/armv7aLaiv/CT_\libsolid_cs.a(solid_loader.o)
                0xf801d048                _ZN3kmg5solid3elf12RelocateInfo7GetNameEv
 .text._ZN3kmg5solid3elf9ELFObjectnwEjRKSt9nothrow_t
                0xf801d068       0x3c C:/ProgramData/KMC/SOLID/SDK/2.0/solid-os/core/lib/armv7aLaiv/CT_\libsolid_cs.a(solid_loader.o)
                0xf801d068                _ZN3kmg5solid3elf9ELFObjectnwEjRKSt9nothrow_t
 .text._ZN3kmg5solid3elf12RelocateInfodlEPv
                0xf801d0a4       0x34 C:/ProgramData/KMC/SOLID/SDK/2.0/solid-os/core/lib/armv7aLaiv/CT_\libsolid_cs.a(solid_loader.o)
                0xf801d0a4                _ZN3kmg5solid3elf12RelocateInfodlEPv
 .text._ZN3kmg5solid3elf6SymboldlEPv
                0xf801d0d8       0x34 C:/ProgramData/KMC/SOLID/SDK/2.0/solid-os/core/lib/armv7aLaiv/CT_\libsolid_cs.a(solid_loader.o)
                0xf801d0d8                _ZN3kmg5solid3elf6SymboldlEPv
 .text._ZN3kmg5solid3elf6Symbol10GetAddressEv
                0xf801d10c       0x20 C:/ProgramData/KMC/SOLID/SDK/2.0/solid-os/core/lib/armv7aLaiv/CT_\libsolid_cs.a(solid_loader.o)
                0xf801d10c                _ZN3kmg5solid3elf6Symbol10GetAddressEv
 .text._ZN3kmg5solid3elf6Symbol13ChangeAddressEm
                0xf801d12c       0x30 C:/ProgramData/KMC/SOLID/SDK/2.0/solid-os/core/lib/armv7aLaiv/CT_\libsolid_cs.a(solid_loader.o)
                0xf801d12c                _ZN3kmg5solid3elf6Symbol13ChangeAddressEm
 .text._ZN3kmg5solid3elf6SymbolnwEjRKSt9nothrow_t
                0xf801d15c       0x3c C:/ProgramData/KMC/SOLID/SDK/2.0/solid-os/core/lib/armv7aLaiv/CT_\libsolid_cs.a(solid_loader.o)
                0xf801d15c                _ZN3kmg5solid3elf6SymbolnwEjRKSt9nothrow_t
 .text._ZN3kmg5solid3elf6Symbol7GetHashEv
                0xf801d198       0x20 C:/ProgramData/KMC/SOLID/SDK/2.0/solid-os/core/lib/armv7aLaiv/CT_\libsolid_cs.a(solid_loader.o)
                0xf801d198                _ZN3kmg5solid3elf6Symbol7GetHashEv
 .text._ZN3kmg5solid3elf6Symbol7GetNameEv
                0xf801d1b8       0x20 C:/ProgramData/KMC/SOLID/SDK/2.0/solid-os/core/lib/armv7aLaiv/CT_\libsolid_cs.a(solid_loader.o)
                0xf801d1b8                _ZN3kmg5solid3elf6Symbol7GetNameEv
 .text._ZN3kmg5solid3elf11LoadManagerD0Ev
                0xf801d1d8       0x30 C:/ProgramData/KMC/SOLID/SDK/2.0/solid-os/core/lib/armv7aLaiv/CT_\libsolid_cs.a(solid_loader.o)
                0xf801d1d8                _ZN3kmg5solid3elf11LoadManagerD0Ev
 .text._ZN3kmg5solid3elf10LinkObjectD2Ev
                0xf801d208       0x1c C:/ProgramData/KMC/SOLID/SDK/2.0/solid-os/core/lib/armv7aLaiv/CT_\libsolid_cs.a(solid_loader.o)
                0xf801d208                _ZN3kmg5solid3elf10LinkObjectD2Ev
 .text._ZN3kmg5solid3elf10LinkObjectD0Ev
                0xf801d224       0x30 C:/ProgramData/KMC/SOLID/SDK/2.0/solid-os/core/lib/armv7aLaiv/CT_\libsolid_cs.a(solid_loader.o)
                0xf801d224                _ZN3kmg5solid3elf10LinkObjectD0Ev
 .text._ZN3kmg5solid3elf10LinkObjectdlEPv
                0xf801d254       0x34 C:/ProgramData/KMC/SOLID/SDK/2.0/solid-os/core/lib/armv7aLaiv/CT_\libsolid_cs.a(solid_loader.o)
                0xf801d254                _ZN3kmg5solid3elf10LinkObjectdlEPv
 .text          0xf801d288       0x5c C:/ProgramData/KMC/SOLID/SDK/2.0/solid-os/core/lib/armv7aLaiv/CT_\libsolid_cs.a(solid_loader_fixed.o)
                0xf801d288                SOLID_LDR_FixedSymbol_Init
 .text          0xf801d2e4      0x474 C:/ProgramData/KMC/SOLID/SDK/2.0/solid-os/core/lib/armv7aLaiv/CT_\libsolid_cs.a(solid_log.o)
                0xf801d2e4                SOLID_LOG_Init
                0xf801d300                SOLID_LOG_SetMode
                0xf801d564                SOLID_LOG_PutChar
                0xf801d5a8                SOLID_LOG_puts
                0xf801d5fc                SOLID_LOG_write
                0xf801d650                SOLID_LOG_printf
                0xf801d6a4                SOLID_LOG_vprintf
 .text          0xf801d758      0x8b0 C:/ProgramData/KMC/SOLID/SDK/2.0/solid-os/core/lib/armv7aLaiv/CT_\libsolid_cs.a(solid_malloc.o)
                0xf801d758                SOLID_init_memory_pool
                0xf801d810                SOLID_malloc
                0xf801d89c                SOLID_free
                0xf801d8f4                SOLID_realloc
                0xf801d990                SOLID_calloc
                0xf801da2c                SOLID_mallinfo
                0xf801dc28                SOLID_heap_create
                0xf801dc98                SOLID_heap_destroy
                0xf801dce8                SOLID_heap_alloc
                0xf801dd80                SOLID_heap_align
                0xf801de38                SOLID_heap_free
                0xf801deb8                SOLID_heap_mallinfo
 .text          0xf801e008     0x2210 C:/ProgramData/KMC/SOLID/SDK/2.0/solid-os/core/lib/armv7aLaiv/CT_\libsolid_cs.a(solid_mem.o)
                0xf801e1ac                _ZN3kmg5solid7Align4KERmRj
                0xf801e248                _ZN3kmg5solid9MemoryMap4InitEv
                0xf801e2b8                _ZN3kmg5solid9MemoryMap7AddAreaEmjmPKc
                0xf801e424                _ZN3kmg5solid9MemoryMap9AllocAreaEmPKcb
                0xf801e6a8                _ZN3kmg5solid9MemoryMap9FindPAIdxEPKc
                0xf801e758                _ZN3kmg5solid9MemoryMap13ReserveVAAreaEmjPKc
                0xf801e878                _ZN3kmg5solid9MemoryMap11GetAreaInfoEPKcRmRj
                0xf801e94c                _ZN3kmg5solid9MemoryMap9FindVAIdxEPKc
                0xf801e9fc                _ZN3kmg5solid9MemoryMap8FindAreaEmPPKc
                0xf801eb1c                _ZN3kmg5solid9MemoryMap12InitHeapAreaEv
                0xf801ec84                _ZN3kmg5solid9MemoryMap9AllocHeapEjPm
                0xf801ed94                _ZN3kmg5solid9MemoryMap8FreeHeapEm
                0xf801ee20                SOLID_MEM_Init
                0xf801f0a0                SOLID_MEM_Init_L2C
                0xf801f0b4                SOLID_MEM_Alloc
                0xf801f1ec                SOLID_MEM_AllocFlat
                0xf801f2c4                SOLID_MEM_IsFlat
                0xf801f3b0                SOLID_MEM_VA2PA
                0xf801f414                SOLID_MEM_Realloc
                0xf801f51c                SOLID_MEM_Free
                0xf801f62c                SOLID_MEM_Map
                0xf801f694                SOLID_MEM_Unmap
                0xf801f6e8                SOLID_MEM_IsValid
                0xf801f734                SOLID_MEM_GetAttr
                0xf801f798                SOLID_MEM_SetAttr
                0xf801f7f4                SOLID_MEM_GetAddress
                0xf801f850                SOLID_MEM_GetAreaName
                0xf801f89c                SOLID_MEM_CACHE_InvalidateCode
                0xf801f8e8                SOLID_MEM_CACHE_InvalidateCodeStrict
                0xf801f934                SOLID_MEM_CACHE_Invalidate
                0xf801f980                SOLID_MEM_CACHE_InvalidateStrict
                0xf801f9cc                SOLID_MEM_CACHE_Clean
                0xf801fa18                SOLID_MEM_CACHE_CleanStrict
                0xf801fa64                SOLID_MEM_CACHE_CleanAll
                0xf801fa78                SOLID_MEM_CACHE_Flush
                0xf801fac4                SOLID_MEM_CACHE_FlushStrict
                0xf801fb10                SOLID_MEM_CACHE_FlushAll
                0xf801fb24                SOLID_MEM_AllocIO
                0xf801fc6c                SOLID_MEM_FreeIO
                0xf801fce4                SOLID_MEM_CheckIO
                0xf801fde0                SOLID_MEM_AllocHeap
                0xf801fe2c                SOLID_MEM_FreeHeap
                0xf801fe68                SOLID_MEM_SetStackMode
                0xf801feac                SOLID_MEM_AllocStack
                0xf801fef8                SOLID_MEM_FreeStack
                0xf801ff34                SOLID_MEM_AllocPA
                0xf801ff90                SOLID_MEM_RamAccessTest
 .text._ZN3kmg5solid5CACHEC2Ev
                0xf8020218       0x1c C:/ProgramData/KMC/SOLID/SDK/2.0/solid-os/core/lib/armv7aLaiv/CT_\libsolid_cs.a(solid_mem.o)
                0xf8020218                _ZN3kmg5solid5CACHEC2Ev
 .text._ZN3kmg5solid5CACHED2Ev
                0xf8020234       0x1c C:/ProgramData/KMC/SOLID/SDK/2.0/solid-os/core/lib/armv7aLaiv/CT_\libsolid_cs.a(solid_mem.o)
                0xf8020234                _ZN3kmg5solid5CACHED2Ev
 .text._ZN3kmg5solid3MMUC2Ev
                0xf8020250       0x1c C:/ProgramData/KMC/SOLID/SDK/2.0/solid-os/core/lib/armv7aLaiv/CT_\libsolid_cs.a(solid_mem.o)
                0xf8020250                _ZN3kmg5solid3MMUC2Ev
 .text._ZN3kmg5solid3MMUD2Ev
                0xf802026c       0x1c C:/ProgramData/KMC/SOLID/SDK/2.0/solid-os/core/lib/armv7aLaiv/CT_\libsolid_cs.a(solid_mem.o)
                0xf802026c                _ZN3kmg5solid3MMUD2Ev
 .text._ZN3kmg5solid10MemManagerImEC2Ev
                0xf8020288       0x2c C:/ProgramData/KMC/SOLID/SDK/2.0/solid-os/core/lib/armv7aLaiv/CT_\libsolid_cs.a(solid_mem.o)
                0xf8020288                _ZN3kmg5solid10MemManagerImEC2Ev
 .text._ZN3kmg5solid10MemManagerImED2Ev
                0xf80202b4       0x1c C:/ProgramData/KMC/SOLID/SDK/2.0/solid-os/core/lib/armv7aLaiv/CT_\libsolid_cs.a(solid_mem.o)
                0xf80202b4                _ZN3kmg5solid10MemManagerImED2Ev
 .text._ZN3kmg5solid12StackManagerImEC2Ev
                0xf80202d0       0x40 C:/ProgramData/KMC/SOLID/SDK/2.0/solid-os/core/lib/armv7aLaiv/CT_\libsolid_cs.a(solid_mem.o)
                0xf80202d0                _ZN3kmg5solid12StackManagerImEC2Ev
 .text._ZN3kmg5solid12StackManagerImED2Ev
                0xf8020310       0x2c C:/ProgramData/KMC/SOLID/SDK/2.0/solid-os/core/lib/armv7aLaiv/CT_\libsolid_cs.a(solid_mem.o)
                0xf8020310                _ZN3kmg5solid12StackManagerImED2Ev
 .text._ZN3kmg5solid9MemoryMapC2Ev
                0xf802033c       0x1c C:/ProgramData/KMC/SOLID/SDK/2.0/solid-os/core/lib/armv7aLaiv/CT_\libsolid_cs.a(solid_mem.o)
                0xf802033c                _ZN3kmg5solid9MemoryMapC2Ev
 .text._ZN3kmg5solid9MemoryMapD2Ev
                0xf8020358       0x1c C:/ProgramData/KMC/SOLID/SDK/2.0/solid-os/core/lib/armv7aLaiv/CT_\libsolid_cs.a(solid_mem.o)
                0xf8020358                _ZN3kmg5solid9MemoryMapD2Ev
 .text._ZN3kmg5solid10MemManagerImE11AddFreeAreaEmj
                0xf8020374       0x9c C:/ProgramData/KMC/SOLID/SDK/2.0/solid-os/core/lib/armv7aLaiv/CT_\libsolid_cs.a(solid_mem.o)
                0xf8020374                _ZN3kmg5solid10MemManagerImE11AddFreeAreaEmj
 .text._ZN3kmg5solid10MemManagerImE10RemoveAreaEmj
                0xf8020410       0xf4 C:/ProgramData/KMC/SOLID/SDK/2.0/solid-os/core/lib/armv7aLaiv/CT_\libsolid_cs.a(solid_mem.o)
                0xf8020410                _ZN3kmg5solid10MemManagerImE10RemoveAreaEmj
 .text._ZN3kmg5solid10MemManagerImE5AllocEjPmPjb
                0xf8020504      0x24c C:/ProgramData/KMC/SOLID/SDK/2.0/solid-os/core/lib/armv7aLaiv/CT_\libsolid_cs.a(solid_mem.o)
                0xf8020504                _ZN3kmg5solid10MemManagerImE5AllocEjPmPjb
 .text._ZN3kmg5solid10MemManagerImE4FreeEmPj
                0xf8020750       0xe4 C:/ProgramData/KMC/SOLID/SDK/2.0/solid-os/core/lib/armv7aLaiv/CT_\libsolid_cs.a(solid_mem.o)
                0xf8020750                _ZN3kmg5solid10MemManagerImE4FreeEmPj
 .text._ZN3kmg5solid10MemManagerImE4InitEv
                0xf8020834       0xcc C:/ProgramData/KMC/SOLID/SDK/2.0/solid-os/core/lib/armv7aLaiv/CT_\libsolid_cs.a(solid_mem.o)
                0xf8020834                _ZN3kmg5solid10MemManagerImE4InitEv
 .text._ZN3kmg5solid12StackManagerImE4InitEv
                0xf8020900       0x48 C:/ProgramData/KMC/SOLID/SDK/2.0/solid-os/core/lib/armv7aLaiv/CT_\libsolid_cs.a(solid_mem.o)
                0xf8020900                _ZN3kmg5solid12StackManagerImE4InitEv
 .text._ZN3kmg5solid10MemManagerImE7GetUsedEv
                0xf8020948       0x20 C:/ProgramData/KMC/SOLID/SDK/2.0/solid-os/core/lib/armv7aLaiv/CT_\libsolid_cs.a(solid_mem.o)
                0xf8020948                _ZN3kmg5solid10MemManagerImE7GetUsedEv
 .text._ZN3kmg5solid12StackManagerImE7SetModeEb
                0xf8020968       0x74 C:/ProgramData/KMC/SOLID/SDK/2.0/solid-os/core/lib/armv7aLaiv/CT_\libsolid_cs.a(solid_mem.o)
                0xf8020968                _ZN3kmg5solid12StackManagerImE7SetModeEb
 .text._ZN3kmg5solid12StackManagerImE5AllocEjPm
                0xf80209dc      0x1c4 C:/ProgramData/KMC/SOLID/SDK/2.0/solid-os/core/lib/armv7aLaiv/CT_\libsolid_cs.a(solid_mem.o)
                0xf80209dc                _ZN3kmg5solid12StackManagerImE5AllocEjPm
 .text._ZN3kmg5solid12StackManagerImE4FreeEm
                0xf8020ba0      0x15c C:/ProgramData/KMC/SOLID/SDK/2.0/solid-os/core/lib/armv7aLaiv/CT_\libsolid_cs.a(solid_mem.o)
                0xf8020ba0                _ZN3kmg5solid12StackManagerImE4FreeEm
 .text._ZN3kmg5solid10MemManagerImE12AllocAlignedEjmPm
                0xf8020cfc      0x298 C:/ProgramData/KMC/SOLID/SDK/2.0/solid-os/core/lib/armv7aLaiv/CT_\libsolid_cs.a(solid_mem.o)
                0xf8020cfc                _ZN3kmg5solid10MemManagerImE12AllocAlignedEjmPm
 .text._ZN3kmg5solid10MemManagerImED0Ev
                0xf8020f94       0x30 C:/ProgramData/KMC/SOLID/SDK/2.0/solid-os/core/lib/armv7aLaiv/CT_\libsolid_cs.a(solid_mem.o)
                0xf8020f94                _ZN3kmg5solid10MemManagerImED0Ev
 .text._ZN3kmg5solid12StackManagerImED0Ev
                0xf8020fc4       0x30 C:/ProgramData/KMC/SOLID/SDK/2.0/solid-os/core/lib/armv7aLaiv/CT_\libsolid_cs.a(solid_mem.o)
                0xf8020fc4                _ZN3kmg5solid12StackManagerImED0Ev
 .text._ZN3kmg5solid10MemManagerImE10AllocChunkEv
                0xf8020ff4       0x64 C:/ProgramData/KMC/SOLID/SDK/2.0/solid-os/core/lib/armv7aLaiv/CT_\libsolid_cs.a(solid_mem.o)
                0xf8020ff4                _ZN3kmg5solid10MemManagerImE10AllocChunkEv
 .text._ZN3kmg5solid10MemManagerImE8AddChunkERPNS0_15SOLID_MEM_CHUNKImEES5_b
                0xf8021058      0x18c C:/ProgramData/KMC/SOLID/SDK/2.0/solid-os/core/lib/armv7aLaiv/CT_\libsolid_cs.a(solid_mem.o)
                0xf8021058                _ZN3kmg5solid10MemManagerImE8AddChunkERPNS0_15SOLID_MEM_CHUNKImEES5_b
 .text._ZN3kmg5solid10MemManagerImE9FreeChunkEPNS0_15SOLID_MEM_CHUNKImEE
                0xf80211e4       0x9c C:/ProgramData/KMC/SOLID/SDK/2.0/solid-os/core/lib/armv7aLaiv/CT_\libsolid_cs.a(solid_mem.o)
                0xf80211e4                _ZN3kmg5solid10MemManagerImE9FreeChunkEPNS0_15SOLID_MEM_CHUNKImEE
 .text._ZN3kmg5solid10MemManagerImE11RemoveChunkERPNS0_15SOLID_MEM_CHUNKImEES5_S5_
                0xf8021280       0x78 C:/ProgramData/KMC/SOLID/SDK/2.0/solid-os/core/lib/armv7aLaiv/CT_\libsolid_cs.a(solid_mem.o)
                0xf8021280                _ZN3kmg5solid10MemManagerImE11RemoveChunkERPNS0_15SOLID_MEM_CHUNKImEES5_S5_
 .text._ZN3kmg5solid12StackManagerImE8IsInUsedEmj
                0xf80212f8      0x148 C:/ProgramData/KMC/SOLID/SDK/2.0/solid-os/core/lib/armv7aLaiv/CT_\libsolid_cs.a(solid_mem.o)
                0xf80212f8                _ZN3kmg5solid12StackManagerImE8IsInUsedEmj
 .text          0xf8021440     0x136c C:/ProgramData/KMC/SOLID/SDK/2.0/solid-os/core/lib/armv7aLaiv/CT_\libsolid_cs.a(solid_mem_cache.o)
                0xf8021440                _ZN3kmg5solid5CACHE4InitEv
                0xf80216f4                _ZN3kmg5solid5CACHE12EnableCachesEb
                0xf8021760                _ZN3kmg5solid5CACHE7InitL2CEv
                0xf80217b8                _ZN3kmg5solid5CACHE7Init2ndEv
                0xf80217d0                _ZN3kmg5solid5CACHE4InvIEv
                0xf8021938                _ZN3kmg5solid5CACHE4InvIEmj
                0xf80219a8                _ZN3kmg5solid5CACHE10InvIStrictEmj
                0xf8021af4                _ZN3kmg5solid5CACHE4InvDEmj
                0xf8021ca8                _ZN3kmg5solid5CACHE5FlushEmj
                0xf8021d18                _ZN3kmg5solid5CACHE10InvDStrictEmj
                0xf8021f88                _ZN3kmg5solid5CACHE5CleanEv
                0xf80221b4                _ZN3kmg5solid5CACHE5CleanEmj
                0xf8022224                _ZN3kmg5solid5CACHE11CleanStrictEmj
                0xf80223cc                _ZN3kmg5solid5CACHE5FlushEv
                0xf80224f4                _ZN3kmg5solid5CACHE11FlushStrictEmj
 .text          0xf80227ac      0x198 C:/ProgramData/KMC/SOLID/SDK/2.0/solid-os/core/lib/armv7aLaiv/CT_\libsolid_cs.a(solid_mutex.o)
                0xf80227ac                SOLID_InitializeCriticalSection
                0xf80227f0                SOLID_EnterCriticalSection
                0xf8022860                SOLID_TryEnterCriticalSection
                0xf80228b4                SOLID_LeaveCriticalSection
 .text          0xf8022944      0x1ac C:/ProgramData/KMC/SOLID/SDK/2.0/solid-os/core/lib/armv7aLaiv/CT_\libsolid_cs.a(solid_rtc.o)
                0xf8022944                SOLID_RTC_Init
                0xf8022960                SOLID_RTC_ReadTime
                0xf80229b4                SOLID_RTC_SetTime
 .text          0xf8022af0     0x1754 C:/ProgramData/KMC/SOLID/SDK/2.0/solid-os/core/lib/armv7aLaiv/CT_\libsolid_cs.a(solid_timer.o)
                0xf8022b2c                _ZN3kmg5solid9TickCount4InitEP17_IMPL_TIMER_INFO_
                0xf8022ba4                _ZN3kmg5solid9TickCount14GetCurrentTickEv
                0xf8022be8                _ZN3kmg5solid9TickCount12CalcNextTickEm
                0xf8022c48                _ZN3kmg5solid9TickCount6ToTickEm
                0xf8022cac                _ZN3kmg5solid9TickCount6ToUsecEy
                0xf8022d1c                _ZN3kmg5solid9TickCount10UpdateTickEv
                0xf8022d80                _ZN3kmg5solid9TickCount7SuspendEv
                0xf8022d98                _ZN3kmg5solid9TickCount6ResumeEv
                0xf8022dec                _ZN3kmg5solid5Timer12CallBackFuncEPvP19_SOLID_CPU_CONTEXT_
                0xf8022e2c                _ZN3kmg5solid5Timer11NotifyTimerEP19_SOLID_CPU_CONTEXT_
                0xf80230e8                _ZN3kmg5solid5Timer4InitEv
                0xf8023794                SOLID_TIMER_GetCurrentTick
                0xf80237a8                SOLID_TIMER_WaitNsec
                0xf80238a8                _ZN3kmg5solid5Timer7ToTicksEy
                0xf802391c                _ZN3kmg5solid5Timer8SetTimerEy
                0xf8023aa0                _ZN3kmg5solid5Timer10SetMaxTimeEv
                0xf8023ae0                _ZN3kmg5solid5Timer8RegisterEP21_SOLID_TIMER_HANDLER_
                0xf8023c30                _ZN3kmg5solid5Timer8AddQueueEP21_SOLID_TIMER_HANDLER_
                0xf8023dd0                _ZN3kmg5solid5Timer10UnRegisterEP21_SOLID_TIMER_HANDLER_
                0xf8023f7c                _ZN3kmg5solid5Timer7SuspendEv
                0xf8023fb8                _ZN3kmg5solid5Timer6ResumeEv
                0xf8023ff8                SOLID_TIMER_Init
                0xf802400c                SOLID_TIMER_ToUsec
                0xf802405c                SOLID_TIMER_RegisterTimer
                0xf8024098                SOLID_TIMER_UnRegisterTimer
                0xf80240d4                SOLID_TIMER_GetTicksPerSec
                0xf80240e8                SOLID_TIMER_GetMaxTicks
                0xf80241b0                SOLID_TIMER_GetMaxTimerTime
                0xf802420c                SOLID_TIMER_Suspend
                0xf8024220                SOLID_TIMER_Resume
 .text._ZN3kmg5solid9TickCountC2Ev
                0xf8024244       0x1c C:/ProgramData/KMC/SOLID/SDK/2.0/solid-os/core/lib/armv7aLaiv/CT_\libsolid_cs.a(solid_timer.o)
                0xf8024244                _ZN3kmg5solid9TickCountC2Ev
 .text._ZN3kmg5solid9TickCountD2Ev
                0xf8024260       0x1c C:/ProgramData/KMC/SOLID/SDK/2.0/solid-os/core/lib/armv7aLaiv/CT_\libsolid_cs.a(solid_timer.o)
                0xf8024260                _ZN3kmg5solid9TickCountD2Ev
 .text._ZN3kmg5solid5TimerC2Ev
                0xf802427c       0x1c C:/ProgramData/KMC/SOLID/SDK/2.0/solid-os/core/lib/armv7aLaiv/CT_\libsolid_cs.a(solid_timer.o)
                0xf802427c                _ZN3kmg5solid5TimerC2Ev
 .text._ZN3kmg5solid5TimerD2Ev
                0xf8024298       0x1c C:/ProgramData/KMC/SOLID/SDK/2.0/solid-os/core/lib/armv7aLaiv/CT_\libsolid_cs.a(solid_timer.o)
                0xf8024298                _ZN3kmg5solid5TimerD2Ev
 .text._ZNK3kmg5solid9TickCount14GetTicksPerSecEv
                0xf80242b4       0x20 C:/ProgramData/KMC/SOLID/SDK/2.0/solid-os/core/lib/armv7aLaiv/CT_\libsolid_cs.a(solid_timer.o)
                0xf80242b4                _ZNK3kmg5solid9TickCount14GetTicksPerSecEv
 .text._ZNK3kmg5solid5Timer14GetTicksPerSecEv
                0xf80242d4       0x20 C:/ProgramData/KMC/SOLID/SDK/2.0/solid-os/core/lib/armv7aLaiv/CT_\libsolid_cs.a(solid_timer.o)
                0xf80242d4                _ZNK3kmg5solid5Timer14GetTicksPerSecEv
 .text._ZNK3kmg5solid5Timer11GetMaxTicksEv
                0xf80242f4       0x20 C:/ProgramData/KMC/SOLID/SDK/2.0/solid-os/core/lib/armv7aLaiv/CT_\libsolid_cs.a(solid_timer.o)
                0xf80242f4                _ZNK3kmg5solid5Timer11GetMaxTicksEv
 .text          0xf8024314      0x720 C:/ProgramData/KMC/SOLID/SDK/2.0/solid-os/core/lib/armv7aLaiv/CT_\libsolid_cs.a(solid_vector.o)
                0xf8024314                SOLID_VECTOR_Init
                0xf80243dc                SOLID_VECTOR_Register
                0xf8024470                SOLID_VECTOR_UnRegister
                0xf8024588                SOLID_VECTOR_Notify
                0xf8024650                SOLID_VECTOR_IsInInterrupt
                0xf8024668                SOLID_SVC_Register
                0xf8024928                SOLID_SVC_UnRegister
 .text          0xf8024a34      0x2a4 C:/ProgramData/KMC/SOLID/SDK/2.0/solid-os/core/lib/armv7aLaiv/CT_\libsolid_cs.a(solid_vlink.o)
                0xf8024a34                SOLID_VLINK_IsAvailable
                0xf8024a74                SOLID_VLINK_WriteConsole
                0xf8024aac                SOLID_VLINK_Init
                0xf8024b7c                SOLID_VLINK_GetCwd
 .text          0xf8024cd8     0x2d70 C:/ProgramData/KMC/SOLID/SDK/2.0/solid-os/core/lib/armv7aLaiv/CT_\libsolid_cs.a(tasan.o)
                0xf8024cd8                asan_report_error
                0xf8024ec0                asan_report
                0xf8024f40                asan_enabled
                0xf8024f50                __asan_report_load1_noabort
                0xf8024f84                __asan_report_load2_noabort
                0xf8024fb8                __asan_report_load4_noabort
                0xf8024fec                __asan_report_load8_noabort
                0xf8025020                __asan_report_load16_noabort
                0xf8025054                __asan_report_store1_noabort
                0xf8025084                __asan_report_store2_noabort
                0xf80250c0                __asan_report_store4_noabort
                0xf80250fc                __asan_report_store8_noabort
                0xf8025138                __asan_report_store16_noabort
                0xf8025174                asan_check_double_free
                0xf8025398                __asan_load1
                0xf8025490                __asan_load1_noabort
                0xf8025588                __asan_store1
                0xf802567c                __asan_store1_noabort
                0xf8025770                __asan_load2
                0xf8025868                __asan_load2_noabort
                0xf8025960                __asan_store2
                0xf8025a58                __asan_store2_noabort
                0xf8025b50                __asan_load4
                0xf8025c48                __asan_load4_noabort
                0xf8025d40                __asan_store4
                0xf8025e38                __asan_store4_noabort
                0xf8025f30                __asan_load8
                0xf8026028                __asan_load8_noabort
                0xf8026120                __asan_store8
                0xf8026218                __asan_store8_noabort
                0xf8026310                __asan_load16
                0xf8026408                __asan_load16_noabort
                0xf8026500                __asan_store16
                0xf80265f8                __asan_store16_noabort
                0xf80266f0                __asan_loadN
                0xf80267f4                __asan_loadN_noalign
                0xf80268f8                __asan_loadN_noabort
                0xf80269fc                __asan_storeN
                0xf8026b00                __asan_storeN_noalign
                0xf8026c04                __asan_storeN_noabort
                0xf8026d08                asan_poison_shadow
                0xf8026dec                asan_unpoison_shadow
                0xf8026ec0                __asan_register_globals
                0xf8026fcc                __asan_unregister_globals
                0xf8026ff0                tasan_init
                0xf80270b0                __asan_handle_no_return
                0xf80270b4                __asan_init_v5
                0xf80270b8                __asan_init
                0xf80270bc                __asan_version_mismatch_check_v8
                0xf80270c0                __asan_before_dynamic_init
                0xf80270d8                __asan_after_dynamic_init
                0xf80270dc                asan_set_report_handler
 .text          0xf8027a48      0x220 C:/ProgramData/KMC/SOLID/SDK/2.0/solid-os/core/lib/armv7aLaiv/CT_\libsolid_cs.a(tasan_interceptors.o)
                0xf8027a48                __wrap_memcpy
                0xf8027ab8                __wrap_memset
                0xf8027b1c                __wrap_memmove
                0xf8027b8c                __wrap_memcmp
                0xf8027bfc                __wrap_strcpy
 .text          0xf8027c68     0x1d0c C:/ProgramData/KMC/SOLID/SDK/2.0/solid-os/core/lib/armv7aLaiv/CT_\libsolid_cs.a(solid_mem_mmu.o)
                0xf8027c68                _ZN3kmg5solid3MMU4InitEv
                0xf802801c                _ZN3kmg5solid3MMU11Free2ndPageEi
                0xf8028090                _ZN3kmg5solid3MMU5UnmapEmjb
                0xf80282a8                _ZN3kmg5solid3MMU9IsSectionEi
                0xf80282f0                _ZN3kmg5solid3MMU6IsPageEi
                0xf8028330                _ZN3kmg5solid3MMU6ExpandEi
                0xf80284e0                _ZN3kmg5solid3MMU15Allocate2ndPageEv
                0xf80285c4                _ZN3kmg5solid3MMU6ReductEi
                0xf8028638                _ZN3kmg5solid3MMU13Get2ndPageIdxEi
                0xf80286bc                _ZN3kmg5solid3MMU3MapEmjmb
                0xf80289ac                _ZN3kmg5solid3MMU7IsValidEmj
                0xf8028bb4                _ZN3kmg5solid3MMU9IsInvalidEmj
                0xf8028dbc                _ZN3kmg5solid3MMU9CheckAreaEmRbRjj
                0xf802909c                _ZN3kmg5solid3MMU5VA2PAEmPm
                0xf80291d0                _ZN3kmg5solid3MMU7GetAttrEmPi
                0xf802940c                _ZN3kmg5solid3MMU7SetAttrEmi
                0xf80296c4                _ZN3kmg5solid3MMU7SetAttrEmji
 .text          0xf8029974      0x4e8 C:/ProgramData/KMC/SOLID/SDK/2.0/solid-os/core/lib/armv7aLaiv/CT_\libsolid_cs.a(kmc_evttracker_core.o)
                0xf8029974                __kmc_toppers_event_log_init
                0xf8029b44                __kmc_toppers_event_logI
                0xf8029cc8                __kmc_toppers_event_set_int_mask
                0xf8029cf0                __kmc_toppers_event_clear_int_mask
                0xf8029d18                __kmc_log_inh_enter
                0xf8029de8                __kmc_log_inh_leave
 .text          0xf8029e5c     0x95d0 C:/ProgramData/KMC/SOLID/SDK/2.0/solid-os/core/lib/armv7aLaiv/CT_\libsolid_cs.a(dlmalloc.o)
                0xf8029e5c                create_mspace
                0xf802a210                create_mspace_with_base
                0xf802a344                mspace_track_large_chunks
                0xf802a3ac                destroy_mspace
                0xf802a470                mspace_malloc
                0xf802c6d8                mspace_free
                0xf802e3f0                mspace_calloc
                0xf802e524                mspace_realloc
                0xf802f1cc                mspace_realloc_in_place
                0xf802f2c8                mspace_memalign
                0xf802f704                mspace_independent_calloc
                0xf802fba4                mspace_independent_comalloc
                0xf802fc0c                mspace_bulk_free
                0xf802fe60                mspace_inspect_all
                0xf8030104                mspace_trim
                0xf8030150                mspace_malloc_stats
                0xf80303ec                mspace_footprint
                0xf8030424                mspace_max_footprint
                0xf803045c                mspace_footprint_limit
                0xf80304c4                mspace_set_footprint_limit
                0xf8030574                mspace_mallinfo
                0xf8030848                mspace_usable_size
                0xf80308cc                mspace_mallopt
 .text          0xf803342c       0x30 C:/ProgramData/KMC/SOLID/SDK/2.0/solid-os/core/lib/armv7aLaiv/CT_\libsolid_cs.a(solid_asan.o)
                0xf803342c                SOLID_ASAN_Enabled
                0xf8033438                SOLID_ASAN_RegisterReporter
 .text          0xf803345c        0x0 C:/ProgramData/KMC/SOLID/SDK/2.0/solid-os/core/lib/armv7aLaiv/CT_\libsolid_cs.a(solid_cs_args.o)
 .text          0xf803345c     0x1198 C:/ProgramData/KMC/SOLID/SDK/2.0/solid-os/net/lwIP/lib/armv7aLaiv/CT_\libnet.a(sys_arch.o)
                0xf8033474                sys_init
                0xf8033478                sys_setup_OSresource
                0xf80336e0                sys_start_daemon
                0xf8033758                sys_thread_new
                0xf80338c4                lwip_daemon_thread
                0xf803399c                sys_arch_protect
                0xf80339c0                sys_arch_unprotect
                0xf80339e4                sys_sem_new
                0xf8033b58                sys_sem_signal
                0xf8033c0c                sys_arch_sem_wait
                0xf8033d8c                sys_now
                0xf8033da8                sys_sem_free
                0xf8033dd8                sys_sem_valid
                0xf8033e84                sys_sem_set_invalid
                0xf8033ea8                sys_mbox_new
                0xf8033f80                sys_mbox_post
                0xf8034044                sys_mbox_trypost
                0xf8034134                sys_arch_mbox_fetch
                0xf80342e8                sys_arch_mbox_tryfetch
                0xf80343b8                sys_mbox_free
                0xf80343e8                sys_mbox_valid
                0xf8034494                sys_mbox_set_invalid
                0xf80344b8                lwip_thread_task
 .text          0xf80345f4     0x4f7c C:/ProgramData/KMC/SOLID/SDK/2.0/solid-os/net/lwIP/lib/armv7aLaiv/CT_\libnet.a(sockets.o)
                0xf80345f4                lwip_socket_thread_init
                0xf80345f8                lwip_socket_thread_cleanup
                0xf80345fc                lwip_accept
                0xf8035230                lwip_bind
                0xf803541c                lwip_close
                0xf8035568                lwip_connect
                0xf8035818                lwip_listen
                0xf80359fc                lwip_recvfrom
                0xf8036088                lwip_read
                0xf80360e0                lwip_recv
                0xf8036144                lwip_send
                0xf80362d4                lwip_sendto
                0xf80365a8                lwip_sendmsg
                0xf8036c24                lwip_socket
                0xf8036df4                lwip_write
                0xf8036e40                lwip_writev
                0xf8036eb8                lwip_select
                0xf8037cd4                lwip_shutdown
                0xf8037efc                lwip_getpeername
                0xf80380f4                lwip_getsockname
                0xf8038140                lwip_getsockopt
                0xf8038b08                lwip_setsockopt
                0xf8039230                lwip_ioctl
                0xf80393a4                lwip_fcntl
 .text          0xf8039570      0x74c C:/ProgramData/KMC/SOLID/SDK/2.0/solid-os/net/lwIP/lib/armv7aLaiv/CT_\libnet.a(tcpip.o)
                0xf8039570                tcpip_inpkt
                0xf8039664                tcpip_input
                0xf80396dc                tcpip_callback_with_block
                0xf80397ec                tcpip_send_msg_wait_sem
                0xf8039858                tcpip_api_call
                0xf80398b8                tcpip_callbackmsg_new
                0xf803993c                tcpip_callbackmsg_delete
                0xf8039974                tcpip_trycallback
                0xf80399c4                tcpip_init
                0xf8039c04                pbuf_free_callback
                0xf8039c78                mem_free_callback
 .text          0xf8039cbc      0x4f0 C:/ProgramData/KMC/SOLID/SDK/2.0/solid-os/net/lwIP/lib/armv7aLaiv/CT_\libnet.a(def.o)
                0xf8039cbc                lwip_htons
                0xf8039cdc                lwip_htonl
                0xf8039d10                lwip_strnstr
                0xf8039e38                lwip_stricmp
                0xf8039f2c                lwip_strnicmp
                0xf803a064                lwip_itoa
 .text          0xf803a1ac       0x44 C:/ProgramData/KMC/SOLID/SDK/2.0/solid-os/net/lwIP/lib/armv7aLaiv/CT_\libnet.a(init.o)
                0xf803a1ac                lwip_init
 .text          0xf803a1f0      0xee8 C:/ProgramData/KMC/SOLID/SDK/2.0/solid-os/net/lwIP/lib/armv7aLaiv/CT_\libnet.a(ip4.o)
                0xf803a1f0                ip4_route
                0xf803a41c                ip4_input
                0xf803ab80                ip4_output_if
                0xf803ac5c                ip4_output_if_src
                0xf803afe8                ip4_output
 .text          0xf803b0d8      0x914 C:/ProgramData/KMC/SOLID/SDK/2.0/solid-os/net/lwIP/lib/armv7aLaiv/CT_\libnet.a(ip4_addr.o)
                0xf803b0d8                ip4_addr_isbroadcast_u32
                0xf803b1d4                ip4_addr_netmask_valid
                0xf803b29c                ipaddr_addr
                0xf803b2f0                ip4addr_aton
                0xf803b7e0                ip4addr_ntoa
                0xf803b818                ip4addr_ntoa_r
 .text          0xf803b9ec     0x155c C:/ProgramData/KMC/SOLID/SDK/2.0/solid-os/net/lwIP/lib/armv7aLaiv/CT_\libnet.a(ip4_frag.o)
                0xf803b9ec                ip_reass_tmr
                0xf803bcc8                ip4_reass
                0xf803ca10                ip4_frag
 .text          0xf803cf48      0xddc C:/ProgramData/KMC/SOLID/SDK/2.0/solid-os/net/lwIP/lib/armv7aLaiv/CT_\libnet.a(mem.o)
                0xf803cf48                mem_init
                0xf803d018                mem_free
                0xf803d3f4                mem_trim
                0xf803d824                mem_malloc
                0xf803dcb8                mem_calloc
 .text          0xf803dd24      0x49c C:/ProgramData/KMC/SOLID/SDK/2.0/solid-os/net/lwIP/lib/armv7aLaiv/CT_\libnet.a(memp.o)
                0xf803dd24                memp_init_pool
                0xf803ddf4                memp_init
                0xf803de6c                memp_malloc_pool
                0xf803dfd8                memp_malloc
                0xf803e040                memp_free_pool
                0xf803e14c                memp_free
 .text          0xf803e1c0      0x9f8 C:/ProgramData/KMC/SOLID/SDK/2.0/solid-os/net/lwIP/lib/armv7aLaiv/CT_\libnet.a(netif.o)
                0xf803e1c0                netif_init
                0xf803e1c4                netif_input
                0xf803e22c                netif_add
                0xf803e3c4                netif_set_addr
                0xf803e478                netif_set_ipaddr
                0xf803e594                netif_set_netmask
                0xf803e5f8                netif_set_gw
                0xf803e65c                netif_remove
                0xf803e7e8                netif_set_down
                0xf803e878                netif_set_default
                0xf803e8c0                netif_find
                0xf803ea30                netif_set_up
                0xf803eac4                netif_set_status_callback
                0xf803eb08                netif_set_link_up
                0xf803eb78                netif_set_link_down
 .text          0xf803ebb8     0x23f0 C:/ProgramData/KMC/SOLID/SDK/2.0/solid-os/net/lwIP/lib/armv7aLaiv/CT_\libnet.a(pbuf.o)
                0xf803ebb8                pbuf_alloc
                0xf803f1c8                pbuf_free
                0xf803f418                pbuf_alloced_custom
                0xf803f5d0                pbuf_realloc
                0xf803f820                pbuf_header
                0xf803fabc                pbuf_header_force
                0xf803faf8                pbuf_clen
                0xf803fb4c                pbuf_ref
                0xf803fbc4                pbuf_cat
                0xf803fccc                pbuf_chain
                0xf803fd10                pbuf_dechain
                0xf803fe34                pbuf_copy
                0xf804011c                pbuf_copy_partial
                0xf8040324                pbuf_split_64k
                0xf80404f0                pbuf_skip
                0xf8040614                pbuf_take
                0xf804080c                pbuf_take_at
                0xf8040974                pbuf_coalesce
                0xf8040a38                pbuf_get_at
                0xf8040a9c                pbuf_try_get_at
                0xf8040b2c                pbuf_put_at
                0xf8040bb4                pbuf_memcmp
                0xf8040d34                pbuf_memfind
                0xf8040e24                pbuf_strstr
 .text          0xf8040fa8       0x18 C:/ProgramData/KMC/SOLID/SDK/2.0/solid-os/net/lwIP/lib/armv7aLaiv/CT_\libnet.a(stats.o)
                0xf8040fa8                stats_init
 .text          0xf8040fc0     0x36dc C:/ProgramData/KMC/SOLID/SDK/2.0/solid-os/net/lwIP/lib/armv7aLaiv/CT_\libnet.a(tcp.o)
                0xf8040fc0                tcp_init
                0xf8040fc4                tcp_tmr
                0xf8040ff8                tcp_fasttmr
                0xf8041190                tcp_slowtmr
                0xf8041c3c                tcp_close
                0xf8042068                tcp_shutdown
                0xf80421a4                tcp_abandon
                0xf8042484                tcp_pcb_remove
                0xf8042648                tcp_segs_free
                0xf8042698                tcp_abort
                0xf80426c4                tcp_bind
                0xf8042a80                tcp_listen_with_backlog
                0xf8042abc                tcp_listen_with_backlog_and_err
                0xf8042d68                tcp_update_rcv_ann_wnd
                0xf8042e7c                tcp_recved
                0xf8042fb0                tcp_connect
                0xf804339c                tcp_next_iss
                0xf80433d8                tcp_eff_send_mss_impl
                0xf8043498                tcp_pcb_purge
                0xf8043758                tcp_process_refused_data
                0xf804398c                tcp_txnow
                0xf80439f8                tcp_recv_null
                0xf8043a9c                tcp_seg_free
                0xf8043b00                tcp_setprio
                0xf8043b30                tcp_seg_copy
                0xf8043ba8                tcp_alloc
                0xf8044130                tcp_new
                0xf8044140                tcp_new_ip_type
                0xf804416c                tcp_arg
                0xf80441b0                tcp_recv
                0xf8044214                tcp_sent
                0xf8044278                tcp_err
                0xf80442dc                tcp_accept
                0xf804433c                tcp_poll
                0xf80443a8                tcp_netif_ip_addr_changed
                0xf8044554                tcp_debug_state_str
 .text          0xf804469c     0x4594 C:/ProgramData/KMC/SOLID/SDK/2.0/solid-os/net/lwIP/lib/armv7aLaiv/CT_\libnet.a(tcp_in.o)
                0xf804469c                tcp_input
                0xf8046b14                tcp_trigger_input_pcb_close
 .text          0xf8048c30     0x2fd0 C:/ProgramData/KMC/SOLID/SDK/2.0/solid-os/net/lwIP/lib/armv7aLaiv/CT_\libnet.a(tcp_out.o)
                0xf8048c30                tcp_send_fin
                0xf8048d1c                tcp_enqueue_flags
                0xf80490cc                tcp_write
                0xf804a3d4                tcp_send_empty_ack
                0xf804a718                tcp_output
                0xf804b250                tcp_rst
                0xf804b414                tcp_rexmit_rto
                0xf804b514                tcp_rexmit
                0xf804b668                tcp_rexmit_fast
                0xf804b770                tcp_keepalive
                0xf804b8f4                tcp_zero_window_probe
 .text          0xf804bc00      0x834 C:/ProgramData/KMC/SOLID/SDK/2.0/solid-os/net/lwIP/lib/armv7aLaiv/CT_\libnet.a(timeouts.o)
                0xf804bc00                tcp_timer_needed
                0xf804bc78                sys_timeout
                0xf804bf90                sys_timeouts_init
                0xf804c050                sys_untimeout
                0xf804c18c                sys_restart_timeouts
                0xf804c1a4                sys_timeouts_mbox_fetch
 .text          0xf804c434     0x1388 C:/ProgramData/KMC/SOLID/SDK/2.0/solid-os/net/lwIP/lib/armv7aLaiv/CT_\libnet.a(udp.o)
                0xf804c434                udp_init
                0xf804c438                udp_input
                0xf804ca6c                udp_send
                0xf804cad0                udp_sendto
                0xf804cbd0                udp_sendto_if
                0xf804ccfc                udp_sendto_if_src
                0xf804cffc                udp_bind
                0xf804d358                udp_connect
                0xf804d4f4                udp_disconnect
                0xf804d530                udp_recv
                0xf804d57c                udp_remove
                0xf804d654                udp_new
                0xf804d6bc                udp_new_ip_type
                0xf804d6e4                udp_netif_ip_addr_changed
 .text          0xf804d7bc      0x3f4 C:/ProgramData/KMC/SOLID/SDK/2.0/solid-os/net/lwIP/lib/armv7aLaiv/CT_\libnet.a(ethernet.o)
                0xf804d7bc                ethernet_input
                0xf804da74                ethernet_output
 .text          0xf804dbb0      0x508 C:/ProgramData/KMC/SOLID/SDK/2.0/solid-os/net/lwIP/lib/armv7aLaiv/CT_\libnet.a(solid_net_if.o)
                0xf804dbb0                SOLID_NET_start_network
                0xf804dc5c                SOLID_NET_IF_Init
                0xf804dd6c                SOLID_NET_IF_GetAdapter
                0xf804dd8c                SOLID_NET_IF_Test
 .text          0xf804e0b8       0x5c C:/ProgramData/KMC/SOLID/SDK/2.0/solid-os/net/lwIP/lib/armv7aLaiv/CT_\libnet.a(solid_net_registerapi.o)
                0xf804e0b8                SOLID_NET_RegisterAPIs
 .text          0xf804e114      0x908 C:/ProgramData/KMC/SOLID/SDK/2.0/solid-os/net/lwIP/lib/armv7aLaiv/CT_\libnet.a(impl_net_stack.o)
                0xf804e114                IMPL_NET_STACK_Init
                0xf804e118                IMPL_NET_STACK_Start
                0xf804e150                IMPL_NET_STACK_AddInterface
                0xf804e6d0                IMPL_NET_STACK_InputPacket
                0xf804e784                IMPL_NET_STACK_DriveProcess
                0xf804e788                IMPL_NET_STACK_SetLinkUp
                0xf804e7d8                IMPL_NET_STACK_SetLinkDown
                0xf804ea10                IMPL_NET_STACK_GetPacketBufferOps
 .text          0xf804ea1c       0xa4 C:/ProgramData/KMC/SOLID/SDK/2.0/solid-os/net/lwIP/lib/armv7aLaiv/CT_\libnet.a(impl_net_stack_errno.o)
                0xf804ea1c                IMPL_NET_STACK_strerror
 .text          0xf804eac0      0x25c C:/ProgramData/KMC/SOLID/SDK/2.0/solid-os/net/lwIP/lib/armv7aLaiv/CT_\libnet.a(ethernetif.o)
                0xf804eac0                ethernetif_init
 .text          0xf804ed1c     0x120c C:/ProgramData/KMC/SOLID/SDK/2.0/solid-os/net/lwIP/lib/armv7aLaiv/CT_\libnet.a(api_lib.o)
                0xf804ed1c                netconn_new_with_proto_and_callback
                0xf804eef4                netconn_delete
                0xf804ef84                netconn_getaddr
                0xf804f074                netconn_bind
                0xf804f128                netconn_connect
                0xf804f1dc                netconn_disconnect
                0xf804f248                netconn_listen_with_backlog
                0xf804f2c0                netconn_accept
                0xf804f48c                netconn_recv_tcp_pbuf
                0xf804f884                netconn_recv
                0xf804f9fc                netconn_sendto
                0xf804fab4                netconn_send
                0xf804fb3c                netconn_write_partly
                0xf804fcec                netconn_close
                0xf804fda0                netconn_shutdown
                0xf804fe04                netconn_gethostbyname
 .text          0xf804ff28     0x3a64 C:/ProgramData/KMC/SOLID/SDK/2.0/solid-os/net/lwIP/lib/armv7aLaiv/CT_\libnet.a(api_msg.o)
                0xf804ff28                lwip_netconn_do_newconn
                0xf8050154                netconn_alloc
                0xf80502cc                netconn_free
                0xf8050374                lwip_netconn_do_delconn
                0xf8050f24                lwip_netconn_do_bind
                0xf8051098                lwip_netconn_do_connect
                0xf8051684                lwip_netconn_do_disconnect
                0xf8051750                lwip_netconn_do_listen
                0xf8051ccc                lwip_netconn_do_send
                0xf8051e50                lwip_netconn_do_recv
                0xf8051f90                lwip_netconn_do_write
                0xf80528ac                lwip_netconn_do_getaddr
                0xf8052b24                lwip_netconn_do_close
                0xf8052d90                lwip_netconn_do_gethostbyname
 .text          0xf805398c       0xcc C:/ProgramData/KMC/SOLID/SDK/2.0/solid-os/net/lwIP/lib/armv7aLaiv/CT_\libnet.a(err.o)
                0xf805398c                err_to_errno
                0xf80539f0                lwip_strerr
 .text          0xf8053a58      0x5b8 C:/ProgramData/KMC/SOLID/SDK/2.0/solid-os/net/lwIP/lib/armv7aLaiv/CT_\libnet.a(netbuf.o)
                0xf8053a58                netbuf_new
                0xf8053aa4                netbuf_delete
                0xf8053b1c                netbuf_alloc
                0xf8053c18                netbuf_free
                0xf8053c90                netbuf_ref
                0xf8053da0                netbuf_chain
                0xf8053e30                netbuf_data
                0xf8053f28                netbuf_next
                0xf8053fcc                netbuf_first
 .text          0xf8054010      0x768 C:/ProgramData/KMC/SOLID/SDK/2.0/solid-os/net/lwIP/lib/armv7aLaiv/CT_\libnet.a(netdb.o)
                0xf8054010                lwip_gethostbyname
                0xf8054114                lwip_gethostbyname_r
                0xf8054330                lwip_freeaddrinfo
                0xf8054384                lwip_getaddrinfo
 .text          0xf8054778     0x1ac4 C:/ProgramData/KMC/SOLID/SDK/2.0/solid-os/net/lwIP/lib/armv7aLaiv/CT_\libnet.a(dns.o)
                0xf8054778                dns_init
                0xf8054794                dns_setserver
                0xf8054818                dns_getserver
                0xf805486c                dns_tmr
                0xf80548c8                dns_gethostbyname
                0xf8054928                dns_gethostbyname_addrtype
 .text          0xf805623c      0x874 C:/ProgramData/KMC/SOLID/SDK/2.0/solid-os/net/lwIP/lib/armv7aLaiv/CT_\libnet.a(inet_chksum.o)
                0xf805623c                lwip_standard_chksum
                0xf8056384                inet_chksum_pseudo
                0xf80565bc                ip_chksum_pseudo
                0xf8056628                inet_chksum_pseudo_partial
                0xf8056900                ip_chksum_pseudo_partial
                0xf8056980                inet_chksum
                0xf80569bc                inet_chksum_pbuf
 .text          0xf8056ab0        0x0 C:/ProgramData/KMC/SOLID/SDK/2.0/solid-os/net/lwIP/lib/armv7aLaiv/CT_\libnet.a(ip.o)
 .text          0xf8056ab0     0x3a64 C:/ProgramData/KMC/SOLID/SDK/2.0/solid-os/net/lwIP/lib/armv7aLaiv/CT_\libnet.a(dhcp.o)
                0xf8056ab0                dhcp_coarse_tmr
                0xf8056c24                dhcp_release
                0xf80571fc                dhcp_fine_tmr
                0xf8057444                dhcp_set_struct
                0xf80574dc                dhcp_cleanup
                0xf8057544                dhcp_start
                0xf80578f0                dhcp_stop
                0xf80579a4                dhcp_inform
                0xf8058294                dhcp_network_changed
                0xf8058578                dhcp_arp_reply
                0xf80587c8                dhcp_renew
                0xf8058a1c                dhcp_supplied_address
 .text          0xf805a514     0x1d94 C:/ProgramData/KMC/SOLID/SDK/2.0/solid-os/net/lwIP/lib/armv7aLaiv/CT_\libnet.a(etharp.o)
                0xf805a514                etharp_tmr
                0xf805a80c                etharp_request
                0xf805a850                etharp_add_static_entry
                0xf805ab48                etharp_remove_static_entry
                0xf805b098                etharp_cleanup_netif
                0xf805b144                etharp_find_addr
                0xf805b278                etharp_get_entry
                0xf805b3ac                etharp_input
                0xf805b860                etharp_output
                0xf805bd74                etharp_query
 .text          0xf805c2a8      0x808 C:/ProgramData/KMC/SOLID/SDK/2.0/solid-os/net/lwIP/lib/armv7aLaiv/CT_\libnet.a(icmp.o)
                0xf805c2a8                icmp_input
                0xf805c860                icmp_dest_unreach
                0xf805ca68                icmp_time_exceeded
 .text          0xf805cab0     0x16ac C:/ProgramData/KMC/SOLID/SDK/2.0/solid-os/rtos/toppers_asp3/lib/armv7aLaiv/CT__\libkernel.a(dataqueue.o)
                0xf805cac8                _kernel_initialize_dataqueue
                0xf805cd30                _kernel_enqueue_data
                0xf805cdb8                _kernel_force_enqueue_data
                0xf805ce70                _kernel_dequeue_data
                0xf805cefc                _kernel_send_data
                0xf805d0dc                _kernel_force_send_data
                0xf805d158                _kernel_receive_data
                0xf805d24c                snd_dtq
                0xf805d42c                psnd_dtq
                0xf805d554                tsnd_dtq
                0xf805d774                fsnd_dtq
                0xf805d8a8                rcv_dtq
                0xf805db38                prcv_dtq
                0xf805dc58                trcv_dtq
                0xf805dec0                ini_dtq
                0xf805dfdc                ref_dtq
 .text          0xf805e15c      0xba8 C:/ProgramData/KMC/SOLID/SDK/2.0/solid-os/rtos/toppers_asp3/lib/armv7aLaiv/CT__\libkernel.a(interrupt.o)
                0xf805e174                _kernel_initialize_isr
                0xf805e718                _kernel_call_isr
                0xf805e7e4                _kernel_initialize_interrupt
                0xf805e924                dis_int
                0xf805ea04                ena_int
                0xf805ead8                chg_ipm
                0xf805ec80                get_ipm
 .text          0xf805ed04      0x470 C:/ProgramData/KMC/SOLID/SDK/2.0/solid-os/rtos/toppers_asp3/lib/armv7aLaiv/CT__\libkernel.a(vasyslog.o)
                0xf805ed1c                syslog
 .text          0xf805f174      0xae4 C:/ProgramData/KMC/SOLID/SDK/2.0/solid-os/rtos/toppers_asp3/lib/armv7aLaiv/CT__\libkernel.a(semaphore.o)
                0xf805f18c                _kernel_initialize_semaphore
                0xf805f248                sig_sem
                0xf805f518                wai_sem
                0xf805f684                pol_sem
                0xf805f778                twai_sem
                0xf805f964                ini_sem
                0xf805fa68                ref_sem
 .text          0xf805fc58      0x274 C:/ProgramData/KMC/SOLID/SDK/2.0/solid-os/rtos/toppers_asp3/lib/armv7aLaiv/CT__\libkernel.a(startup.o)
                0xf805fc70                sta_ker
                0xf805fcc0                _kernel_initialize_kmm
                0xf805fcfc                ext_ker
                0xf805fd54                _kernel_exit_kernel
                0xf805fe18                _kernel_kernel_malloc
                0xf805fe78                _kernel_kernel_free
 .text          0xf805fecc      0x850 C:/ProgramData/KMC/SOLID/SDK/2.0/solid-os/rtos/toppers_asp3/lib/armv7aLaiv/CT__\libkernel.a(sys_manage.o)
                0xf805fee4                rot_rdq
                0xf8060050                get_tid
                0xf806010c                get_lod
                0xf8060258                get_nth
                0xf80603ec                loc_cpu
                0xf8060420                unl_cpu
                0xf8060454                dis_dsp
                0xf80604c8                ena_dsp
                0xf80605fc                sns_ctx
                0xf8060620                sns_loc
                0xf8060644                sns_dsp
                0xf8060670                sns_dpn
                0xf80606e0                sns_ker
 .text          0xf806071c      0xeac C:/ProgramData/KMC/SOLID/SDK/2.0/solid-os/rtos/toppers_asp3/lib/armv7aLaiv/CT__\libkernel.a(task.o)
                0xf8060734                _kernel_initialize_task
                0xf8060a64                _kernel_make_dormant
                0xf8060ae4                _kernel_make_active
                0xf8060b6c                _kernel_search_schedtsk
                0xf8060bac                _kernel_make_runnable
                0xf8060cf0                _kernel_make_non_runnable
                0xf8060f9c                _kernel_change_priority
                0xf806123c                _kernel_rotate_ready_queue
                0xf8061384                _kernel_task_terminate
 .text          0xf80615c8       0x18 C:/ProgramData/KMC/SOLID/SDK/2.0/solid-os/rtos/toppers_asp3/lib/armv7aLaiv/CT__\libkernel.a(taskhook.o)
 .text          0xf80615e0      0xa38 C:/ProgramData/KMC/SOLID/SDK/2.0/solid-os/rtos/toppers_asp3/lib/armv7aLaiv/CT__\libkernel.a(task_manage.o)
                0xf80615f8                act_tsk
                0xf80617e0                can_act
                0xf80618e4                get_tst
                0xf8061ab4                chg_pri
                0xf8061dd0                get_pri
                0xf8061f00                get_inf
 .text          0xf8062018      0xc34 C:/ProgramData/KMC/SOLID/SDK/2.0/solid-os/rtos/toppers_asp3/lib/armv7aLaiv/CT__\libkernel.a(time_event.o)
                0xf8062030                _kernel_initialize_tmevt
                0xf8062170                _kernel_tmevt_up
                0xf8062234                _kernel_tmevt_down
                0xf8062348                _kernel_update_current_evttim
                0xf8062438                _kernel_set_hrt_event
                0xf8062520                _kernel_tmevtb_register
                0xf80625ac                _kernel_tmevtb_enqueue
                0xf8062654                _kernel_tmevtb_dequeue
                0xf80627f4                _kernel_check_adjtim
                0xf80628f8                _kernel_tmevt_lefttim
                0xf8062978                _kernel_signal_time
 .text          0xf8062c4c      0x848 C:/ProgramData/KMC/SOLID/SDK/2.0/solid-os/rtos/toppers_asp3/lib/armv7aLaiv/CT__\libkernel.a(wait.o)
                0xf8062c64                _kernel_make_wait_tmout
                0xf8062df0                _kernel_wait_tmout
                0xf8062e60                _kernel_wait_complete
                0xf8062fec                _kernel_wait_tmout_ok
                0xf8063054                _kernel_wobj_make_wait
                0xf806315c                _kernel_wobj_make_wait_tmout
                0xf80631d0                _kernel_init_wait_queue
 .text          0xf8063494       0x68 C:/ProgramData/KMC/SOLID/SDK/2.0/solid-os/rtos/toppers_asp3/lib/armv7aLaiv/CT__\libkernel.a(solid_rtos_registerapi.o)
                0xf8063494                SOLID_RTOS_RegisterAPIs
 .text          0xf80634fc       0x64 C:/ProgramData/KMC/SOLID/SDK/2.0/solid-os/rtos/toppers_asp3/lib/armv7aLaiv/CT__\libkernel.a(target_fput_log.o)
                0xf80634fc                target_fput_log
                0xf8063520                tSysLog_eSysLog_write
 .text          0xf8063560      0x594 C:/ProgramData/KMC/SOLID/SDK/2.0/solid-os/rtos/toppers_asp3/lib/armv7aLaiv/CT__\libkernel.a(target_intc_impl.o)
                0xf8063578                target_intc_setup
                0xf80636bc                target_config_int
                0xf80638c4                target_set_ipm
                0xf8063900                target_get_ipm
                0xf8063920                target_disable_int
                0xf8063954                target_enable_int
 .text          0xf8063af4      0x21c C:/ProgramData/KMC/SOLID/SDK/2.0/solid-os/rtos/toppers_asp3/lib/armv7aLaiv/CT__\libkernel.a(target_timer_impl.o)
                0xf8063b0c                target_hrt_get_current
                0xf8063b28                target_hrt_set_event
                0xf8063b98                target_hrt_raise_event
                0xf8063ba8                _kernel_target_hrt_initialize
                0xf8063c70                _kernel_target_hrt_terminate
                0xf8063c88                target_hrt_get_config
                0xf8063cec                sil_dly_nse
 .text          0xf8063d10      0x384 C:/ProgramData/KMC/SOLID/SDK/2.0/solid-os/rtos/toppers_asp3/lib/armv7aLaiv/CT__\libkernel.a(kmc_evttracker_rtos.o)
                0xf8063d28                __kmc_log_taskstat
                0xf8063da8                __kmc_log_dsp_enter
                0xf8063ec4                __kmc_log_alm_enter
                0xf8063f38                __kmc_log_alm_leave
                0xf8063fac                __kmc_log_cyc_enter
                0xf8064020                __kmc_log_cyc_leave
 .text          0xf8064094      0x7cc C:/ProgramData/KMC/SOLID/SDK/2.0/solid-os/rtos/toppers_asp3/lib/armv7aLaiv/CT__\libkernel.a(rtos_prof.o)
                0xf80640ac                RTOS_PROF_update_stack
                0xf80642cc                RTOS_PROF_get_stack_usage
                0xf80643dc                RTOS_PROF_get_max_stack_usage
                0xf80644ec                RTOS_PROF_enum_stack_usage
                0xf80645e0                RTOS_PROF_enum_max_stack_usage
                0xf80646d4                RTOS_PROF_set_stack_threshold
                0xf80646fc                RTOS_check_stack_overflow
 .text          0xf8064860      0x158 C:/ProgramData/KMC/SOLID/SDK/2.0/solid-os/rtos/toppers_asp3/lib/armv7aLaiv/CT__\libkernel.a(core_support.o)
                0xf8064860                _kernel_dispatch
                0xf806488c                _kernel_start_dispatch
                0xf80648b4                _kernel_exit_and_dispatch
                0xf80648bc                dispatcher_0
                0xf80648bc                dispatcher
                0xf80648f8                _kernel_call_exit_kernel
                0xf8064908                _kernel_start_r
                0xf8064920                _kernel_solid_iret
 .text          0xf80649b8       0x54 C:/ProgramData/KMC/SOLID/SDK/2.0/solid-os/rtos/toppers_asp3/lib/armv7aLaiv/CT__\libkernel.a(kernel_cfg_intl.o)
                0xf80649d4                _kernel_initialize_object
 .text          0xf8064a0c      0x750 C:/ProgramData/KMC/SOLID/SDK/2.0/solid-os/rtos/toppers_asp3/lib/armv7aLaiv/CT__\libkernel.a(alarm.o)
                0xf8064a24                _kernel_initialize_alarm
                0xf8064ac4                _kernel_call_alarm
                0xf8064b24                sta_alm
                0xf8064c7c                stp_alm
                0xf8064d60                ref_alm
 .text          0xf806515c      0x588 C:/ProgramData/KMC/SOLID/SDK/2.0/solid-os/rtos/toppers_asp3/lib/armv7aLaiv/CT__\libkernel.a(core_kernel_impl.o)
                0xf8065174                _kernel_core_initialize
                0xf8065188                _kernel_core_terminate
                0xf806518c                _kernel_xlog_sys
                0xf8065360                _kernel_xlog_fsr
                0xf80654fc                _kernel_default_int_handler
                0xf806557c                _kernel_default_exc_handler
 .text          0xf80656e4      0x4f4 C:/ProgramData/KMC/SOLID/SDK/2.0/solid-os/rtos/toppers_asp3/lib/armv7aLaiv/CT__\libkernel.a(cyclic.o)
                0xf80656fc                _kernel_initialize_cyclic
                0xf80657e8                _kernel_call_cyclic
                0xf8065874                sta_cyc
                0xf80659bc                stp_cyc
                0xf8065ab0                ref_cyc
 .text          0xf8065bd8      0xf08 C:/ProgramData/KMC/SOLID/SDK/2.0/solid-os/rtos/toppers_asp3/lib/armv7aLaiv/CT__\libkernel.a(eventflag.o)
                0xf8065bf0                _kernel_initialize_eventflag
                0xf8065ca8                _kernel_check_flg_cond
                0xf8065d80                set_flg
                0xf8065fb4                clr_flg
                0xf8066094                wai_flg
                0xf8066378                pol_flg
                0xf8066520                twai_flg
                0xf80667ec                ini_flg
                0xf80668f0                ref_flg
 .text          0xf8066ae0      0x1b0 C:/ProgramData/KMC/SOLID/SDK/2.0/solid-os/rtos/toppers_asp3/lib/armv7aLaiv/CT__\libkernel.a(exception.o)
                0xf8066afc                xsns_dpn
 .text          0xf8066c90      0xf3c C:/ProgramData/KMC/SOLID/SDK/2.0/solid-os/rtos/toppers_asp3/lib/armv7aLaiv/CT__\libkernel.a(mempfix.o)
                0xf8066ca8                _kernel_initialize_mempfix
                0xf8066fd4                _kernel_get_mpf_block
                0xf806709c                get_mpf
                0xf8067274                pget_mpf
                0xf8067374                tget_mpf
                0xf806758c                rel_mpf
                0xf806793c                ini_mpf
                0xf8067a5c                ref_mpf
 .text          0xf8067bcc      0x49c C:/ProgramData/KMC/SOLID/SDK/2.0/solid-os/rtos/toppers_asp3/lib/armv7aLaiv/CT__\libkernel.a(tSysLog.o)
                0xf8067be4                syslog_wri_log
                0xf8067de0                syslog_rea_log
                0xf8067ec0                syslog_msk_log
                0xf8067f1c                syslog_ref_log
                0xf8067f9c                syslog_fls_log
 .text          0xf8068068     0x1500 C:/ProgramData/KMC/SOLID/SDK/2.0/solid-os/rtos/toppers_asp3/lib/armv7aLaiv/CT__\libkernel.a(mutex.o)
                0xf8068080                _kernel_initialize_mutex
                0xf806814c                _kernel_mutex_check_ceilpri
                0xf8068278                _kernel_mutex_scan_ceilmtx
                0xf806830c                _kernel_mutex_release_all
                0xf8068394                mutex_calc_priority
                0xf806844c                _kernel_mutex_drop_priority
                0xf80684ec                _kernel_mutex_acquire
                0xf80685e8                _kernel_mutex_release
                0xf8068928                loc_mtx
                0xf8068c44                ploc_mtx
                0xf8068e24                tloc_mtx
                0xf80690fc                unl_mtx
                0xf8069270                ini_mtx
                0xf80693ac                ref_mtx
 .text          0xf8069568     0x16cc C:/ProgramData/KMC/SOLID/SDK/2.0/solid-os/rtos/toppers_asp3/lib/armv7aLaiv/CT__\libkernel.a(pridataq.o)
                0xf8069580                _kernel_initialize_pridataq
                0xf80697f8                _kernel_enqueue_pridata
                0xf8069920                _kernel_dequeue_pridata
                0xf80699bc                _kernel_send_pridata
                0xf8069bbc                _kernel_receive_pridata
                0xf8069ce8                snd_pdq
                0xf8069f24                psnd_pdq
                0xf806a0a0                tsnd_pdq
                0xf806a31c                rcv_pdq
                0xf806a5cc                prcv_pdq
                0xf806a700                trcv_pdq
                0xf806a988                ini_pdq
                0xf806aab0                ref_pdq
 .text          0xf806ac34      0x68c C:/ProgramData/KMC/SOLID/SDK/2.0/solid-os/rtos/toppers_asp3/lib/armv7aLaiv/CT__\libkernel.a(task_refer.o)
                0xf806ac4c                ref_tsk
 .text          0xf806b2c0      0xe70 C:/ProgramData/KMC/SOLID/SDK/2.0/solid-os/rtos/toppers_asp3/lib/armv7aLaiv/CT__\libkernel.a(task_sync.o)
                0xf806b2d8                slp_tsk
                0xf806b488                tslp_tsk
                0xf806b62c                wup_tsk
                0xf806b7e8                can_wup
                0xf806b910                rel_wai
                0xf806bb88                sus_tsk
                0xf806bdac                rsm_tsk
                0xf806bf18                dly_tsk
 .text          0xf806c130      0x724 C:/ProgramData/KMC/SOLID/SDK/2.0/solid-os/rtos/toppers_asp3/lib/armv7aLaiv/CT__\libkernel.a(task_term.o)
                0xf806c148                ext_tsk
                0xf806c280                ras_ter
                0xf806c52c                dis_ter
                0xf806c5a0                ena_ter
                0xf806c664                sns_ter
                0xf806c6c0                ter_tsk
 .text          0xf806c854      0x410 C:/ProgramData/KMC/SOLID/SDK/2.0/solid-os/rtos/toppers_asp3/lib/armv7aLaiv/CT__\libkernel.a(time_manage.o)
                0xf806c86c                set_tim
                0xf806c950                get_tim
                0xf806c9ec                adj_tim
                0xf806cb7c                fch_hrt
 .text          0xf806cc64      0x790 C:/ProgramData/KMC/SOLID/SDK/2.0/solid-os/rtos/toppers_asp3/lib/armv7aLaiv/CT__\libkernel.a(log_output.o)
                0xf806cc64                syslog_printf
                0xf806d2f0                syslog_print
                0xf806d384                syslog_lostmsg
 .text          0xf806d3f4       0x98 C:/Users/admin/Documents/SOLID-IDE/Projects/lwip_server/Debug_tasan/exeClang_SOLID/\libbsp.a(impl_cs_event.o)
                0xf806d3f4                IMPL_CS_EventNotify
 .text.asan.module_ctor
                0xf806d48c       0x10 C:/Users/admin/Documents/SOLID-IDE/Projects/lwip_server/Debug_tasan/exeClang_SOLID/\libbsp.a(impl_cs_event.o)
 .text          0xf806d49c      0xd7c C:/Users/admin/Documents/SOLID-IDE/Projects/lwip_server/Debug_tasan/exeClang_SOLID/\libbsp.a(impl_dmac.o)
                0xf806d49c                IMPL_DMAC_Init
                0xf806d600                IMPL_DMAC_Use
                0xf806d844                IMPL_DMAC_UnUse
                0xf806d8bc                IMPL_DMAC_StartTransfer
                0xf806df8c                IMPL_DMAC_AbortTransfer
                0xf806e0e0                IMPL_DMAC_GetConfigIdx
 .text          0xf806e218       0x94 C:/Users/admin/Documents/SOLID-IDE/Projects/lwip_server/Debug_tasan/exeClang_SOLID/\libbsp.a(impl_iores.o)
                0xf806e218                IMPL_IORES_GetConfig
 .text          0xf806e2ac      0x3dc C:/Users/admin/Documents/SOLID-IDE/Projects/lwip_server/Debug_tasan/exeClang_SOLID/\libbsp.a(impl_log.o)
                0xf806e2ac                IMPL_LOG_Init
                0xf806e5a4                IMPL_LOG_Putc
 .text          0xf806e688     0x2c00 C:/Users/admin/Documents/SOLID-IDE/Projects/lwip_server/Debug_tasan/exeClang_SOLID/\libbsp.a(impl_net_dev_ether.o)
                0xf806e688                IMPL_NET_DEV_init
 .text          0xf8071288      0xdfc C:/Users/admin/Documents/SOLID-IDE/Projects/lwip_server/Debug_tasan/exeClang_SOLID/\libbsp.a(impl_net_dev_get_macaddr.o)
                0xf8071288                IMPL_NET_DEV_get_macaddr
 .text          0xf8072084       0x44 C:/Users/admin/Documents/SOLID-IDE/Projects/lwip_server/Debug_tasan/exeClang_SOLID/\libbsp.a(impl_net_dev_getconfig.o)
                0xf8072084                IMPL_NET_DEV_get_netconfig
 .text          0xf80720c8      0x6a4 C:/Users/admin/Documents/SOLID-IDE/Projects/lwip_server/Debug_tasan/exeClang_SOLID/\libbsp.a(impl_rtc.o)
                0xf80720c8                IMPL_RTC_Init
                0xf807219c                IMPL_RTC_ReadTime
                0xf807246c                IMPL_RTC_SetTime
 .text          0xf807276c      0x478 C:/Users/admin/Documents/SOLID-IDE/Projects/lwip_server/Debug_tasan/exeClang_SOLID/\libbsp.a(impl_timer.o)
                0xf807276c                IMPL_TIMER_Init
                0xf807287c                IMPL_TIMER_GetTimerTick
                0xf80728b8                IMPL_TIMER_SetTimer
                0xf807295c                IMPL_TIMER_ClearInterrupt
                0xf8072960                IMPL_TIMER_Suspend
                0xf807299c                IMPL_TIMER_Resume
                0xf80729d8                IMPL_GLOBAL_TICK_Init
                0xf8072afc                IMPL_GLOBAL_TICK_GetCurrent
                0xf8072b34                IMPL_GLOBAL_TICK_Suspend
                0xf8072b70                IMPL_GLOBAL_TICK_Resume
 .text          0xf8072be4     0x2a84 C:/Users/admin/Documents/SOLID-IDE/Projects/lwip_server/Debug_tasan/exeClang_SOLID/\libbsp.a(rtc.o)
                0xf8072be4                R_RTC_Init
                0xf8072c34                R_RTC_Open
                0xf8072d7c                R_RTC_Close
                0xf8072ebc                R_RTC_SetCnt
                0xf8073d28                R_RTC_GetCnt
                0xf80745b8                R_RTC_SetAlarm
                0xf8074ee8                R_RTC_GetAlarm
 .text          0xf8075668      0x45c C:/Users/admin/Documents/SOLID-IDE/Projects/lwip_server/Debug_tasan/exeClang_SOLID/\libbsp.a(rtc_userdef.o)
                0xf8075668                Userdef_RTC_Init
 .text          0xf8075ac4      0x208 C:/Users/admin/Documents/SOLID-IDE/Projects/lwip_server/Debug_tasan/exeClang_SOLID/\libbsp.a(bsp_globals.o)
                0xf8075ac4                IMPL_SYSTEM_IO_Initialize
 .text          0xf8075ccc      0x6cc C:/Users/admin/Documents/SOLID-IDE/Projects/lwip_server/Debug_tasan/exeClang_SOLID/\libbsp.a(rza_io_regrw.o)
                0xf8075ccc                RZA_IO_RegWrite_8
                0xf8075e04                RZA_IO_RegWrite_16
                0xf8075f3c                RZA_IO_RegWrite_32
                0xf8076074                RZA_IO_RegRead_8
                0xf8076180                RZA_IO_RegRead_16
                0xf807628c                RZA_IO_RegRead_32
 .text          0xf8076398        0x0 C:/GCC4/ARM/s002/lib/armv7aLaiv\libstdc++.a(class_type_info.o)
 .text._ZNK10__cxxabiv117__class_type_info11__do_upcastEPKS0_PPv
                0xf8076398       0x5c C:/GCC4/ARM/s002/lib/armv7aLaiv\libstdc++.a(class_type_info.o)
                0xf8076398                _ZNK10__cxxabiv117__class_type_info11__do_upcastEPKS0_PPv
 .text._ZNK10__cxxabiv117__class_type_info20__do_find_public_srcEiPKvPKS0_S2_
                0xf80763f4       0x14 C:/GCC4/ARM/s002/lib/armv7aLaiv\libstdc++.a(class_type_info.o)
                0xf80763f4                _ZNK10__cxxabiv117__class_type_info20__do_find_public_srcEiPKvPKS0_S2_
 .text._ZN10__cxxabiv117__class_type_infoD2Ev
                0xf8076408       0x20 C:/GCC4/ARM/s002/lib/armv7aLaiv\libstdc++.a(class_type_info.o)
                0xf8076408                _ZN10__cxxabiv117__class_type_infoD2Ev
                0xf8076408                _ZN10__cxxabiv117__class_type_infoD1Ev
 .text._ZN10__cxxabiv117__class_type_infoD0Ev
                0xf8076428       0x2c C:/GCC4/ARM/s002/lib/armv7aLaiv\libstdc++.a(class_type_info.o)
                0xf8076428                _ZN10__cxxabiv117__class_type_infoD0Ev
 .text._ZNK10__cxxabiv117__class_type_info11__do_upcastEPKS0_PKvRNS0_15__upcast_resultE
                0xf8076454       0x2c C:/GCC4/ARM/s002/lib/armv7aLaiv\libstdc++.a(class_type_info.o)
                0xf8076454                _ZNK10__cxxabiv117__class_type_info11__do_upcastEPKS0_PKvRNS0_15__upcast_resultE
 .text._ZNK10__cxxabiv117__class_type_info10__do_catchEPKSt9type_infoPPvj
                0xf8076480       0x44 C:/GCC4/ARM/s002/lib/armv7aLaiv\libstdc++.a(class_type_info.o)
                0xf8076480                _ZNK10__cxxabiv117__class_type_info10__do_catchEPKSt9type_infoPPvj
 .text._ZNK10__cxxabiv117__class_type_info12__do_dyncastEiNS0_10__sub_kindEPKS0_PKvS3_S5_RNS0_16__dyncast_resultE
                0xf80764c4       0x78 C:/GCC4/ARM/s002/lib/armv7aLaiv\libstdc++.a(class_type_info.o)
                0xf80764c4                _ZNK10__cxxabiv117__class_type_info12__do_dyncastEiNS0_10__sub_kindEPKS0_PKvS3_S5_RNS0_16__dyncast_resultE
 .text          0xf807653c        0x0 C:/GCC4/ARM/s002/lib/armv7aLaiv\libstdc++.a(new_handler.o)
 .text._ZSt15set_new_handlerPFvvE
                0xf807653c       0x28 C:/GCC4/ARM/s002/lib/armv7aLaiv\libstdc++.a(new_handler.o)
                0xf807653c                _ZSt15set_new_handlerPFvvE
 .text._ZSt15get_new_handlerv
                0xf8076564       0x14 C:/GCC4/ARM/s002/lib/armv7aLaiv\libstdc++.a(new_handler.o)
                0xf8076564                _ZSt15get_new_handlerv
 .text          0xf8076578        0x0 C:/GCC4/ARM/s002/lib/armv7aLaiv\libstdc++.a(del_ops.o)
 .text._ZdlPvj  0xf8076578        0x4 C:/GCC4/ARM/s002/lib/armv7aLaiv\libstdc++.a(del_ops.o)
                0xf8076578                _ZdlPvj
 .text          0xf807657c        0x0 C:/GCC4/ARM/s002/lib/armv7aLaiv\libstdc++.a(si_class_type_info.o)
 .text._ZN10__cxxabiv120__si_class_type_infoD2Ev
                0xf807657c       0x20 C:/GCC4/ARM/s002/lib/armv7aLaiv\libstdc++.a(si_class_type_info.o)
                0xf807657c                _ZN10__cxxabiv120__si_class_type_infoD1Ev
                0xf807657c                _ZN10__cxxabiv120__si_class_type_infoD2Ev
 .text._ZN10__cxxabiv120__si_class_type_infoD0Ev
                0xf807659c       0x2c C:/GCC4/ARM/s002/lib/armv7aLaiv\libstdc++.a(si_class_type_info.o)
                0xf807659c                _ZN10__cxxabiv120__si_class_type_infoD0Ev
 .text._ZNK10__cxxabiv120__si_class_type_info20__do_find_public_srcEiPKvPKNS_17__class_type_infoES2_
                0xf80765c8       0x6c C:/GCC4/ARM/s002/lib/armv7aLaiv\libstdc++.a(si_class_type_info.o)
                0xf80765c8                _ZNK10__cxxabiv120__si_class_type_info20__do_find_public_srcEiPKvPKNS_17__class_type_infoES2_
 .text._ZNK10__cxxabiv120__si_class_type_info12__do_dyncastEiNS_17__class_type_info10__sub_kindEPKS1_PKvS4_S6_RNS1_16__dyncast_resultE
                0xf8076634       0xe0 C:/GCC4/ARM/s002/lib/armv7aLaiv\libstdc++.a(si_class_type_info.o)
                0xf8076634                _ZNK10__cxxabiv120__si_class_type_info12__do_dyncastEiNS_17__class_type_info10__sub_kindEPKS1_PKvS4_S6_RNS1_16__dyncast_resultE
 .text._ZNK10__cxxabiv120__si_class_type_info11__do_upcastEPKNS_17__class_type_infoEPKvRNS1_15__upcast_resultE
                0xf8076714       0x44 C:/GCC4/ARM/s002/lib/armv7aLaiv\libstdc++.a(si_class_type_info.o)
                0xf8076714                _ZNK10__cxxabiv120__si_class_type_info11__do_upcastEPKNS_17__class_type_infoEPKvRNS1_15__upcast_resultE
 .text          0xf8076758        0x0 C:/GCC4/ARM/s002/lib/armv7aLaiv\libstdc++.a(del_op.o)
 .text._ZdlPv   0xf8076758        0x4 C:/GCC4/ARM/s002/lib/armv7aLaiv\libstdc++.a(del_op.o)
                0xf8076758                _ZdlPv
 .text          0xf807675c        0x0 C:/GCC4/ARM/s002/lib/armv7aLaiv\libstdc++.a(tinfo.o)
 .text._ZNSt9type_infoD2Ev
                0xf807675c        0x4 C:/GCC4/ARM/s002/lib/armv7aLaiv\libstdc++.a(tinfo.o)
                0xf807675c                _ZNSt9type_infoD2Ev
                0xf807675c                _ZNSt9type_infoD1Ev
 .text._ZNKSt9type_info15__is_function_pEv
                0xf8076760        0x8 C:/GCC4/ARM/s002/lib/armv7aLaiv\libstdc++.a(tinfo.o)
                0xf8076760                _ZNKSt9type_info14__is_pointer_pEv
                0xf8076760                _ZNKSt9type_info15__is_function_pEv
 .text._ZNKSt9type_info11__do_upcastEPKN10__cxxabiv117__class_type_infoEPPv
                0xf8076768        0x8 C:/GCC4/ARM/s002/lib/armv7aLaiv\libstdc++.a(tinfo.o)
                0xf8076768                _ZNKSt9type_info11__do_upcastEPKN10__cxxabiv117__class_type_infoEPPv
 .text._ZNSt9type_infoD0Ev
                0xf8076770       0x18 C:/GCC4/ARM/s002/lib/armv7aLaiv\libstdc++.a(tinfo.o)
                0xf8076770                _ZNSt9type_infoD0Ev
 .text._ZNKSt9type_infoeqERKS_
                0xf8076788       0x4c C:/GCC4/ARM/s002/lib/armv7aLaiv\libstdc++.a(tinfo.o)
                0xf8076788                _ZNKSt9type_infoeqERKS_
 .text._ZNKSt9type_info10__do_catchEPKS_PPvj
                0xf80767d4        0x4 C:/GCC4/ARM/s002/lib/armv7aLaiv\libstdc++.a(tinfo.o)
                0xf80767d4                _ZNKSt9type_info10__do_catchEPKS_PPvj
 .text          0xf80767d8      0x20c C:/GCC4/ARM/s002/lib/armv7aLaiv/libgcc.a(_udivsi3.o)
                0xf80767d8                __aeabi_uidiv
                0xf80767d8                __udivsi3
                0xf80769c4                __aeabi_uidivmod
 .text          0xf80769e4        0x4 C:/GCC4/ARM/s002/lib/armv7aLaiv/libgcc.a(_dvmd_tls.o)
                0xf80769e4                __aeabi_idiv0
                0xf80769e4                __aeabi_ldiv0
 .text          0xf80769e8       0x3c C:/GCC4/ARM/s002/lib/armv7aLaiv/libgcc.a(_aeabi_uldivmod.o)
                0xf80769e8                __aeabi_uldivmod
 .text          0xf8076a24        0x0 C:/GCC4/ARM/s002/lib/armv7aLaiv/libgcc.a(_udivmoddi4.o)
 .text.__udivmoddi4
                0xf8076a24      0x128 C:/GCC4/ARM/s002/lib/armv7aLaiv/libgcc.a(_udivmoddi4.o)
                0xf8076a24                __udivmoddi4
 .text          0xf8076b4c        0x0 C:/GCC4/ARM/s002/lib/armv7aLaiv/libgcc.a(unwind-arm.o)
 .text.selfrel_offset31
                0xf8076b4c       0x18 C:/GCC4/ARM/s002/lib/armv7aLaiv/libgcc.a(unwind-arm.o)
 .text.search_EIT_table
                0xf8076b64       0x8c C:/GCC4/ARM/s002/lib/armv7aLaiv/libgcc.a(unwind-arm.o)
 .text.__gnu_unwind_get_pr_addr
                0xf8076bf0       0x3c C:/GCC4/ARM/s002/lib/armv7aLaiv/libgcc.a(unwind-arm.o)
 .text.get_eit_entry
                0xf8076c2c      0x114 C:/GCC4/ARM/s002/lib/armv7aLaiv/libgcc.a(unwind-arm.o)
 .text.restore_non_core_regs
                0xf8076d40       0x88 C:/GCC4/ARM/s002/lib/armv7aLaiv/libgcc.a(unwind-arm.o)
 .text._Unwind_decode_typeinfo_ptr.isra.0
                0xf8076dc8       0x14 C:/GCC4/ARM/s002/lib/armv7aLaiv/libgcc.a(unwind-arm.o)
 .text.__gnu_unwind_24bit.isra.1
                0xf8076ddc        0x8 C:/GCC4/ARM/s002/lib/armv7aLaiv/libgcc.a(unwind-arm.o)
 .text._Unwind_DebugHook
                0xf8076de4        0x4 C:/GCC4/ARM/s002/lib/armv7aLaiv/libgcc.a(unwind-arm.o)
 .text.unwind_phase2
                0xf8076de8       0x68 C:/GCC4/ARM/s002/lib/armv7aLaiv/libgcc.a(unwind-arm.o)
 .text.unwind_phase2_forced
                0xf8076e50      0x160 C:/GCC4/ARM/s002/lib/armv7aLaiv/libgcc.a(unwind-arm.o)
 .text._Unwind_GetCFA
                0xf8076fb0        0x8 C:/GCC4/ARM/s002/lib/armv7aLaiv/libgcc.a(unwind-arm.o)
                0xf8076fb0                _Unwind_GetCFA
 .text.__gnu_Unwind_RaiseException
                0xf8076fb8       0xa8 C:/GCC4/ARM/s002/lib/armv7aLaiv/libgcc.a(unwind-arm.o)
                0xf8076fb8                __gnu_Unwind_RaiseException
 .text.__gnu_Unwind_ForcedUnwind
                0xf8077060       0x24 C:/GCC4/ARM/s002/lib/armv7aLaiv/libgcc.a(unwind-arm.o)
                0xf8077060                __gnu_Unwind_ForcedUnwind
 .text.__gnu_Unwind_Resume
                0xf8077084       0x74 C:/GCC4/ARM/s002/lib/armv7aLaiv/libgcc.a(unwind-arm.o)
                0xf8077084                __gnu_Unwind_Resume
 .text.__gnu_Unwind_Resume_or_Rethrow
                0xf80770f8       0x20 C:/GCC4/ARM/s002/lib/armv7aLaiv/libgcc.a(unwind-arm.o)
                0xf80770f8                __gnu_Unwind_Resume_or_Rethrow
 .text._Unwind_Complete
                0xf8077118        0x4 C:/GCC4/ARM/s002/lib/armv7aLaiv/libgcc.a(unwind-arm.o)
                0xf8077118                _Unwind_Complete
 .text._Unwind_DeleteException
                0xf807711c       0x18 C:/GCC4/ARM/s002/lib/armv7aLaiv/libgcc.a(unwind-arm.o)
                0xf807711c                _Unwind_DeleteException
 .text._Unwind_VRS_Get
                0xf8077134       0x5c C:/GCC4/ARM/s002/lib/armv7aLaiv/libgcc.a(unwind-arm.o)
                0xf8077134                _Unwind_VRS_Get
 .text._Unwind_GetGR
                0xf8077190       0x2c C:/GCC4/ARM/s002/lib/armv7aLaiv/libgcc.a(unwind-arm.o)
 .text._Unwind_VRS_Set
                0xf80771bc       0x5c C:/GCC4/ARM/s002/lib/armv7aLaiv/libgcc.a(unwind-arm.o)
                0xf80771bc                _Unwind_VRS_Set
 .text._Unwind_SetGR
                0xf8077218       0x2c C:/GCC4/ARM/s002/lib/armv7aLaiv/libgcc.a(unwind-arm.o)
 .text.__gnu_Unwind_Backtrace
                0xf8077244       0xc0 C:/GCC4/ARM/s002/lib/armv7aLaiv/libgcc.a(unwind-arm.o)
                0xf8077244                __gnu_Unwind_Backtrace
 .text.__gnu_unwind_pr_common
                0xf8077304      0x474 C:/GCC4/ARM/s002/lib/armv7aLaiv/libgcc.a(unwind-arm.o)
 .text.__aeabi_unwind_cpp_pr0
                0xf8077778        0x8 C:/GCC4/ARM/s002/lib/armv7aLaiv/libgcc.a(unwind-arm.o)
                0xf8077778                __aeabi_unwind_cpp_pr0
 .text.__aeabi_unwind_cpp_pr1
                0xf8077780        0x8 C:/GCC4/ARM/s002/lib/armv7aLaiv/libgcc.a(unwind-arm.o)
                0xf8077780                __aeabi_unwind_cpp_pr1
 .text.__aeabi_unwind_cpp_pr2
                0xf8077788        0x8 C:/GCC4/ARM/s002/lib/armv7aLaiv/libgcc.a(unwind-arm.o)
                0xf8077788                __aeabi_unwind_cpp_pr2
 .text._Unwind_VRS_Pop
                0xf8077790      0x3d0 C:/GCC4/ARM/s002/lib/armv7aLaiv/libgcc.a(unwind-arm.o)
                0xf8077790                _Unwind_VRS_Pop
 .text          0xf8077b60      0x1a8 C:/GCC4/ARM/s002/lib/armv7aLaiv/libgcc.a(libunwind.o)
                0xf8077b60                __restore_core_regs
                0xf8077b60                restore_core_regs
                0xf8077b74                __gnu_Unwind_Restore_VFP
                0xf8077b7c                __gnu_Unwind_Save_VFP
                0xf8077b84                __gnu_Unwind_Restore_VFP_D
                0xf8077b8c                __gnu_Unwind_Save_VFP_D
                0xf8077b94                __gnu_Unwind_Restore_VFP_D_16_to_31
                0xf8077b9c                __gnu_Unwind_Save_VFP_D_16_to_31
                0xf8077ba4                __gnu_Unwind_Restore_WMMXD
                0xf8077be8                __gnu_Unwind_Save_WMMXD
                0xf8077c2c                __gnu_Unwind_Restore_WMMXC
                0xf8077c40                __gnu_Unwind_Save_WMMXC
                0xf8077c54                ___Unwind_RaiseException
                0xf8077c54                _Unwind_RaiseException
                0xf8077c78                _Unwind_Resume
                0xf8077c78                ___Unwind_Resume
                0xf8077c9c                _Unwind_Resume_or_Rethrow
                0xf8077c9c                ___Unwind_Resume_or_Rethrow
                0xf8077cc0                _Unwind_ForcedUnwind
                0xf8077cc0                ___Unwind_ForcedUnwind
                0xf8077ce4                ___Unwind_Backtrace
                0xf8077ce4                _Unwind_Backtrace
 .text          0xf8077d08        0x0 C:/GCC4/ARM/s002/lib/armv7aLaiv/libgcc.a(pr-support.o)
 .text.next_unwind_byte
                0xf8077d08       0x64 C:/GCC4/ARM/s002/lib/armv7aLaiv/libgcc.a(pr-support.o)
 .text._Unwind_GetGR.constprop.0
                0xf8077d6c       0x2c C:/GCC4/ARM/s002/lib/armv7aLaiv/libgcc.a(pr-support.o)
 .text.unwind_UCB_from_context
                0xf8077d98        0x4 C:/GCC4/ARM/s002/lib/armv7aLaiv/libgcc.a(pr-support.o)
 .text.__gnu_unwind_execute
                0xf8077d9c      0x404 C:/GCC4/ARM/s002/lib/armv7aLaiv/libgcc.a(pr-support.o)
                0xf8077d9c                __gnu_unwind_execute
 .text.__gnu_unwind_frame
                0xf80781a0       0x40 C:/GCC4/ARM/s002/lib/armv7aLaiv/libgcc.a(pr-support.o)
                0xf80781a0                __gnu_unwind_frame
 .text._Unwind_GetRegionStart
                0xf80781e0       0x10 C:/GCC4/ARM/s002/lib/armv7aLaiv/libgcc.a(pr-support.o)
                0xf80781e0                _Unwind_GetRegionStart
 .text._Unwind_GetLanguageSpecificData
                0xf80781f0       0x1c C:/GCC4/ARM/s002/lib/armv7aLaiv/libgcc.a(pr-support.o)
                0xf80781f0                _Unwind_GetLanguageSpecificData
 .text._Unwind_GetTextRelBase
                0xf807820c        0x8 C:/GCC4/ARM/s002/lib/armv7aLaiv/libgcc.a(pr-support.o)
                0xf807820c                _Unwind_GetTextRelBase
 .text._Unwind_GetDataRelBase
                0xf8078214        0x8 C:/GCC4/ARM/s002/lib/armv7aLaiv/libgcc.a(pr-support.o)
                0xf8078214                _Unwind_GetDataRelBase
 .text          0xf807821c        0x0 C:/GCC4/ARM/s002/lib/armv7aLaiv/libc.a(_m_init.o)
 .text._m_init  0xf807821c       0x68 C:/GCC4/ARM/s002/lib/armv7aLaiv/libc.a(_m_init.o)
                0xf807821c                _m_init
 .text.startup  0xf8078284       0x34 C:/GCC4/ARM/s002/lib/armv7aLaiv/libc.a(_m_init.o)
                0xf8078284                _libc_init
 .text.__kmc_get_current_mspace
                0xf80782b8       0x10 C:/GCC4/ARM/s002/lib/armv7aLaiv/libc.a(_m_init.o)
                0xf80782b8                __kmc_get_current_mspace
 .text.malloc   0xf80782c8       0x70 C:/GCC4/ARM/s002/lib/armv7aLaiv/libc.a(_m_init.o)
                0xf80782c8                malloc
 .text.free     0xf8078338       0x5c C:/GCC4/ARM/s002/lib/armv7aLaiv/libc.a(_m_init.o)
                0xf8078338                free
 .text.realloc  0xf8078394       0x78 C:/GCC4/ARM/s002/lib/armv7aLaiv/libc.a(_m_init.o)
                0xf8078394                realloc
 .text.calloc   0xf807840c       0x78 C:/GCC4/ARM/s002/lib/armv7aLaiv/libc.a(_m_init.o)
                0xf807840c                calloc
 .text.mallinfo
                0xf8078484       0x6c C:/GCC4/ARM/s002/lib/armv7aLaiv/libc.a(_m_init.o)
                0xf8078484                mallinfo
 .text.memalign
                0xf80784f0       0x78 C:/GCC4/ARM/s002/lib/armv7aLaiv/libc.a(_m_init.o)
                0xf80784f0                memalign
 .text.malloc_footprint
                0xf8078568       0x68 C:/GCC4/ARM/s002/lib/armv7aLaiv/libc.a(_m_init.o)
                0xf8078568                malloc_footprint
 .text.malloc_max_footprint
                0xf80785d0       0x68 C:/GCC4/ARM/s002/lib/armv7aLaiv/libc.a(_m_init.o)
                0xf80785d0                malloc_max_footprint
 .text.malloc_footprint_limit
                0xf8078638       0x68 C:/GCC4/ARM/s002/lib/armv7aLaiv/libc.a(_m_init.o)
                0xf8078638                malloc_footprint_limit
 .text.malloc_set_footprint_limit
                0xf80786a0       0x74 C:/GCC4/ARM/s002/lib/armv7aLaiv/libc.a(_m_init.o)
                0xf80786a0                malloc_set_footprint_limit
 .text          0xf8078714        0x0 C:/GCC4/ARM/s002/lib/armv7aLaiv/libc.a(abort.o)
 .text._abort   0xf8078714       0x28 C:/GCC4/ARM/s002/lib/armv7aLaiv/libc.a(abort.o)
                0xf8078714                _abort
 .text.abort    0xf807873c       0x14 C:/GCC4/ARM/s002/lib/armv7aLaiv/libc.a(abort.o)
                0xf807873c                abort
 .text          0xf8078750        0x0 C:/GCC4/ARM/s002/lib/armv7aLaiv/libc.a(errno.o)
 .text.__get_errno_addr
                0xf8078750        0xc C:/GCC4/ARM/s002/lib/armv7aLaiv/libc.a(errno.o)
                0xf8078750                __get_errno_addr
 .text.__get_vlink_errno_addr
                0xf807875c        0xc C:/GCC4/ARM/s002/lib/armv7aLaiv/libc.a(errno.o)
                0xf807875c                __get_vlink_errno_addr
 .text          0xf8078768        0x0 C:/GCC4/ARM/s002/lib/armv7aLaiv/libc.a(atoi.o)
 .text.atoi     0xf8078768        0xc C:/GCC4/ARM/s002/lib/armv7aLaiv/libc.a(atoi.o)
                0xf8078768                atoi
 .text          0xf8078774        0x0 C:/GCC4/ARM/s002/lib/armv7aLaiv/libc.a(rand.o)
 .text.rand     0xf8078774       0x28 C:/GCC4/ARM/s002/lib/armv7aLaiv/libc.a(rand.o)
                0xf8078774                rand
 .text.srand    0xf807879c       0x10 C:/GCC4/ARM/s002/lib/armv7aLaiv/libc.a(rand.o)
                0xf807879c                srand
 .text          0xf80787ac        0x0 C:/GCC4/ARM/s002/lib/armv7aLaiv/libc.a(strtol.o)
 .text._int_strtol_l
                0xf80787ac      0x2a4 C:/GCC4/ARM/s002/lib/armv7aLaiv/libc.a(strtol.o)
 .text.strtol   0xf8078a50        0xc C:/GCC4/ARM/s002/lib/armv7aLaiv/libc.a(strtol.o)
                0xf8078a50                strtol
 .text.strtol_l
                0xf8078a5c        0x4 C:/GCC4/ARM/s002/lib/armv7aLaiv/libc.a(strtol.o)
                0xf8078a5c                strtol_l
 .text          0xf8078a60        0x0 C:/GCC4/ARM/s002/lib/armv7aLaiv/libc.a(strtoul.o)
 .text._int_strtoul_l
                0xf8078a60      0x214 C:/GCC4/ARM/s002/lib/armv7aLaiv/libc.a(strtoul.o)
 .text.strtoul  0xf8078c74        0xc C:/GCC4/ARM/s002/lib/armv7aLaiv/libc.a(strtoul.o)
                0xf8078c74                strtoul
 .text.strtoul_l
                0xf8078c80        0x4 C:/GCC4/ARM/s002/lib/armv7aLaiv/libc.a(strtoul.o)
                0xf8078c80                strtoul_l
 .text          0xf8078c84        0x0 C:/GCC4/ARM/s002/lib/armv7aLaiv/libc.a(atexit.o)
 .text.startup  0xf8078c84       0x34 C:/GCC4/ARM/s002/lib/armv7aLaiv/libc.a(atexit.o)
                0xf8078c84                __libc_atexit_init
 .text.__cxa_atexit
                0xf8078cb8       0xc4 C:/GCC4/ARM/s002/lib/armv7aLaiv/libc.a(atexit.o)
                0xf8078cb8                __cxa_atexit
 .text.__cxa_finalize
                0xf8078d7c      0x178 C:/GCC4/ARM/s002/lib/armv7aLaiv/libc.a(atexit.o)
                0xf8078d7c                __cxa_finalize
 .text.atexit   0xf8078ef4        0xc C:/GCC4/ARM/s002/lib/armv7aLaiv/libc.a(atexit.o)
                0xf8078ef4                atexit
 .text          0xf8078f00       0xd0 C:/GCC4/ARM/s002/lib/armv7aLaiv/libc.a(memcmp.o)
                0xf8078f00                memcmp
                0xf8078f00                __aeabi_memcmp
 .text          0xf8078fd0      0x240 C:/GCC4/ARM/s002/lib/armv7aLaiv/libc.a(memcpy.o)
                0xf8078fd0                __aeabi_memcpy
                0xf8078fd0                __aeabi_memcpy4
                0xf8078fd0                __aeabi_memcpy8
                0xf8078fd0                memcpy
 .text          0xf8079210      0x4a4 C:/GCC4/ARM/s002/lib/armv7aLaiv/libc.a(memmove.o)
                0xf8079210                __aeabi_memmove8
                0xf8079210                __aeabi_memmove
                0xf8079210                __aeabi_memmove4
                0xf8079210                memmove
 .text          0xf80796b4      0x148 C:/GCC4/ARM/s002/lib/armv7aLaiv/libc.a(memset.o)
                0xf80796b4                __aeabi_memset4
                0xf80796b4                __aeabi_memset8
                0xf80796b4                __aeabi_memset
                0xf80796c4                __aeabi_memclr
                0xf80796c4                __aeabi_memclr4
                0xf80796c4                __aeabi_memclr8
                0xf80796d0                memset
 .text          0xf80797fc      0x140 C:/GCC4/ARM/s002/lib/armv7aLaiv/libc.a(strcpy.o)
                0xf80797fc                strcpy
 .text          0xf807993c      0x1e4 C:/GCC4/ARM/s002/lib/armv7aLaiv/libc.a(strncpy.o)
                0xf807993c                strncpy
 .text          0xf8079b20       0x1c C:/GCC4/ARM/s002/lib/armv7aLaiv/libc.a(strcmp.o)
                0xf8079b20                strcmp
 .text          0xf8079b3c       0x30 C:/GCC4/ARM/s002/lib/armv7aLaiv/libc.a(strncmp.o)
                0xf8079b3c                strncmp
 .text          0xf8079b6c       0x50 C:/GCC4/ARM/s002/lib/armv7aLaiv/libc.a(strlen.o)
                0xf8079b6c                strlen
 .text          0xf8079bbc        0x0 C:/GCC4/ARM/s002/lib/armv7aLaiv/libc.a(isctype.o)
 .text.isalnum  0xf8079bbc       0x1c C:/GCC4/ARM/s002/lib/armv7aLaiv/libc.a(isctype.o)
                0xf8079bbc                isalnum
 .text.isalnum_l
                0xf8079bd8       0x18 C:/GCC4/ARM/s002/lib/armv7aLaiv/libc.a(isctype.o)
                0xf8079bd8                isalnum_l
 .text.isalpha  0xf8079bf0       0x1c C:/GCC4/ARM/s002/lib/armv7aLaiv/libc.a(isctype.o)
                0xf8079bf0                isalpha
 .text.isalpha_l
                0xf8079c0c       0x18 C:/GCC4/ARM/s002/lib/armv7aLaiv/libc.a(isctype.o)
                0xf8079c0c                isalpha_l
 .text.isblank  0xf8079c24       0x1c C:/GCC4/ARM/s002/lib/armv7aLaiv/libc.a(isctype.o)
                0xf8079c24                isblank
 .text.isblank_l
                0xf8079c40       0x18 C:/GCC4/ARM/s002/lib/armv7aLaiv/libc.a(isctype.o)
                0xf8079c40                isblank_l
 .text.iscntrl  0xf8079c58       0x1c C:/GCC4/ARM/s002/lib/armv7aLaiv/libc.a(isctype.o)
                0xf8079c58                iscntrl
 .text.iscntrl_l
                0xf8079c74       0x18 C:/GCC4/ARM/s002/lib/armv7aLaiv/libc.a(isctype.o)
                0xf8079c74                iscntrl_l
 .text.isdigit  0xf8079c8c       0x1c C:/GCC4/ARM/s002/lib/armv7aLaiv/libc.a(isctype.o)
                0xf8079c8c                isdigit
 .text.isdigit_l
                0xf8079ca8       0x18 C:/GCC4/ARM/s002/lib/armv7aLaiv/libc.a(isctype.o)
                0xf8079ca8                isdigit_l
 .text.isgraph  0xf8079cc0       0x1c C:/GCC4/ARM/s002/lib/armv7aLaiv/libc.a(isctype.o)
                0xf8079cc0                isgraph
 .text.isgraph_l
                0xf8079cdc       0x18 C:/GCC4/ARM/s002/lib/armv7aLaiv/libc.a(isctype.o)
                0xf8079cdc                isgraph_l
 .text.islower  0xf8079cf4       0x1c C:/GCC4/ARM/s002/lib/armv7aLaiv/libc.a(isctype.o)
                0xf8079cf4                islower
 .text.islower_l
                0xf8079d10       0x18 C:/GCC4/ARM/s002/lib/armv7aLaiv/libc.a(isctype.o)
                0xf8079d10                islower_l
 .text.isprint  0xf8079d28       0x1c C:/GCC4/ARM/s002/lib/armv7aLaiv/libc.a(isctype.o)
                0xf8079d28                isprint
 .text.isprint_l
                0xf8079d44       0x18 C:/GCC4/ARM/s002/lib/armv7aLaiv/libc.a(isctype.o)
                0xf8079d44                isprint_l
 .text.ispunct  0xf8079d5c       0x1c C:/GCC4/ARM/s002/lib/armv7aLaiv/libc.a(isctype.o)
                0xf8079d5c                ispunct
 .text.ispunct_l
                0xf8079d78       0x18 C:/GCC4/ARM/s002/lib/armv7aLaiv/libc.a(isctype.o)
                0xf8079d78                ispunct_l
 .text.isspace  0xf8079d90       0x1c C:/GCC4/ARM/s002/lib/armv7aLaiv/libc.a(isctype.o)
                0xf8079d90                isspace
 .text.isspace_l
                0xf8079dac       0x18 C:/GCC4/ARM/s002/lib/armv7aLaiv/libc.a(isctype.o)
                0xf8079dac                isspace_l
 .text.isupper  0xf8079dc4       0x1c C:/GCC4/ARM/s002/lib/armv7aLaiv/libc.a(isctype.o)
                0xf8079dc4                isupper
 .text.isupper_l
                0xf8079de0       0x18 C:/GCC4/ARM/s002/lib/armv7aLaiv/libc.a(isctype.o)
                0xf8079de0                isupper_l
 .text.isxdigit
                0xf8079df8       0x1c C:/GCC4/ARM/s002/lib/armv7aLaiv/libc.a(isctype.o)
                0xf8079df8                isxdigit
 .text.isxdigit_l
                0xf8079e14       0x18 C:/GCC4/ARM/s002/lib/armv7aLaiv/libc.a(isctype.o)
                0xf8079e14                isxdigit_l
 .text.toupper  0xf8079e2c       0x18 C:/GCC4/ARM/s002/lib/armv7aLaiv/libc.a(isctype.o)
                0xf8079e2c                toupper
 .text.toupper_l
                0xf8079e44       0x14 C:/GCC4/ARM/s002/lib/armv7aLaiv/libc.a(isctype.o)
                0xf8079e44                toupper_l
 .text.tolower  0xf8079e58       0x18 C:/GCC4/ARM/s002/lib/armv7aLaiv/libc.a(isctype.o)
                0xf8079e58                tolower
 .text.tolower_l
                0xf8079e70       0x14 C:/GCC4/ARM/s002/lib/armv7aLaiv/libc.a(isctype.o)
                0xf8079e70                tolower_l
 .text._toupper
                0xf8079e84        0x8 C:/GCC4/ARM/s002/lib/armv7aLaiv/libc.a(isctype.o)
                0xf8079e84                _toupper
 .text._tolower
                0xf8079e8c        0x8 C:/GCC4/ARM/s002/lib/armv7aLaiv/libc.a(isctype.o)
                0xf8079e8c                _tolower
 .text          0xf8079e94        0x0 C:/GCC4/ARM/s002/lib/armv7aLaiv/libc.a(global_locale.o)
 .text          0xf8079e94        0x0 C:/GCC4/ARM/s002/lib/armv7aLaiv/libc.a(runetable.o)
 .text          0xf8079e94        0x0 C:/GCC4/ARM/s002/lib/armv7aLaiv/libc.a(thread-stub-init.o)
 .text.startup  0xf8079e94        0x4 C:/GCC4/ARM/s002/lib/armv7aLaiv/libc.a(thread-stub-init.o)
                0xf8079e94                __libc_thr_init
                0xf8079e94                __libc_thr_init_stub
 .text.__libc_thr_errno_stub
                0xf8079e98       0x14 C:/GCC4/ARM/s002/lib/armv7aLaiv/libc.a(thread-stub-init.o)
                0xf8079e98                __libc_thr_errno_stub
                0xf8079e98                __libc_thr_errno
 .text          0xf8079eac        0x0 C:/GCC4/ARM/s002/lib/armv7aLaiv/libc.a(thread-stub.o)
 .text.__libc_pthread_join
                0xf8079eac       0x1c C:/GCC4/ARM/s002/lib/armv7aLaiv/libc.a(thread-stub.o)
                0xf8079eac                pthread_join
                0xf8079eac                __libc_pthread_join
 .text.__libc_pthread_detach
                0xf8079ec8       0x1c C:/GCC4/ARM/s002/lib/armv7aLaiv/libc.a(thread-stub.o)
                0xf8079ec8                pthread_detach
                0xf8079ec8                __libc_pthread_detach
 .text.__libc_mutexattr_settype_stub
                0xf8079ee4        0x8 C:/GCC4/ARM/s002/lib/armv7aLaiv/libc.a(thread-stub.o)
                0xf8079ee4                __libc_mutexattr_settype
                0xf8079ee4                __libc_mutexattr_settype_stub
 .text.__libc_cond_timedwait_stub
                0xf8079eec       0x30 C:/GCC4/ARM/s002/lib/armv7aLaiv/libc.a(thread-stub.o)
                0xf8079eec                __libc_cond_timedwait_stub
                0xf8079eec                __libc_cond_timedwait
 .text.__libc_rwlock_init_stub
                0xf8079f1c       0x30 C:/GCC4/ARM/s002/lib/armv7aLaiv/libc.a(thread-stub.o)
                0xf8079f1c                __libc_rwlock_init_stub
                0xf8079f1c                __libc_rwlock_init
 .text.__libc_cond_wait_stub
                0xf8079f4c        0x4 C:/GCC4/ARM/s002/lib/armv7aLaiv/libc.a(thread-stub.o)
                0xf8079f4c                __libc_cond_wait_stub
 .text.__libc_cond_init_stub
                0xf8079f50        0x4 C:/GCC4/ARM/s002/lib/armv7aLaiv/libc.a(thread-stub.o)
                0xf8079f50                __libc_cond_init_stub
                0xf8079f50                __libc_cond_init
 .text.__libc_mutex_init_stub
                0xf8079f54        0x4 C:/GCC4/ARM/s002/lib/armv7aLaiv/libc.a(thread-stub.o)
                0xf8079f54                __libc_mutex_init_stub
                0xf8079f54                __libc_mutex_init
 .text.__libc_rwlock_catchall_stub
                0xf8079f58       0x30 C:/GCC4/ARM/s002/lib/armv7aLaiv/libc.a(thread-stub.o)
                0xf8079f58                __libc_rwlock_unlock_stub
                0xf8079f58                __libc_rwlock_destroy_stub
                0xf8079f58                __libc_rwlock_destroy
                0xf8079f58                __libc_rwlock_tryrdlock_stub
                0xf8079f58                __libc_rwlock_wrlock_stub
                0xf8079f58                __libc_rwlock_wrlock
                0xf8079f58                __libc_rwlock_trywrlock
                0xf8079f58                __libc_rwlock_tryrdlock
                0xf8079f58                __libc_rwlock_rdlock
                0xf8079f58                __libc_rwlock_catchall_stub
                0xf8079f58                __libc_rwlock_rdlock_stub
                0xf8079f58                __libc_rwlock_unlock
                0xf8079f58                __libc_rwlock_trywrlock_stub
 .text.__libc_cond_catchall_stub
                0xf8079f88        0x4 C:/GCC4/ARM/s002/lib/armv7aLaiv/libc.a(thread-stub.o)
                0xf8079f88                __libc_cond_destroy
                0xf8079f88                __libc_cond_destroy_stub
                0xf8079f88                __libc_cond_catchall_stub
                0xf8079f88                __libc_cond_broadcast
                0xf8079f88                __libc_cond_broadcast_stub
                0xf8079f88                __libc_cond_signal_stub
                0xf8079f88                __libc_cond_signal
                0xf8079f88                __libc_cond_wait
 .text.__libc_mutexattr_catchall_stub
                0xf8079f8c        0x4 C:/GCC4/ARM/s002/lib/armv7aLaiv/libc.a(thread-stub.o)
                0xf8079f8c                __libc_mutexattr_init
                0xf8079f8c                __libc_mutexattr_init_stub
                0xf8079f8c                __libc_mutexattr_destroy
                0xf8079f8c                __libc_mutexattr_catchall_stub
                0xf8079f8c                __libc_mutexattr_destroy_stub
 .text.__libc_mutex_catchall_stub
                0xf8079f90        0x4 C:/GCC4/ARM/s002/lib/armv7aLaiv/libc.a(thread-stub.o)
                0xf8079f90                __libc_mutex_catchall_stub
                0xf8079f90                __libc_mutex_unlock_stub
                0xf8079f90                __libc_mutex_destroy_stub
                0xf8079f90                __libc_mutex_lock_stub
                0xf8079f90                __libc_mutex_lock
                0xf8079f90                __libc_mutex_trylock
                0xf8079f90                __libc_mutex_trylock_stub
                0xf8079f90                __libc_mutex_unlock
                0xf8079f90                __libc_mutex_destroy
 .text.__libc_thr_keycreate_stub
                0xf8079f94      0x100 C:/GCC4/ARM/s002/lib/armv7aLaiv/libc.a(thread-stub.o)
                0xf8079f94                __libc_thr_keycreate
                0xf8079f94                __libc_thr_keycreate_stub
 .text.__libc_thr_setspecific_stub
                0xf807a094       0x1c C:/GCC4/ARM/s002/lib/armv7aLaiv/libc.a(thread-stub.o)
                0xf807a094                __libc_thr_setspecific
                0xf807a094                __libc_thr_setspecific_stub
 .text.__libc_thr_getspecific_stub
                0xf807a0b0       0x18 C:/GCC4/ARM/s002/lib/armv7aLaiv/libc.a(thread-stub.o)
                0xf807a0b0                __libc_thr_getspecific
                0xf807a0b0                __libc_thr_getspecific_stub
 .text.__libc_thr_keydelete_stub
                0xf807a0c8       0x20 C:/GCC4/ARM/s002/lib/armv7aLaiv/libc.a(thread-stub.o)
                0xf807a0c8                __libc_thr_keydelete
                0xf807a0c8                __libc_thr_keydelete_stub
 .text.__libc_thr_once_stub
                0xf807a0e8       0x30 C:/GCC4/ARM/s002/lib/armv7aLaiv/libc.a(thread-stub.o)
                0xf807a0e8                __libc_thr_once
                0xf807a0e8                __libc_thr_once_stub
 .text.__libc_thr_sigsetmask_stub
                0xf807a118       0x30 C:/GCC4/ARM/s002/lib/armv7aLaiv/libc.a(thread-stub.o)
                0xf807a118                __libc_thr_sigsetmask
                0xf807a118                __libc_thr_sigsetmask_stub
 .text.__libc_thr_self_stub
                0xf807a148        0x8 C:/GCC4/ARM/s002/lib/armv7aLaiv/libc.a(thread-stub.o)
                0xf807a148                __libc_thr_self
                0xf807a148                __libc_thr_self_stub
 .text.__libc_thr_yield_stub
                0xf807a150        0x8 C:/GCC4/ARM/s002/lib/armv7aLaiv/libc.a(thread-stub.o)
                0xf807a150                __libc_thr_yield
                0xf807a150                __libc_thr_yield_stub
 .text.__libc_thr_create_stub
                0xf807a158       0x14 C:/GCC4/ARM/s002/lib/armv7aLaiv/libc.a(thread-stub.o)
                0xf807a158                __libc_thr_create_stub
                0xf807a158                __libc_thr_create
 .text.__libc_thr_exit_stub
                0xf807a16c        0xc C:/GCC4/ARM/s002/lib/armv7aLaiv/libc.a(thread-stub.o)
                0xf807a16c                __libc_thr_exit_stub
                0xf807a16c                __libc_thr_exit
 .text.__libc_thr_setcancelstate_stub
                0xf807a178       0x30 C:/GCC4/ARM/s002/lib/armv7aLaiv/libc.a(thread-stub.o)
                0xf807a178                __libc_thr_setcancelstate_stub
                0xf807a178                __libc_thr_setcancelstate
 .text.__libc_thr_equal_stub
                0xf807a1a8       0x10 C:/GCC4/ARM/s002/lib/armv7aLaiv/libc.a(thread-stub.o)
                0xf807a1a8                __libc_thr_equal_stub
                0xf807a1a8                __libc_thr_equal
 .text.__libc_thr_curcpu_stub
                0xf807a1b8        0x8 C:/GCC4/ARM/s002/lib/armv7aLaiv/libc.a(thread-stub.o)
                0xf807a1b8                __libc_thr_curcpu_stub
                0xf807a1b8                __libc_thr_curcpu
 .text          0xf807a1c0        0x0 C:/GCC4/ARM/s002/lib/armv7aLaiv/libc.a(ssp_init.o)
 .text.startup  0xf807a1c0       0x34 C:/GCC4/ARM/s002/lib/armv7aLaiv/libc.a(ssp_init.o)
                0xf807a1c0                __guard_setup
 .text          0xf807a1f4        0x0 C:/GCC4/ARM/s002/lib/armv7aLaiv/libc.a(findfp.o)
 .text._cleanup
                0xf807a1f4        0x8 C:/GCC4/ARM/s002/lib/armv7aLaiv/libc.a(findfp.o)
                0xf807a1f4                _cleanup
 .text.__sfpinit
                0xf807a1fc       0x58 C:/GCC4/ARM/s002/lib/armv7aLaiv/libc.a(findfp.o)
                0xf807a1fc                __sfpinit
 .text.__sinit  0xf807a254       0x90 C:/GCC4/ARM/s002/lib/armv7aLaiv/libc.a(findfp.o)
                0xf807a254                __sinit
 .text.__sfp    0xf807a2e4      0x140 C:/GCC4/ARM/s002/lib/armv7aLaiv/libc.a(findfp.o)
                0xf807a2e4                __sfp
 .text          0xf807a424        0x0 C:/GCC4/ARM/s002/lib/armv7aLaiv/libc.a(fprintf.o)
 .text.fprintf  0xf807a424       0x2c C:/GCC4/ARM/s002/lib/armv7aLaiv/libc.a(fprintf.o)
                0xf807a424                fprintf
 .text._fprintf_l
                0xf807a450       0x2c C:/GCC4/ARM/s002/lib/armv7aLaiv/libc.a(fprintf.o)
                0xf807a450                _fprintf_l
                0xf807a450                fprintf_l
 .text          0xf807a47c        0x0 C:/GCC4/ARM/s002/lib/armv7aLaiv/libc.a(stdio.o)
 .text.__sread  0xf807a47c       0x44 C:/GCC4/ARM/s002/lib/armv7aLaiv/libc.a(stdio.o)
                0xf807a47c                __sread
 .text.__swrite
                0xf807a4c0       0xa8 C:/GCC4/ARM/s002/lib/armv7aLaiv/libc.a(stdio.o)
                0xf807a4c0                __swrite
 .text.__sseek  0xf807a568       0x54 C:/GCC4/ARM/s002/lib/armv7aLaiv/libc.a(stdio.o)
                0xf807a568                __sseek
 .text.__sclose
                0xf807a5bc       0x10 C:/GCC4/ARM/s002/lib/armv7aLaiv/libc.a(stdio.o)
                0xf807a5bc                __sclose
 .text          0xf807a5cc        0x0 C:/GCC4/ARM/s002/lib/armv7aLaiv/libc.a(vfprintf.o)
 .text.__grow_type_table
                0xf807a5cc       0x9c C:/GCC4/ARM/s002/lib/armv7aLaiv/libc.a(vfprintf.o)
 .text.__find_arguments
                0xf807a668      0xe9c C:/GCC4/ARM/s002/lib/armv7aLaiv/libc.a(vfprintf.o)
 .text.__ultoa  0xf807b504      0x170 C:/GCC4/ARM/s002/lib/armv7aLaiv/libc.a(vfprintf.o)
 .text.__sprint.part.1
                0xf807b674       0x1c C:/GCC4/ARM/s002/lib/armv7aLaiv/libc.a(vfprintf.o)
 .text.__vfprintf_unlocked_l
                0xf807b690     0x367c C:/GCC4/ARM/s002/lib/armv7aLaiv/libc.a(vfprintf.o)
                0xf807b690                __vfprintf_unlocked_l
 .text.vfprintf
                0xf807ed0c       0x48 C:/GCC4/ARM/s002/lib/armv7aLaiv/libc.a(vfprintf.o)
                0xf807ed0c                vfprintf
 .text._vfprintf_l
                0xf807ed54       0x48 C:/GCC4/ARM/s002/lib/armv7aLaiv/libc.a(vfprintf.o)
                0xf807ed54                vfprintf_l
                0xf807ed54                _vfprintf_l
 .text          0xf807ed9c        0x0 C:/GCC4/ARM/s002/lib/armv7aLaiv/libc.a(vsnprintf.o)
 .text._vsnprintf_l
                0xf807ed9c       0xdc C:/GCC4/ARM/s002/lib/armv7aLaiv/libc.a(vsnprintf.o)
                0xf807ed9c                _vsnprintf_l
                0xf807ed9c                vsnprintf_l
 .text._vsnprintf
                0xf807ee78       0x24 C:/GCC4/ARM/s002/lib/armv7aLaiv/libc.a(vsnprintf.o)
                0xf807ee78                vsnprintf
                0xf807ee78                _vsnprintf
 .text._snprintf
                0xf807ee9c       0x38 C:/GCC4/ARM/s002/lib/armv7aLaiv/libc.a(vsnprintf.o)
                0xf807ee9c                _snprintf
                0xf807ee9c                snprintf
 .text._snprintf_l
                0xf807eed4       0x30 C:/GCC4/ARM/s002/lib/armv7aLaiv/libc.a(vsnprintf.o)
                0xf807eed4                _snprintf_l
                0xf807eed4                snprintf_l
 .text          0xf807ef04        0x0 C:/GCC4/ARM/s002/lib/armv7aLaiv/libc.a(wsetup.o)
 .text.__swsetup
                0xf807ef04       0xf0 C:/GCC4/ARM/s002/lib/armv7aLaiv/libc.a(wsetup.o)
                0xf807ef04                __swsetup
 .text          0xf807eff4        0x0 C:/GCC4/ARM/s002/lib/armv7aLaiv/libc.a(makebuf.o)
 .text.__swhatbuf
                0xf807eff4       0xc0 C:/GCC4/ARM/s002/lib/armv7aLaiv/libc.a(makebuf.o)
                0xf807eff4                __swhatbuf
 .text.__smakebuf
                0xf807f0b4       0xcc C:/GCC4/ARM/s002/lib/armv7aLaiv/libc.a(makebuf.o)
                0xf807f0b4                __smakebuf
 .text          0xf807f180        0x0 C:/GCC4/ARM/s002/lib/armv7aLaiv/libc.a(close.o)
 .text.close    0xf807f180       0x7c C:/GCC4/ARM/s002/lib/armv7aLaiv/libc.a(close.o)
                0xf807f180                close
 .text.dup      0xf807f1fc       0x34 C:/GCC4/ARM/s002/lib/armv7aLaiv/libc.a(close.o)
                0xf807f1fc                dup
 .text.dup2     0xf807f230       0x38 C:/GCC4/ARM/s002/lib/armv7aLaiv/libc.a(close.o)
                0xf807f230                dup2
 .text          0xf807f268        0x0 C:/GCC4/ARM/s002/lib/armv7aLaiv/libc.a(fstat.o)
 .text.fstat    0xf807f268      0x184 C:/GCC4/ARM/s002/lib/armv7aLaiv/libc.a(fstat.o)
                0xf807f268                fstat
 .text          0xf807f3ec        0x0 C:/GCC4/ARM/s002/lib/armv7aLaiv/libc.a(lseek.o)
 .text.lseek    0xf807f3ec       0x70 C:/GCC4/ARM/s002/lib/armv7aLaiv/libc.a(lseek.o)
                0xf807f3ec                lseek
 .text          0xf807f45c        0x0 C:/GCC4/ARM/s002/lib/armv7aLaiv/libc.a(open.o)
 .text.open     0xf807f45c      0x154 C:/GCC4/ARM/s002/lib/armv7aLaiv/libc.a(open.o)
                0xf807f45c                open
 .text          0xf807f5b0       0x38 C:/GCC4/ARM/s002/lib/armv7aLaiv/libc.a(osemu.o)
 .text.VLC_getPT_BLK
                0xf807f5e8       0xc0 C:/GCC4/ARM/s002/lib/armv7aLaiv/libc.a(osemu.o)
 .text.VLC_putPT_BLK
                0xf807f6a8       0xd8 C:/GCC4/ARM/s002/lib/armv7aLaiv/libc.a(osemu.o)
 .text.putCMD_not_use
                0xf807f780        0x8 C:/GCC4/ARM/s002/lib/armv7aLaiv/libc.a(osemu.o)
 .text.not_use_vlink
                0xf807f788        0x8 C:/GCC4/ARM/s002/lib/armv7aLaiv/libc.a(osemu.o)
 .text.VLC_getSTAT
                0xf807f790       0x10 C:/GCC4/ARM/s002/lib/armv7aLaiv/libc.a(osemu.o)
 .text.VLC_getPT_L
                0xf807f7a0       0x18 C:/GCC4/ARM/s002/lib/armv7aLaiv/libc.a(osemu.o)
 .text.VLC_getPT
                0xf807f7b8       0x1c C:/GCC4/ARM/s002/lib/armv7aLaiv/libc.a(osemu.o)
 .text.VLC_putPT_L
                0xf807f7d4       0x20 C:/GCC4/ARM/s002/lib/armv7aLaiv/libc.a(osemu.o)
 .text.VLC_putPT
                0xf807f7f4       0x20 C:/GCC4/ARM/s002/lib/armv7aLaiv/libc.a(osemu.o)
 .text.VLC_putCMD
                0xf807f814       0x10 C:/GCC4/ARM/s002/lib/armv7aLaiv/libc.a(osemu.o)
 .text.VLC_getSTAT11
                0xf807f824       0x10 C:/GCC4/ARM/s002/lib/armv7aLaiv/libc.a(osemu.o)
 .text.VLC_getPT_L11
                0xf807f834       0x18 C:/GCC4/ARM/s002/lib/armv7aLaiv/libc.a(osemu.o)
 .text.VLC_getPT11
                0xf807f84c       0x1c C:/GCC4/ARM/s002/lib/armv7aLaiv/libc.a(osemu.o)
 .text.VLC_putPT_L11
                0xf807f868       0x20 C:/GCC4/ARM/s002/lib/armv7aLaiv/libc.a(osemu.o)
 .text.VLC_putPT11
                0xf807f888       0x20 C:/GCC4/ARM/s002/lib/armv7aLaiv/libc.a(osemu.o)
 .text.VLC_putCMD11
                0xf807f8a8       0x10 C:/GCC4/ARM/s002/lib/armv7aLaiv/libc.a(osemu.o)
 .text._vlink_put_console
                0xf807f8b8       0xbc C:/GCC4/ARM/s002/lib/armv7aLaiv/libc.a(osemu.o)
                0xf807f8b8                _vlink_put_console
 .text._vlink_putstring_console
                0xf807f974      0x124 C:/GCC4/ARM/s002/lib/armv7aLaiv/libc.a(osemu.o)
                0xf807f974                _vlink_putstring_console
 .text._vlink_stat_console
                0xf807fa98       0xa4 C:/GCC4/ARM/s002/lib/armv7aLaiv/libc.a(osemu.o)
                0xf807fa98                _vlink_stat_console
 .text._vlink_get_console
                0xf807fb3c       0x4c C:/GCC4/ARM/s002/lib/armv7aLaiv/libc.a(osemu.o)
                0xf807fb3c                _vlink_get_console
 .text._vlink_open
                0xf807fb88      0x104 C:/GCC4/ARM/s002/lib/armv7aLaiv/libc.a(osemu.o)
                0xf807fb88                _vlink_open
 .text._vlink_creat
                0xf807fc8c      0x108 C:/GCC4/ARM/s002/lib/armv7aLaiv/libc.a(osemu.o)
                0xf807fc8c                _vlink_creat
 .text._vlink_write
                0xf807fd94      0x150 C:/GCC4/ARM/s002/lib/armv7aLaiv/libc.a(osemu.o)
                0xf807fd94                _vlink_write
 .text._vlink_read
                0xf807fee4      0x1bc C:/GCC4/ARM/s002/lib/armv7aLaiv/libc.a(osemu.o)
                0xf807fee4                _vlink_read
 .text._vlink_close
                0xf80800a0       0xe8 C:/GCC4/ARM/s002/lib/armv7aLaiv/libc.a(osemu.o)
                0xf80800a0                _vlink_close
 .text._vlink_lseek
                0xf8080188      0x118 C:/GCC4/ARM/s002/lib/armv7aLaiv/libc.a(osemu.o)
                0xf8080188                _vlink_lseek
 .text._vlink_file_mode
                0xf80802a0      0x124 C:/GCC4/ARM/s002/lib/armv7aLaiv/libc.a(osemu.o)
                0xf80802a0                _vlink_file_mode
 .text._vlink_set_dta
                0xf80803c4       0x14 C:/GCC4/ARM/s002/lib/armv7aLaiv/libc.a(osemu.o)
                0xf80803c4                _vlink_set_dta
 .text._vlink_find_first
                0xf80803d8      0x100 C:/GCC4/ARM/s002/lib/armv7aLaiv/libc.a(osemu.o)
                0xf80803d8                _vlink_find_first
 .text._vlink_find_next
                0xf80804d8       0xe4 C:/GCC4/ARM/s002/lib/armv7aLaiv/libc.a(osemu.o)
                0xf80804d8                _vlink_find_next
 .text._vlink_find_close
                0xf80805bc       0xa4 C:/GCC4/ARM/s002/lib/armv7aLaiv/libc.a(osemu.o)
                0xf80805bc                _vlink_find_close
 .text._vlink_get_ioctl
                0xf8080660       0xf8 C:/GCC4/ARM/s002/lib/armv7aLaiv/libc.a(osemu.o)
                0xf8080660                _vlink_get_ioctl
 .text._vlink_get_file_time
                0xf8080758      0x10c C:/GCC4/ARM/s002/lib/armv7aLaiv/libc.a(osemu.o)
                0xf8080758                _vlink_get_file_time
 .text._vlink_get_time
                0xf8080864       0xc0 C:/GCC4/ARM/s002/lib/armv7aLaiv/libc.a(osemu.o)
                0xf8080864                _vlink_get_time
 .text._vlink_set_file_time
                0xf8080924      0x108 C:/GCC4/ARM/s002/lib/armv7aLaiv/libc.a(osemu.o)
                0xf8080924                _vlink_set_file_time
 .text._vlink_mkdir
                0xf8080a2c       0xf4 C:/GCC4/ARM/s002/lib/armv7aLaiv/libc.a(osemu.o)
                0xf8080a2c                _vlink_mkdir
 .text._vlink_rmdir
                0xf8080b20       0xf4 C:/GCC4/ARM/s002/lib/armv7aLaiv/libc.a(osemu.o)
                0xf8080b20                _vlink_rmdir
 .text._vlink_remove
                0xf8080c14       0xf4 C:/GCC4/ARM/s002/lib/armv7aLaiv/libc.a(osemu.o)
                0xf8080c14                _vlink_remove
 .text._vlink_rename
                0xf8080d08      0x110 C:/GCC4/ARM/s002/lib/armv7aLaiv/libc.a(osemu.o)
                0xf8080d08                _vlink_rename
 .text._vlink_getcwd
                0xf8080e18      0x104 C:/GCC4/ARM/s002/lib/armv7aLaiv/libc.a(osemu.o)
                0xf8080e18                _vlink_getcwd
 .text._vlink_chdir
                0xf8080f1c       0xf4 C:/GCC4/ARM/s002/lib/armv7aLaiv/libc.a(osemu.o)
                0xf8080f1c                _vlink_chdir
 .text._vlink_getcdrv
                0xf8081010       0xc0 C:/GCC4/ARM/s002/lib/armv7aLaiv/libc.a(osemu.o)
                0xf8081010                _vlink_getcdrv
 .text._vlink_dup
                0xf80810d0       0xec C:/GCC4/ARM/s002/lib/armv7aLaiv/libc.a(osemu.o)
                0xf80810d0                _vlink_dup
 .text._vlink_dup2
                0xf80811bc       0xf8 C:/GCC4/ARM/s002/lib/armv7aLaiv/libc.a(osemu.o)
                0xf80811bc                _vlink_dup2
 .text._dos_version
                0xf80812b4       0xc0 C:/GCC4/ARM/s002/lib/armv7aLaiv/libc.a(osemu.o)
                0xf80812b4                _dos_version
 .text._vlink_exit
                0xf8081374       0xa4 C:/GCC4/ARM/s002/lib/armv7aLaiv/libc.a(osemu.o)
                0xf8081374                _vlink_exit
 .text._vlink_sleep
                0xf8081418       0xcc C:/GCC4/ARM/s002/lib/armv7aLaiv/libc.a(osemu.o)
                0xf8081418                _vlink_sleep
 .text._vlink_arg_env
                0xf80814e4      0x12c C:/GCC4/ARM/s002/lib/armv7aLaiv/libc.a(osemu.o)
                0xf80814e4                _vlink_arg_env
 .text.__vlink_init_osemu
                0xf8081610      0x200 C:/GCC4/ARM/s002/lib/armv7aLaiv/libc.a(osemu.o)
                0xf8081610                __vlink_init_osemu
 .text.putCMD_init
                0xf8081810       0x24 C:/GCC4/ARM/s002/lib/armv7aLaiv/libc.a(osemu.o)
 .text          0xf8081834        0x0 C:/GCC4/ARM/s002/lib/armv7aLaiv/libc.a(perror.o)
 .text._kmc_strerror_r
                0xf8081834       0xbc C:/GCC4/ARM/s002/lib/armv7aLaiv/libc.a(perror.o)
                0xf8081834                _kmc_strerror_r
 .text._kmc_strerror
                0xf80818f0       0x20 C:/GCC4/ARM/s002/lib/armv7aLaiv/libc.a(perror.o)
                0xf80818f0                _kmc_strerror
 .text.perror   0xf8081910       0x60 C:/GCC4/ARM/s002/lib/armv7aLaiv/libc.a(perror.o)
                0xf8081910                perror
 .text          0xf8081970        0x0 C:/GCC4/ARM/s002/lib/armv7aLaiv/libc.a(read.o)
 .text.read     0xf8081970      0x108 C:/GCC4/ARM/s002/lib/armv7aLaiv/libc.a(read.o)
                0xf8081970                read
 .text          0xf8081a78        0x0 C:/GCC4/ARM/s002/lib/armv7aLaiv/libc.a(u2dname.o)
 .text._unix2dosname
                0xf8081a78      0x354 C:/GCC4/ARM/s002/lib/armv7aLaiv/libc.a(u2dname.o)
                0xf8081a78                _unix2dosname
 .text          0xf8081dcc        0x0 C:/GCC4/ARM/s002/lib/armv7aLaiv/libc.a(utime.o)
 .text._dos2unix_file_time
                0xf8081dcc       0x6c C:/GCC4/ARM/s002/lib/armv7aLaiv/libc.a(utime.o)
                0xf8081dcc                _dos2unix_file_time
 .text.utime    0xf8081e38       0xd4 C:/GCC4/ARM/s002/lib/armv7aLaiv/libc.a(utime.o)
                0xf8081e38                utime
 .text          0xf8081f0c        0x0 C:/GCC4/ARM/s002/lib/armv7aLaiv/libc.a(write.o)
 .text.write    0xf8081f0c      0x178 C:/GCC4/ARM/s002/lib/armv7aLaiv/libc.a(write.o)
                0xf8081f0c                write
 .text          0xf8082084        0x0 C:/GCC4/ARM/s002/lib/armv7aLaiv/libc.a(_env.o)
 .text.env_tree_compare_nodes
                0xf8082084       0x1c C:/GCC4/ARM/s002/lib/armv7aLaiv/libc.a(_env.o)
 .text.env_tree_compare_key
                0xf80820a0       0x20 C:/GCC4/ARM/s002/lib/armv7aLaiv/libc.a(_env.o)
 .text.__scrubenv
                0xf80820c0      0x138 C:/GCC4/ARM/s002/lib/armv7aLaiv/libc.a(_env.o)
 .text.__envvarnamelen
                0xf80821f8       0x54 C:/GCC4/ARM/s002/lib/armv7aLaiv/libc.a(_env.o)
                0xf80821f8                __envvarnamelen
 .text.__freeenvvar
                0xf808224c       0x38 C:/GCC4/ARM/s002/lib/armv7aLaiv/libc.a(_env.o)
                0xf808224c                __freeenvvar
 .text.__allocenvvar
                0xf8082284       0x44 C:/GCC4/ARM/s002/lib/armv7aLaiv/libc.a(_env.o)
                0xf8082284                __allocenvvar
 .text.__canoverwriteenvvar
                0xf80822c8       0x34 C:/GCC4/ARM/s002/lib/armv7aLaiv/libc.a(_env.o)
                0xf80822c8                __canoverwriteenvvar
 .text.__getenvslot
                0xf80822fc      0x19c C:/GCC4/ARM/s002/lib/armv7aLaiv/libc.a(_env.o)
                0xf80822fc                __getenvslot
 .text.__findenvvar
                0xf8082498       0x34 C:/GCC4/ARM/s002/lib/armv7aLaiv/libc.a(_env.o)
                0xf8082498                __findenvvar
 .text.__findenv
                0xf80824cc       0x5c C:/GCC4/ARM/s002/lib/armv7aLaiv/libc.a(_env.o)
                0xf80824cc                __findenv
 .text.__readlockenv
                0xf8082528       0x30 C:/GCC4/ARM/s002/lib/armv7aLaiv/libc.a(_env.o)
                0xf8082528                __readlockenv
 .text.__writelockenv
                0xf8082558       0x30 C:/GCC4/ARM/s002/lib/armv7aLaiv/libc.a(_env.o)
                0xf8082558                __writelockenv
 .text.__unlockenv
                0xf8082588       0x30 C:/GCC4/ARM/s002/lib/armv7aLaiv/libc.a(_env.o)
                0xf8082588                __unlockenv
 .text.startup  0xf80825b8       0x14 C:/GCC4/ARM/s002/lib/armv7aLaiv/libc.a(_env.o)
                0xf80825b8                __libc_env_init
 .text          0xf80825cc        0x0 C:/GCC4/ARM/s002/lib/armv7aLaiv/libc.a(exit.o)
 .text._exit    0xf80825cc        0xc C:/GCC4/ARM/s002/lib/armv7aLaiv/libc.a(exit.o)
                0xf80825cc                _exit
 .text._Exit    0xf80825d8        0x8 C:/GCC4/ARM/s002/lib/armv7aLaiv/libc.a(exit.o)
                0xf80825d8                _Exit
 .text.exit     0xf80825e0       0x88 C:/GCC4/ARM/s002/lib/armv7aLaiv/libc.a(exit.o)
 .text          0xf8082668        0x0 C:/GCC4/ARM/s002/lib/armv7aLaiv/libc.a(signal.o)
 .text.signal   0xf8082668        0x8 C:/GCC4/ARM/s002/lib/armv7aLaiv/libc.a(signal.o)
                0xf8082668                signal
 .text.raise    0xf8082670        0x8 C:/GCC4/ARM/s002/lib/armv7aLaiv/libc.a(signal.o)
                0xf8082670                raise
 .text          0xf8082678        0x0 C:/GCC4/ARM/s002/lib/armv7aLaiv/libc.a(localtime.o)
 .text.is_leap.part.0
                0xf8082678       0x40 C:/GCC4/ARM/s002/lib/armv7aLaiv/libc.a(localtime.o)
 .text._dos2unix_time
                0xf80826b8      0x11c C:/GCC4/ARM/s002/lib/armv7aLaiv/libc.a(localtime.o)
                0xf80826b8                _dos2unix_time
 .text.localtime_r
                0xf80827d4      0x200 C:/GCC4/ARM/s002/lib/armv7aLaiv/libc.a(localtime.o)
                0xf80827d4                localtime_r
 .text.localtime
                0xf80829d4       0x1c C:/GCC4/ARM/s002/lib/armv7aLaiv/libc.a(localtime.o)
                0xf80829d4                localtime
 .text          0xf80829f0        0x0 C:/GCC4/ARM/s002/lib/armv7aLaiv/libc.a(lldiv.o)
 .text._lldiv   0xf80829f0       0x70 C:/GCC4/ARM/s002/lib/armv7aLaiv/libc.a(lldiv.o)
                0xf80829f0                lldiv
                0xf80829f0                _lldiv
 .text          0xf8082a60        0x0 C:/GCC4/ARM/s002/lib/armv7aLaiv/libc.a(memchr.o)
 .text.memchr   0xf8082a60       0x34 C:/GCC4/ARM/s002/lib/armv7aLaiv/libc.a(memchr.o)
                0xf8082a60                memchr
 .text          0xf8082a94       0x88 C:/GCC4/ARM/s002/lib/armv7aLaiv/libc.a(strnlen.o)
                0xf8082a94                strnlen
 .text          0xf8082b1c        0x0 C:/GCC4/ARM/s002/lib/armv7aLaiv/libc.a(strcspn.o)
 .text.strcspn  0xf8082b1c      0x124 C:/GCC4/ARM/s002/lib/armv7aLaiv/libc.a(strcspn.o)
                0xf8082b1c                strcspn
 .text          0xf8082c40        0x0 C:/GCC4/ARM/s002/lib/armv7aLaiv/libc.a(strncasecmp.o)
 .text._strncasecmp
                0xf8082c40       0x6c C:/GCC4/ARM/s002/lib/armv7aLaiv/libc.a(strncasecmp.o)
                0xf8082c40                _strncasecmp
                0xf8082c40                strncasecmp
 .text          0xf8082cac        0x0 C:/GCC4/ARM/s002/lib/armv7aLaiv/libc.a(strdup.o)
 .text._strdup  0xf8082cac       0x34 C:/GCC4/ARM/s002/lib/armv7aLaiv/libc.a(strdup.o)
                0xf8082cac                strdup
                0xf8082cac                _strdup
 .text          0xf8082ce0        0x0 C:/GCC4/ARM/s002/lib/armv7aLaiv/libc.a(ctype_.o)
 .text          0xf8082ce0        0x0 C:/GCC4/ARM/s002/lib/armv7aLaiv/libc.a(toupper_.o)
 .text          0xf8082ce0        0x0 C:/GCC4/ARM/s002/lib/armv7aLaiv/libc.a(tolower_.o)
 .text          0xf8082ce0        0x0 C:/GCC4/ARM/s002/lib/armv7aLaiv/libc.a(citrus_ctype.o)
 .text.init_mskanji_module.part.0
                0xf8082ce0       0x40 C:/GCC4/ARM/s002/lib/armv7aLaiv/libc.a(citrus_ctype.o)
 .text.init_utf8_module.part.1
                0xf8082d20       0x40 C:/GCC4/ARM/s002/lib/armv7aLaiv/libc.a(citrus_ctype.o)
 .text._citrus_ctype_open
                0xf8082d60      0x128 C:/GCC4/ARM/s002/lib/armv7aLaiv/libc.a(citrus_ctype.o)
                0xf8082d60                _citrus_ctype_open
 .text._citrus_ctype_close
                0xf8082e88       0x48 C:/GCC4/ARM/s002/lib/armv7aLaiv/libc.a(citrus_ctype.o)
                0xf8082e88                _citrus_ctype_close
 .text          0xf8082ed0        0x0 C:/GCC4/ARM/s002/lib/armv7aLaiv/libc.a(citrus_none.o)
 .text._citrus_NONE_ctype_init
                0xf8082ed0       0x14 C:/GCC4/ARM/s002/lib/armv7aLaiv/libc.a(citrus_none.o)
 .text._citrus_NONE_ctype_get_mb_cur_max
                0xf8082ee4        0x8 C:/GCC4/ARM/s002/lib/armv7aLaiv/libc.a(citrus_none.o)
 .text._citrus_NONE_ctype_mblen
                0xf8082eec       0x44 C:/GCC4/ARM/s002/lib/armv7aLaiv/libc.a(citrus_none.o)
 .text._citrus_NONE_ctype_mbrlen
                0xf8082f30       0x48 C:/GCC4/ARM/s002/lib/armv7aLaiv/libc.a(citrus_none.o)
 .text._citrus_NONE_ctype_mbsinit
                0xf8082f78       0x10 C:/GCC4/ARM/s002/lib/armv7aLaiv/libc.a(citrus_none.o)
 .text._citrus_NONE_ctype_mbsrtowcs
                0xf8082f88       0x9c C:/GCC4/ARM/s002/lib/armv7aLaiv/libc.a(citrus_none.o)
 .text._citrus_NONE_ctype_mbsnrtowcs
                0xf8083024       0xb4 C:/GCC4/ARM/s002/lib/armv7aLaiv/libc.a(citrus_none.o)
 .text._citrus_NONE_ctype_mbstowcs
                0xf80830d8       0x88 C:/GCC4/ARM/s002/lib/armv7aLaiv/libc.a(citrus_none.o)
 .text._citrus_NONE_ctype_wcrtomb
                0xf8083160       0x34 C:/GCC4/ARM/s002/lib/armv7aLaiv/libc.a(citrus_none.o)
 .text._citrus_NONE_ctype_wcsrtombs
                0xf8083194       0xc0 C:/GCC4/ARM/s002/lib/armv7aLaiv/libc.a(citrus_none.o)
 .text._citrus_NONE_ctype_wcsnrtombs
                0xf8083254       0xb8 C:/GCC4/ARM/s002/lib/armv7aLaiv/libc.a(citrus_none.o)
 .text._citrus_NONE_ctype_wcstombs
                0xf808330c       0xa0 C:/GCC4/ARM/s002/lib/armv7aLaiv/libc.a(citrus_none.o)
 .text._citrus_NONE_ctype_wctomb
                0xf80833ac       0x30 C:/GCC4/ARM/s002/lib/armv7aLaiv/libc.a(citrus_none.o)
 .text._citrus_NONE_ctype_btowc
                0xf80833dc       0x2c C:/GCC4/ARM/s002/lib/armv7aLaiv/libc.a(citrus_none.o)
 .text._citrus_NONE_ctype_wctob
                0xf8083408       0x2c C:/GCC4/ARM/s002/lib/armv7aLaiv/libc.a(citrus_none.o)
 .text._citrus_NONE_stdenc_init
                0xf8083434       0x20 C:/GCC4/ARM/s002/lib/armv7aLaiv/libc.a(citrus_none.o)
 .text._citrus_NONE_stdenc_uninit
                0xf8083454        0x4 C:/GCC4/ARM/s002/lib/armv7aLaiv/libc.a(citrus_none.o)
 .text._citrus_NONE_stdenc_init_state
                0xf8083458        0x8 C:/GCC4/ARM/s002/lib/armv7aLaiv/libc.a(citrus_none.o)
 .text._citrus_NONE_stdenc_put_state_reset
                0xf8083460       0x14 C:/GCC4/ARM/s002/lib/armv7aLaiv/libc.a(citrus_none.o)
 .text._citrus_NONE_stdenc_get_state_desc
                0xf8083474       0x14 C:/GCC4/ARM/s002/lib/armv7aLaiv/libc.a(citrus_none.o)
 .text._citrus_NONE_ctype_mbrtowc
                0xf8083488       0x54 C:/GCC4/ARM/s002/lib/armv7aLaiv/libc.a(citrus_none.o)
 .text._citrus_NONE_ctype_mbtowc
                0xf80834dc       0x78 C:/GCC4/ARM/s002/lib/armv7aLaiv/libc.a(citrus_none.o)
 .text._citrus_NONE_stdenc_mbtocs
                0xf8083554       0x4c C:/GCC4/ARM/s002/lib/armv7aLaiv/libc.a(citrus_none.o)
 .text._citrus_NONE_stdenc_cstomb
                0xf80835a0       0x70 C:/GCC4/ARM/s002/lib/armv7aLaiv/libc.a(citrus_none.o)
 .text._citrus_NONE_stdenc_mbtowc
                0xf8083610       0x54 C:/GCC4/ARM/s002/lib/armv7aLaiv/libc.a(citrus_none.o)
 .text._citrus_NONE_stdenc_wctomb
                0xf8083664       0x54 C:/GCC4/ARM/s002/lib/armv7aLaiv/libc.a(citrus_none.o)
 .text._citrus_NONE_ctype_uninit
                0xf80836b8        0x4 C:/GCC4/ARM/s002/lib/armv7aLaiv/libc.a(citrus_none.o)
 .text          0xf80836bc        0x0 C:/GCC4/ARM/s002/lib/armv7aLaiv/libc.a(citrus_mskanji.o)
 .text._citrus_MSKanji_ctype_get_mb_cur_max
                0xf80836bc        0x8 C:/GCC4/ARM/s002/lib/armv7aLaiv/libc.a(citrus_mskanji.o)
 .text._citrus_MSKanji_stdenc_init_state
                0xf80836c4       0x10 C:/GCC4/ARM/s002/lib/armv7aLaiv/libc.a(citrus_mskanji.o)
 .text._citrus_MSKanji_stdenc_put_state_reset
                0xf80836d4       0x14 C:/GCC4/ARM/s002/lib/armv7aLaiv/libc.a(citrus_mskanji.o)
 .text._citrus_MSKanji_ctype_mbsinit
                0xf80836e8       0x4c C:/GCC4/ARM/s002/lib/armv7aLaiv/libc.a(citrus_mskanji.o)
 .text._citrus_MSKanji_ctype_uninit
                0xf8083734        0xc C:/GCC4/ARM/s002/lib/armv7aLaiv/libc.a(citrus_mskanji.o)
 .text._citrus_MSKanji_stdenc_uninit
                0xf8083740       0x10 C:/GCC4/ARM/s002/lib/armv7aLaiv/libc.a(citrus_mskanji.o)
 .text._citrus_MSKanji_mbrtowc_priv.isra.1
                0xf8083750      0x12c C:/GCC4/ARM/s002/lib/armv7aLaiv/libc.a(citrus_mskanji.o)
 .text._citrus_MSKanji_stdenc_mbtocs
                0xf808387c      0x154 C:/GCC4/ARM/s002/lib/armv7aLaiv/libc.a(citrus_mskanji.o)
 .text._citrus_MSKanji_stdenc_mbtowc
                0xf80839d0       0x28 C:/GCC4/ARM/s002/lib/armv7aLaiv/libc.a(citrus_mskanji.o)
 .text._citrus_MSKanji_ctype_mbrtowc
                0xf80839f8       0x9c C:/GCC4/ARM/s002/lib/armv7aLaiv/libc.a(citrus_mskanji.o)
 .text._citrus_MSKanji_ctype_mbrlen
                0xf8083a94       0x94 C:/GCC4/ARM/s002/lib/armv7aLaiv/libc.a(citrus_mskanji.o)
 .text._citrus_MSKanji_wcrtomb_priv.isra.2
                0xf8083b28       0xc4 C:/GCC4/ARM/s002/lib/armv7aLaiv/libc.a(citrus_mskanji.o)
 .text._citrus_MSKanji_ctype_wctomb
                0xf8083bec       0x48 C:/GCC4/ARM/s002/lib/armv7aLaiv/libc.a(citrus_mskanji.o)
 .text._citrus_MSKanji_stdenc_cstomb
                0xf8083c34      0x124 C:/GCC4/ARM/s002/lib/armv7aLaiv/libc.a(citrus_mskanji.o)
 .text._citrus_MSKanji_stdenc_wctomb
                0xf8083d58       0x14 C:/GCC4/ARM/s002/lib/armv7aLaiv/libc.a(citrus_mskanji.o)
 .text._citrus_MSKanji_ctype_wcrtomb
                0xf8083d6c       0x9c C:/GCC4/ARM/s002/lib/armv7aLaiv/libc.a(citrus_mskanji.o)
 .text._citrus_MSKanji_ctype_mbtowc
                0xf8083e08       0xa4 C:/GCC4/ARM/s002/lib/armv7aLaiv/libc.a(citrus_mskanji.o)
 .text._citrus_MSKanji_mbsrtowcs_priv.isra.6
                0xf8083eac       0xe8 C:/GCC4/ARM/s002/lib/armv7aLaiv/libc.a(citrus_mskanji.o)
 .text._citrus_MSKanji_ctype_mbstowcs
                0xf8083f94       0x50 C:/GCC4/ARM/s002/lib/armv7aLaiv/libc.a(citrus_mskanji.o)
 .text._citrus_MSKanji_ctype_mbsrtowcs
                0xf8083fe4       0x94 C:/GCC4/ARM/s002/lib/armv7aLaiv/libc.a(citrus_mskanji.o)
 .text._citrus_MSKanji_ctype_mbsnrtowcs
                0xf8084078      0x164 C:/GCC4/ARM/s002/lib/armv7aLaiv/libc.a(citrus_mskanji.o)
 .text._citrus_MSKanji_ctype_btowc
                0xf80841dc       0x88 C:/GCC4/ARM/s002/lib/armv7aLaiv/libc.a(citrus_mskanji.o)
 .text._citrus_MSKanji_ctype_wctob
                0xf8084264       0x68 C:/GCC4/ARM/s002/lib/armv7aLaiv/libc.a(citrus_mskanji.o)
 .text._citrus_MSKanji_stdenc_get_state_desc
                0xf80842cc       0x2c C:/GCC4/ARM/s002/lib/armv7aLaiv/libc.a(citrus_mskanji.o)
 .text._citrus_MSKanji_wcsrtombs_priv.isra.11
                0xf80842f8       0xf8 C:/GCC4/ARM/s002/lib/armv7aLaiv/libc.a(citrus_mskanji.o)
 .text._citrus_MSKanji_ctype_wcstombs
                0xf80843f0       0x3c C:/GCC4/ARM/s002/lib/armv7aLaiv/libc.a(citrus_mskanji.o)
 .text._citrus_MSKanji_ctype_wcsrtombs
                0xf808442c       0x94 C:/GCC4/ARM/s002/lib/armv7aLaiv/libc.a(citrus_mskanji.o)
 .text._citrus_MSKanji_ctype_wcsnrtombs
                0xf80844c0      0x18c C:/GCC4/ARM/s002/lib/armv7aLaiv/libc.a(citrus_mskanji.o)
 .text._citrus_MSKanji_ctype_init
                0xf808464c       0x44 C:/GCC4/ARM/s002/lib/armv7aLaiv/libc.a(citrus_mskanji.o)
 .text._citrus_MSKanji_stdenc_init
                0xf8084690       0x44 C:/GCC4/ARM/s002/lib/armv7aLaiv/libc.a(citrus_mskanji.o)
 .text._citrus_MSKanji_ctype_mblen
                0xf80846d4       0x90 C:/GCC4/ARM/s002/lib/armv7aLaiv/libc.a(citrus_mskanji.o)
 .text._citrus_MSKanji_ctype_getops
                0xf8084764       0x38 C:/GCC4/ARM/s002/lib/armv7aLaiv/libc.a(citrus_mskanji.o)
                0xf8084764                _citrus_MSKanji_ctype_getops
 .text._citrus_MSKanji_stdenc_getops
                0xf808479c       0x38 C:/GCC4/ARM/s002/lib/armv7aLaiv/libc.a(citrus_mskanji.o)
                0xf808479c                _citrus_MSKanji_stdenc_getops
 .text          0xf80847d4        0x0 C:/GCC4/ARM/s002/lib/armv7aLaiv/libc.a(citrus_utf8.o)
 .text._citrus_UTF8_ctype_get_mb_cur_max
                0xf80847d4        0x8 C:/GCC4/ARM/s002/lib/armv7aLaiv/libc.a(citrus_utf8.o)
 .text._citrus_UTF8_stdenc_init_state
                0xf80847dc       0x10 C:/GCC4/ARM/s002/lib/armv7aLaiv/libc.a(citrus_utf8.o)
 .text._citrus_UTF8_stdenc_put_state_reset
                0xf80847ec       0x14 C:/GCC4/ARM/s002/lib/armv7aLaiv/libc.a(citrus_utf8.o)
 .text._citrus_UTF8_ctype_mbsinit
                0xf8084800       0x4c C:/GCC4/ARM/s002/lib/armv7aLaiv/libc.a(citrus_utf8.o)
 .text._citrus_UTF8_ctype_uninit
                0xf808484c        0xc C:/GCC4/ARM/s002/lib/armv7aLaiv/libc.a(citrus_utf8.o)
 .text._citrus_UTF8_stdenc_uninit
                0xf8084858       0x10 C:/GCC4/ARM/s002/lib/armv7aLaiv/libc.a(citrus_utf8.o)
 .text._citrus_UTF8_mbrtowc_priv.isra.1
                0xf8084868      0x1d4 C:/GCC4/ARM/s002/lib/armv7aLaiv/libc.a(citrus_utf8.o)
 .text._citrus_UTF8_stdenc_mbtocs
                0xf8084a3c       0x50 C:/GCC4/ARM/s002/lib/armv7aLaiv/libc.a(citrus_utf8.o)
 .text._citrus_UTF8_stdenc_mbtowc
                0xf8084a8c       0x28 C:/GCC4/ARM/s002/lib/armv7aLaiv/libc.a(citrus_utf8.o)
 .text._citrus_UTF8_ctype_mbrtowc
                0xf8084ab4       0x9c C:/GCC4/ARM/s002/lib/armv7aLaiv/libc.a(citrus_utf8.o)
 .text._citrus_UTF8_ctype_mbrlen
                0xf8084b50       0x94 C:/GCC4/ARM/s002/lib/armv7aLaiv/libc.a(citrus_utf8.o)
 .text._citrus_UTF8_wcrtomb_priv.isra.2
                0xf8084be4       0xe0 C:/GCC4/ARM/s002/lib/armv7aLaiv/libc.a(citrus_utf8.o)
 .text._citrus_UTF8_ctype_wctomb
                0xf8084cc4       0x48 C:/GCC4/ARM/s002/lib/armv7aLaiv/libc.a(citrus_utf8.o)
 .text._citrus_UTF8_stdenc_cstomb
                0xf8084d0c       0x34 C:/GCC4/ARM/s002/lib/armv7aLaiv/libc.a(citrus_utf8.o)
 .text._citrus_UTF8_stdenc_wctomb
                0xf8084d40       0x14 C:/GCC4/ARM/s002/lib/armv7aLaiv/libc.a(citrus_utf8.o)
 .text._citrus_UTF8_ctype_wcrtomb
                0xf8084d54       0x9c C:/GCC4/ARM/s002/lib/armv7aLaiv/libc.a(citrus_utf8.o)
 .text._citrus_UTF8_ctype_mbtowc
                0xf8084df0       0xb4 C:/GCC4/ARM/s002/lib/armv7aLaiv/libc.a(citrus_utf8.o)
 .text._citrus_UTF8_mbsrtowcs_priv.isra.8
                0xf8084ea4       0xe8 C:/GCC4/ARM/s002/lib/armv7aLaiv/libc.a(citrus_utf8.o)
 .text._citrus_UTF8_ctype_mbstowcs
                0xf8084f8c       0x50 C:/GCC4/ARM/s002/lib/armv7aLaiv/libc.a(citrus_utf8.o)
 .text._citrus_UTF8_ctype_mbsrtowcs
                0xf8084fdc       0x94 C:/GCC4/ARM/s002/lib/armv7aLaiv/libc.a(citrus_utf8.o)
 .text._citrus_UTF8_ctype_mbsnrtowcs
                0xf8085070      0x164 C:/GCC4/ARM/s002/lib/armv7aLaiv/libc.a(citrus_utf8.o)
 .text._citrus_UTF8_ctype_btowc
                0xf80851d4       0x88 C:/GCC4/ARM/s002/lib/armv7aLaiv/libc.a(citrus_utf8.o)
 .text._citrus_UTF8_ctype_wctob
                0xf808525c       0x68 C:/GCC4/ARM/s002/lib/armv7aLaiv/libc.a(citrus_utf8.o)
 .text._citrus_UTF8_stdenc_get_state_desc
                0xf80852c4       0x2c C:/GCC4/ARM/s002/lib/armv7aLaiv/libc.a(citrus_utf8.o)
 .text._citrus_UTF8_wcsrtombs_priv.isra.13
                0xf80852f0       0xf8 C:/GCC4/ARM/s002/lib/armv7aLaiv/libc.a(citrus_utf8.o)
 .text._citrus_UTF8_ctype_wcstombs
                0xf80853e8       0x3c C:/GCC4/ARM/s002/lib/armv7aLaiv/libc.a(citrus_utf8.o)
 .text._citrus_UTF8_ctype_wcsrtombs
                0xf8085424       0x94 C:/GCC4/ARM/s002/lib/armv7aLaiv/libc.a(citrus_utf8.o)
 .text._citrus_UTF8_ctype_wcsnrtombs
                0xf80854b8      0x18c C:/GCC4/ARM/s002/lib/armv7aLaiv/libc.a(citrus_utf8.o)
 .text._citrus_UTF8_ctype_init
                0xf8085644      0x104 C:/GCC4/ARM/s002/lib/armv7aLaiv/libc.a(citrus_utf8.o)
 .text._citrus_UTF8_ctype_mblen
                0xf8085748       0x9c C:/GCC4/ARM/s002/lib/armv7aLaiv/libc.a(citrus_utf8.o)
 .text._citrus_UTF8_stdenc_init
                0xf80857e4       0xf4 C:/GCC4/ARM/s002/lib/armv7aLaiv/libc.a(citrus_utf8.o)
 .text._citrus_UTF8_ctype_getops
                0xf80858d8       0x38 C:/GCC4/ARM/s002/lib/armv7aLaiv/libc.a(citrus_utf8.o)
                0xf80858d8                _citrus_UTF8_ctype_getops
 .text._citrus_UTF8_stdenc_getops
                0xf8085910       0x38 C:/GCC4/ARM/s002/lib/armv7aLaiv/libc.a(citrus_utf8.o)
                0xf8085910                _citrus_UTF8_stdenc_getops
 .text          0xf8085948        0x0 C:/GCC4/ARM/s002/lib/armv7aLaiv/libc.a(localeconv.o)
 .text.localeconv
                0xf8085948       0x14 C:/GCC4/ARM/s002/lib/armv7aLaiv/libc.a(localeconv.o)
                0xf8085948                localeconv
 .text.localeconv_l
                0xf808595c        0xc C:/GCC4/ARM/s002/lib/armv7aLaiv/libc.a(localeconv.o)
                0xf808595c                localeconv_l
 .text          0xf8085968        0x0 C:/GCC4/ARM/s002/lib/armv7aLaiv/libc.a(multibyte_amd1.o)
 .text.mbrlen_l
                0xf8085968       0xbc C:/GCC4/ARM/s002/lib/armv7aLaiv/libc.a(multibyte_amd1.o)
                0xf8085968                mbrlen_l
 .text.mbrlen   0xf8085a24        0xc C:/GCC4/ARM/s002/lib/armv7aLaiv/libc.a(multibyte_amd1.o)
                0xf8085a24                mbrlen
 .text.mbsinit_l
                0xf8085a30       0x68 C:/GCC4/ARM/s002/lib/armv7aLaiv/libc.a(multibyte_amd1.o)
                0xf8085a30                mbsinit_l
 .text.mbsinit  0xf8085a98        0xc C:/GCC4/ARM/s002/lib/armv7aLaiv/libc.a(multibyte_amd1.o)
                0xf8085a98                mbsinit
 .text.mbrtowc_l
                0xf8085aa4       0xcc C:/GCC4/ARM/s002/lib/armv7aLaiv/libc.a(multibyte_amd1.o)
                0xf8085aa4                mbrtowc_l
 .text.mbrtowc  0xf8085b70       0x20 C:/GCC4/ARM/s002/lib/armv7aLaiv/libc.a(multibyte_amd1.o)
                0xf8085b70                mbrtowc
 .text.mbsrtowcs_l
                0xf8085b90       0xcc C:/GCC4/ARM/s002/lib/armv7aLaiv/libc.a(multibyte_amd1.o)
                0xf8085b90                mbsrtowcs_l
 .text.mbsrtowcs
                0xf8085c5c       0x20 C:/GCC4/ARM/s002/lib/armv7aLaiv/libc.a(multibyte_amd1.o)
                0xf8085c5c                mbsrtowcs
 .text.mbsnrtowcs_l
                0xf8085c7c       0xd0 C:/GCC4/ARM/s002/lib/armv7aLaiv/libc.a(multibyte_amd1.o)
                0xf8085c7c                mbsnrtowcs_l
 .text.mbsnrtowcs
                0xf8085d4c       0x28 C:/GCC4/ARM/s002/lib/armv7aLaiv/libc.a(multibyte_amd1.o)
                0xf8085d4c                mbsnrtowcs
 .text.wcrtomb_l
                0xf8085d74       0xbc C:/GCC4/ARM/s002/lib/armv7aLaiv/libc.a(multibyte_amd1.o)
                0xf8085d74                wcrtomb_l
 .text.wcrtomb  0xf8085e30        0xc C:/GCC4/ARM/s002/lib/armv7aLaiv/libc.a(multibyte_amd1.o)
                0xf8085e30                wcrtomb
 .text.wcsrtombs_l
                0xf8085e3c       0xcc C:/GCC4/ARM/s002/lib/armv7aLaiv/libc.a(multibyte_amd1.o)
                0xf8085e3c                wcsrtombs_l
 .text.wcsrtombs
                0xf8085f08       0x20 C:/GCC4/ARM/s002/lib/armv7aLaiv/libc.a(multibyte_amd1.o)
                0xf8085f08                wcsrtombs
 .text.btowc_l  0xf8085f28       0x40 C:/GCC4/ARM/s002/lib/armv7aLaiv/libc.a(multibyte_amd1.o)
                0xf8085f28                btowc_l
 .text.btowc    0xf8085f68        0xc C:/GCC4/ARM/s002/lib/armv7aLaiv/libc.a(multibyte_amd1.o)
                0xf8085f68                btowc
 .text.wctob_l  0xf8085f74       0x40 C:/GCC4/ARM/s002/lib/armv7aLaiv/libc.a(multibyte_amd1.o)
                0xf8085f74                wctob_l
 .text.wctob    0xf8085fb4        0xc C:/GCC4/ARM/s002/lib/armv7aLaiv/libc.a(multibyte_amd1.o)
                0xf8085fb4                wctob
 .text._mb_cur_max_l
                0xf8085fc0       0x18 C:/GCC4/ARM/s002/lib/armv7aLaiv/libc.a(multibyte_amd1.o)
                0xf8085fc0                _mb_cur_max_l
 .text          0xf8085fd8        0x0 C:/GCC4/ARM/s002/lib/armv7aLaiv/libc.a(__isthreaded.o)
 .text          0xf8085fd8        0x0 C:/GCC4/ARM/s002/lib/armv7aLaiv/libc.a(dtoa.o)
 .text.__dtoa   0xf8085fd8     0x1644 C:/GCC4/ARM/s002/lib/armv7aLaiv/libc.a(dtoa.o)
                0xf8085fd8                __dtoa
 .text          0xf808761c        0x0 C:/GCC4/ARM/s002/lib/armv7aLaiv/libc.a(ldtoa.o)
 .text.__ldtoa  0xf808761c       0x3c C:/GCC4/ARM/s002/lib/armv7aLaiv/libc.a(ldtoa.o)
                0xf808761c                __ldtoa
 .text          0xf8087658        0x0 C:/GCC4/ARM/s002/lib/armv7aLaiv/libc.a(hdtoa.o)
 .text.__hdtoa  0xf8087658      0x2c0 C:/GCC4/ARM/s002/lib/armv7aLaiv/libc.a(hdtoa.o)
                0xf8087658                __hdtoa
 .text.__hldtoa
                0xf8087918        0xc C:/GCC4/ARM/s002/lib/armv7aLaiv/libc.a(hdtoa.o)
                0xf8087918                __hldtoa
 .text          0xf8087924        0x0 C:/GCC4/ARM/s002/lib/armv7aLaiv/libc.a(dmisc.o)
 .text.__rv_alloc_D2A
                0xf8087924       0x3c C:/GCC4/ARM/s002/lib/armv7aLaiv/libc.a(dmisc.o)
                0xf8087924                __rv_alloc_D2A
 .text.__nrv_alloc_D2A
                0xf8087960       0x5c C:/GCC4/ARM/s002/lib/armv7aLaiv/libc.a(dmisc.o)
                0xf8087960                __nrv_alloc_D2A
 .text.__freedtoa
                0xf80879bc       0x1c C:/GCC4/ARM/s002/lib/armv7aLaiv/libc.a(dmisc.o)
                0xf80879bc                __freedtoa
 .text.__quorem_D2A
                0xf80879d8      0x1f8 C:/GCC4/ARM/s002/lib/armv7aLaiv/libc.a(dmisc.o)
                0xf80879d8                __quorem_D2A
 .text          0xf8087bd0        0x0 C:/GCC4/ARM/s002/lib/armv7aLaiv/libc.a(misc.o)
 .text.__Balloc_D2A
                0xf8087bd0      0x114 C:/GCC4/ARM/s002/lib/armv7aLaiv/libc.a(misc.o)
                0xf8087bd0                __Balloc_D2A
 .text.__Bfree_D2A
                0xf8087ce4       0x8c C:/GCC4/ARM/s002/lib/armv7aLaiv/libc.a(misc.o)
                0xf8087ce4                __Bfree_D2A
 .text.__lo0bits_D2A
                0xf8087d70       0x98 C:/GCC4/ARM/s002/lib/armv7aLaiv/libc.a(misc.o)
                0xf8087d70                __lo0bits_D2A
 .text.__multadd_D2A
                0xf8087e08       0xd0 C:/GCC4/ARM/s002/lib/armv7aLaiv/libc.a(misc.o)
                0xf8087e08                __multadd_D2A
 .text.__hi0bits_D2A
                0xf8087ed8       0x58 C:/GCC4/ARM/s002/lib/armv7aLaiv/libc.a(misc.o)
                0xf8087ed8                __hi0bits_D2A
 .text.__i2b_D2A
                0xf8087f30       0x24 C:/GCC4/ARM/s002/lib/armv7aLaiv/libc.a(misc.o)
                0xf8087f30                __i2b_D2A
 .text.__mult_D2A
                0xf8087f54      0x13c C:/GCC4/ARM/s002/lib/armv7aLaiv/libc.a(misc.o)
                0xf8087f54                __mult_D2A
 .text.__pow5mult_D2A
                0xf8088090      0x1cc C:/GCC4/ARM/s002/lib/armv7aLaiv/libc.a(misc.o)
                0xf8088090                __pow5mult_D2A
 .text.__lshift_D2A
                0xf808825c       0xf8 C:/GCC4/ARM/s002/lib/armv7aLaiv/libc.a(misc.o)
                0xf808825c                __lshift_D2A
 .text.__cmp_D2A
                0xf8088354       0x60 C:/GCC4/ARM/s002/lib/armv7aLaiv/libc.a(misc.o)
                0xf8088354                __cmp_D2A
 .text.__diff_D2A
                0xf80883b4      0x184 C:/GCC4/ARM/s002/lib/armv7aLaiv/libc.a(misc.o)
                0xf80883b4                __diff_D2A
 .text.__b2d_D2A
                0xf8088538       0xd8 C:/GCC4/ARM/s002/lib/armv7aLaiv/libc.a(misc.o)
                0xf8088538                __b2d_D2A
 .text.__d2b_D2A
                0xf8088610      0x108 C:/GCC4/ARM/s002/lib/armv7aLaiv/libc.a(misc.o)
                0xf8088610                __d2b_D2A
 .text.__strcp_D2A
                0xf8088718       0x30 C:/GCC4/ARM/s002/lib/armv7aLaiv/libc.a(misc.o)
                0xf8088718                __strcp_D2A
 .text          0xf8088748        0x0 C:/GCC4/ARM/s002/lib/armv7aLaiv/libc.a(softfloat.o)
 .text.propagateFloat32NaN
                0xf8088748       0xe4 C:/GCC4/ARM/s002/lib/armv7aLaiv/libc.a(softfloat.o)
 .text.propagateFloat64NaN
                0xf808882c      0x1e0 C:/GCC4/ARM/s002/lib/armv7aLaiv/libc.a(softfloat.o)
 .text.roundAndPackFloat32
                0xf8088a0c      0x17c C:/GCC4/ARM/s002/lib/armv7aLaiv/libc.a(softfloat.o)
 .text.normalizeRoundAndPackFloat32
                0xf8088b88       0x4c C:/GCC4/ARM/s002/lib/armv7aLaiv/libc.a(softfloat.o)
 .text.roundAndPackFloat64
                0xf8088bd4      0x238 C:/GCC4/ARM/s002/lib/armv7aLaiv/libc.a(softfloat.o)
 .text.addFloat32Sigs
                0xf8088e0c      0x194 C:/GCC4/ARM/s002/lib/armv7aLaiv/libc.a(softfloat.o)
 .text.subFloat32Sigs
                0xf8088fa0      0x1b0 C:/GCC4/ARM/s002/lib/armv7aLaiv/libc.a(softfloat.o)
 .text.addFloat64Sigs
                0xf8089150      0x2f8 C:/GCC4/ARM/s002/lib/armv7aLaiv/libc.a(softfloat.o)
 .text.subFloat64Sigs
                0xf8089448      0x374 C:/GCC4/ARM/s002/lib/armv7aLaiv/libc.a(softfloat.o)
 .text._softfloat_float_raise
                0xf80897bc       0x18 C:/GCC4/ARM/s002/lib/armv7aLaiv/libc.a(softfloat.o)
                0xf80897bc                _softfloat_float_raise
 .text.__aeabi_i2f
                0xf80897d4       0x2c C:/GCC4/ARM/s002/lib/armv7aLaiv/libc.a(softfloat.o)
                0xf80897d4                __aeabi_i2f
 .text.__aeabi_i2d
                0xf8089800       0x98 C:/GCC4/ARM/s002/lib/armv7aLaiv/libc.a(softfloat.o)
                0xf8089800                __aeabi_i2d
 .text.__aeabi_f2iz
                0xf8089898       0xc8 C:/GCC4/ARM/s002/lib/armv7aLaiv/libc.a(softfloat.o)
                0xf8089898                __aeabi_f2iz
 .text.__aeabi_f2d
                0xf8089960      0x140 C:/GCC4/ARM/s002/lib/armv7aLaiv/libc.a(softfloat.o)
                0xf8089960                __aeabi_f2d
 .text.__aeabi_fadd
                0xf8089aa0       0x1c C:/GCC4/ARM/s002/lib/armv7aLaiv/libc.a(softfloat.o)
                0xf8089aa0                __aeabi_fadd
 .text.__aeabi_fsub
                0xf8089abc       0x1c C:/GCC4/ARM/s002/lib/armv7aLaiv/libc.a(softfloat.o)
                0xf8089abc                __aeabi_fsub
 .text.__aeabi_fmul
                0xf8089ad8      0x1a0 C:/GCC4/ARM/s002/lib/armv7aLaiv/libc.a(softfloat.o)
                0xf8089ad8                __aeabi_fmul
 .text.__aeabi_fdiv
                0xf8089c78      0x1e8 C:/GCC4/ARM/s002/lib/armv7aLaiv/libc.a(softfloat.o)
                0xf8089c78                __aeabi_fdiv
 .text._softfloat_float32_eq
                0xf8089e60       0xc4 C:/GCC4/ARM/s002/lib/armv7aLaiv/libc.a(softfloat.o)
                0xf8089e60                _softfloat_float32_eq
 .text._softfloat_float32_le
                0xf8089f24       0x9c C:/GCC4/ARM/s002/lib/armv7aLaiv/libc.a(softfloat.o)
                0xf8089f24                _softfloat_float32_le
 .text._softfloat_float32_lt
                0xf8089fc0       0xa0 C:/GCC4/ARM/s002/lib/armv7aLaiv/libc.a(softfloat.o)
                0xf8089fc0                _softfloat_float32_lt
 .text.__aeabi_d2iz
                0xf808a060      0x170 C:/GCC4/ARM/s002/lib/armv7aLaiv/libc.a(softfloat.o)
                0xf808a060                __aeabi_d2iz
 .text.__aeabi_d2f
                0xf808a1d0      0x110 C:/GCC4/ARM/s002/lib/armv7aLaiv/libc.a(softfloat.o)
                0xf808a1d0                __aeabi_d2f
 .text.__aeabi_dadd
                0xf808a2e0       0x30 C:/GCC4/ARM/s002/lib/armv7aLaiv/libc.a(softfloat.o)
                0xf808a2e0                __aeabi_dadd
 .text.__aeabi_dsub
                0xf808a310       0x30 C:/GCC4/ARM/s002/lib/armv7aLaiv/libc.a(softfloat.o)
                0xf808a310                __aeabi_dsub
 .text.__aeabi_dmul
                0xf808a340      0x354 C:/GCC4/ARM/s002/lib/armv7aLaiv/libc.a(softfloat.o)
                0xf808a340                __aeabi_dmul
 .text.__aeabi_ddiv
                0xf808a694      0x608 C:/GCC4/ARM/s002/lib/armv7aLaiv/libc.a(softfloat.o)
                0xf808a694                __aeabi_ddiv
 .text._softfloat_float64_eq
                0xf808ac9c      0x14c C:/GCC4/ARM/s002/lib/armv7aLaiv/libc.a(softfloat.o)
                0xf808ac9c                _softfloat_float64_eq
 .text._softfloat_float64_le
                0xf808ade8       0xec C:/GCC4/ARM/s002/lib/armv7aLaiv/libc.a(softfloat.o)
                0xf808ade8                _softfloat_float64_le
 .text._softfloat_float64_lt
                0xf808aed4       0xf0 C:/GCC4/ARM/s002/lib/armv7aLaiv/libc.a(softfloat.o)
                0xf808aed4                _softfloat_float64_lt
 .text          0xf808afc4        0x0 C:/GCC4/ARM/s002/lib/armv7aLaiv/libc.a(__aeabi_dcmpeq.o)
 .text.__aeabi_dcmpeq
                0xf808afc4        0x4 C:/GCC4/ARM/s002/lib/armv7aLaiv/libc.a(__aeabi_dcmpeq.o)
                0xf808afc4                __aeabi_dcmpeq
 .text          0xf808afc8        0x0 C:/GCC4/ARM/s002/lib/armv7aLaiv/libc.a(__aeabi_dcmpge.o)
 .text.__aeabi_dcmpge
                0xf808afc8       0x64 C:/GCC4/ARM/s002/lib/armv7aLaiv/libc.a(__aeabi_dcmpge.o)
                0xf808afc8                __aeabi_dcmpge
 .text          0xf808b02c        0x0 C:/GCC4/ARM/s002/lib/armv7aLaiv/libc.a(__aeabi_dcmpgt.o)
 .text.__aeabi_dcmpgt
                0xf808b02c       0x64 C:/GCC4/ARM/s002/lib/armv7aLaiv/libc.a(__aeabi_dcmpgt.o)
                0xf808b02c                __aeabi_dcmpgt
 .text          0xf808b090        0x0 C:/GCC4/ARM/s002/lib/armv7aLaiv/libc.a(__aeabi_dcmplt.o)
 .text.__aeabi_dcmplt
                0xf808b090        0x4 C:/GCC4/ARM/s002/lib/armv7aLaiv/libc.a(__aeabi_dcmplt.o)
                0xf808b090                __aeabi_dcmplt
 .text          0xf808b094        0x0 C:/GCC4/ARM/s002/lib/armv7aLaiv/libc.a(rb.o)
 .text.rb_tree_reparent_nodes.isra.0
                0xf808b094       0xe4 C:/GCC4/ARM/s002/lib/armv7aLaiv/libc.a(rb.o)
 .text.rb_tree_removal_rebalance.isra.1
                0xf808b178      0x16c C:/GCC4/ARM/s002/lib/armv7aLaiv/libc.a(rb.o)
 .text._rb_tree_init
                0xf808b2e4       0x18 C:/GCC4/ARM/s002/lib/armv7aLaiv/libc.a(rb.o)
                0xf808b2e4                rb_tree_init
                0xf808b2e4                _rb_tree_init
 .text._rb_tree_find_node
                0xf808b2fc       0x60 C:/GCC4/ARM/s002/lib/armv7aLaiv/libc.a(rb.o)
                0xf808b2fc                _rb_tree_find_node
                0xf808b2fc                rb_tree_find_node
 .text._rb_tree_find_node_geq
                0xf808b35c       0x7c C:/GCC4/ARM/s002/lib/armv7aLaiv/libc.a(rb.o)
                0xf808b35c                _rb_tree_find_node_geq
                0xf808b35c                rb_tree_find_node_geq
 .text._rb_tree_find_node_leq
                0xf808b3d8       0x7c C:/GCC4/ARM/s002/lib/armv7aLaiv/libc.a(rb.o)
                0xf808b3d8                rb_tree_find_node_leq
                0xf808b3d8                _rb_tree_find_node_leq
 .text._rb_tree_insert_node
                0xf808b454      0x1dc C:/GCC4/ARM/s002/lib/armv7aLaiv/libc.a(rb.o)
                0xf808b454                _rb_tree_insert_node
                0xf808b454                rb_tree_insert_node
 .text._rb_tree_iterate
                0xf808b630       0xb4 C:/GCC4/ARM/s002/lib/armv7aLaiv/libc.a(rb.o)
                0xf808b630                _rb_tree_iterate
                0xf808b630                rb_tree_iterate
 .text._rb_tree_remove_node
                0xf808b6e4      0x28c C:/GCC4/ARM/s002/lib/armv7aLaiv/libc.a(rb.o)
                0xf808b6e4                _rb_tree_remove_node
                0xf808b6e4                rb_tree_remove_node
 .text          0xf808b970        0x0 C:/GCC4/ARM/s002/lib/armv7aLaiv/libc.a(fflush.o)
 .text.__sflush
                0xf808b970       0xac C:/GCC4/ARM/s002/lib/armv7aLaiv/libc.a(fflush.o)
                0xf808b970                __sflush
 .text.fflush   0xf808ba1c       0x84 C:/GCC4/ARM/s002/lib/armv7aLaiv/libc.a(fflush.o)
                0xf808ba1c                fflush
 .text          0xf808baa0        0x0 C:/GCC4/ARM/s002/lib/armv7aLaiv/libc.a(flockfile.o)
 .text.__flockfile_internal.part.0
                0xf808baa0       0xf8 C:/GCC4/ARM/s002/lib/armv7aLaiv/libc.a(flockfile.o)
 .text.__funlockfile_internal.part.1
                0xf808bb98       0x84 C:/GCC4/ARM/s002/lib/armv7aLaiv/libc.a(flockfile.o)
 .text._flockfile
                0xf808bc1c       0x1c C:/GCC4/ARM/s002/lib/armv7aLaiv/libc.a(flockfile.o)
                0xf808bc1c                flockfile
                0xf808bc1c                _flockfile
 .text._ftrylockfile
                0xf808bc38       0x94 C:/GCC4/ARM/s002/lib/armv7aLaiv/libc.a(flockfile.o)
                0xf808bc38                ftrylockfile
                0xf808bc38                _ftrylockfile
 .text._funlockfile
                0xf808bccc       0x1c C:/GCC4/ARM/s002/lib/armv7aLaiv/libc.a(flockfile.o)
                0xf808bccc                funlockfile
                0xf808bccc                _funlockfile
 .text.__flockfile_internal
                0xf808bce8       0x18 C:/GCC4/ARM/s002/lib/armv7aLaiv/libc.a(flockfile.o)
                0xf808bce8                __flockfile_internal
 .text.__funlockfile_internal
                0xf808bd00       0x18 C:/GCC4/ARM/s002/lib/armv7aLaiv/libc.a(flockfile.o)
                0xf808bd00                __funlockfile_internal
 .text          0xf808bd18        0x0 C:/GCC4/ARM/s002/lib/armv7aLaiv/libc.a(fvwrite.o)
 .text.__sfvwrite
                0xf808bd18      0x400 C:/GCC4/ARM/s002/lib/armv7aLaiv/libc.a(fvwrite.o)
                0xf808bd18                __sfvwrite
 .text          0xf808c118        0x0 C:/GCC4/ARM/s002/lib/armv7aLaiv/libc.a(fwalk.o)
 .text._fwalk   0xf808c118       0x6c C:/GCC4/ARM/s002/lib/armv7aLaiv/libc.a(fwalk.o)
                0xf808c118                _fwalk
 .text          0xf808c184        0x0 C:/GCC4/ARM/s002/lib/armv7aLaiv/libc.a(creat.o)
 .text.creat    0xf808c184       0xa0 C:/GCC4/ARM/s002/lib/armv7aLaiv/libc.a(creat.o)
                0xf808c184                creat
 .text          0xf808c224        0x0 C:/GCC4/ARM/s002/lib/armv7aLaiv/libc.a(fpclassifyd_ieee754.o)
 .text.__fpclassifyd
                0xf808c224       0x60 C:/GCC4/ARM/s002/lib/armv7aLaiv/libc.a(fpclassifyd_ieee754.o)
                0xf808c224                __fpclassifyd
 .text          0xf808c284        0x0 C:/GCC4/ARM/s002/lib/armv7aLaiv/libc.a(strcasecmp.o)
 .text._strcasecmp
                0xf808c284       0x48 C:/GCC4/ARM/s002/lib/armv7aLaiv/libc.a(strcasecmp.o)
                0xf808c284                strcasecmp
                0xf808c284                _strcasecmp
 .text          0xf808c2cc        0x0 C:/GCC4/ARM/s002/lib/armv7aLaiv/libc.a(gdtoa_locks.o)
 .text          0xf808c2cc      0x240 C:/GCC4/ARM/s002/lib/armv7aLaiv/libgcc.a(_divsi3.o)
                0xf808c2cc                __divsi3
                0xf808c2cc                __aeabi_idiv
                0xf808c4ec                __aeabi_idivmod
 .text          0xf808c50c      0x3b8 C:/GCC4/ARM/s002/lib/armv7aLaiv/libgcc.a(_arm_addsubdf3.o)
                0xf808c50c                __aeabi_drsub
                0xf808c514                __libgcc_orig__aeabi_dsub
                0xf808c514                __subdf3
                0xf808c518                __adddf3
                0xf808c518                __libgcc_orig__aeabi_dadd
                0xf808c7c4                __floatunsidf
                0xf808c7c4                __aeabi_ui2d
                0xf808c7e8                __floatsidf
                0xf808c7e8                __libgcc_orig__aeabi_i2d
                0xf808c810                __libgcc_orig__aeabi_f2d
                0xf808c810                __extendsfdf2
                0xf808c850                __floatundidf
                0xf808c850                __aeabi_ul2d
                0xf808c864                __floatdidf
                0xf808c864                __aeabi_l2d
 .text          0xf808c8c4       0xd4 C:/GCC4/ARM/s002/lib/armv7aLaiv/libgcc.a(_aeabi_ldivmod.o)
                0xf808c8c4                __aeabi_ldivmod
 *(.glue_7t)
 .glue_7t       0xf808c998        0x0 linker stubs
 *(.glue_7)
 .glue_7        0xf808c998        0x0 linker stubs
                0xf808c998                _solid_text_end = .
                0x00010000                _solid_text_offs = (_solid_text_start - _solid_start)
                0x0007c998                _solid_text_size = (_solid_text_end - _solid_text_start)

.vfp11_veneer   0xf808c998        0x0
 .vfp11_veneer  0xf808c998        0x0 linker stubs

.v4_bx          0xf808c998        0x0
 .v4_bx         0xf808c998        0x0 linker stubs

.iplt           0xf808c998        0x0
 .iplt          0xf808c998        0x0 C:/Users/admin/Documents/SOLID-IDE/Projects/lwip_server/Debug_tasan/exeClang_SOLID/lwip_server/lwip_server_all.o

.solid_mon      0xf808d000        0x0
                0xf808d000                _solid_mon_start = .
 *(.solid_mon)
 *(.smon_text)
 *(.smon_data)
                0xf808d000                _solid_mon_end = .
                0x0008d000                _solid_mon_offs = (_solid_mon_start - _solid_start)
                0x00000000                _solid_mon_size = (_solid_mon_end - _solid_mon_start)

.rodata         0xf808d000     0xa114
                0xf808d000                _solid_rodata_start = .
 *(.rodata .rodata.*)
 .rodata        0xf808d000     0x18a8 C:/Users/admin/Documents/SOLID-IDE/Projects/lwip_server/Debug_tasan/exeClang_SOLID/lwip_server/lwip_server_all.o
                0xf808d7e0                _kernel_tinib_table
                0xf808d8a0                _kernel_torder_table
                0xf808d8e0                _kernel_seminib_table
                0xf808d940                _kernel_flginib_table
                0xf808d960                _kernel_dtqinib_table
                0xf808d9c0                _kernel_pdqinib_table
                0xf808d9e0                _kernel_mtxinib_table
                0xf808da00                _kernel_mpfinib_table
                0xf808da20                _kernel_cycinib_table
                0xf808da40                _kernel_alminib_table
                0xf808da60                _kernel_intinib_table
                0xf808da80                _kernel_isrini_cfg_table
                0xf808daa0                _kernel_isrorder_table
                0xf808dac0                _kernel_tmax_stskid
                0xf808db00                _kernel_tmax_tskid
                0xf808db40                _kernel_tnum_tcb
                0xf808db80                _kernel_tmax_ssemid
                0xf808dbc0                _kernel_tmax_semid
                0xf808dc00                _kernel_tnum_semcb
                0xf808dc40                _kernel_tmax_sflgid
                0xf808dc80                _kernel_tmax_flgid
                0xf808dcc0                _kernel_tnum_flgcb
                0xf808dd00                _kernel_tmax_sdtqid
                0xf808dd40                _kernel_tmax_dtqid
                0xf808dd80                _kernel_tnum_dtqcb
                0xf808ddc0                _kernel_tmax_spdqid
                0xf808de00                _kernel_tmax_pdqid
                0xf808de40                _kernel_tnum_pdqcb
                0xf808de80                _kernel_tmax_smtxid
                0xf808dec0                _kernel_tmax_mtxid
                0xf808df00                _kernel_tnum_mtxcb
                0xf808df40                _kernel_tmax_smpfid
                0xf808df80                _kernel_tmax_mpfid
                0xf808dfc0                _kernel_tnum_mpfcb
                0xf808e000                _kernel_tmax_scycid
                0xf808e040                _kernel_tmax_cycid
                0xf808e080                _kernel_tnum_cyccb
                0xf808e0c0                _kernel_tmax_salmid
                0xf808e100                _kernel_tmax_almid
                0xf808e140                _kernel_tnum_almcb
                0xf808e180                _kernel_tmax_sisrid
                0xf808e1c0                _kernel_tmax_isrid
                0xf808e200                _kernel_tnum_isrcb
                0xf808e240                _kernel_tnum_cfg_intno
                0xf808e280                _kernel_tnum_isr_queue
                0xf808e2c0                _kernel_kmmsz
                0xf808e300                _kernel_kmm
                0xf808e340                __NET_SYS_SEM_ID_BASE__
                0xf808e380                __NET_SYS_DTQ_ID_BASE__
                0xf808e3c0                __NET_SYS_TSK_ID_BASE__
 .rodata.str1.1
                0xf808e8a8      0x5be C:/Users/admin/Documents/SOLID-IDE/Projects/lwip_server/Debug_tasan/exeClang_SOLID/lwip_server/lwip_server_all.o
                               0x219d (size before relaxing)
 .rodata.str1.1
                0xf808ee66      0x15d C:/ProgramData/KMC/SOLID/SDK/2.0/solid-os/core/lib/armv7aLaiv/CT_\libsolid_cs.a(solid_cs_event.o)
 *fill*         0xf808efc3        0x1 
 .rodata._ZTVN3kmg5solid4dmac10ControllerE
                0xf808efc4       0x10 C:/ProgramData/KMC/SOLID/SDK/2.0/solid-os/core/lib/armv7aLaiv/CT_\libsolid_cs.a(solid_dmac.o)
                0xf808efc4                _ZTVN3kmg5solid4dmac10ControllerE
 *fill*         0xf808efd4        0xc 
 .rodata._ZTSN3kmg5solid4dmac10ControllerE
                0xf808efe0       0x1e C:/ProgramData/KMC/SOLID/SDK/2.0/solid-os/core/lib/armv7aLaiv/CT_\libsolid_cs.a(solid_dmac.o)
                0xf808efe0                _ZTSN3kmg5solid4dmac10ControllerE
 *fill*         0xf808effe        0x2 
 .rodata._ZTIN3kmg5solid4dmac10ControllerE
                0xf808f000        0x8 C:/ProgramData/KMC/SOLID/SDK/2.0/solid-os/core/lib/armv7aLaiv/CT_\libsolid_cs.a(solid_dmac.o)
                0xf808f000                _ZTIN3kmg5solid4dmac10ControllerE
 .rodata.str1.1
                0xf808f008      0x15d C:/ProgramData/KMC/SOLID/SDK/2.0/solid-os/core/lib/armv7aLaiv/CT_\libsolid_cs.a(solid_fs_base.o)
                                  0x2 (size before relaxing)
 .rodata.str1.1
                0xf808f008        0x6 C:/ProgramData/KMC/SOLID/SDK/2.0/solid-os/core/lib/armv7aLaiv/CT_\libsolid_cs.a(solid_fs_mem.o)
 .rodata.str1.1
                0xf808f00e        0x8 C:/ProgramData/KMC/SOLID/SDK/2.0/solid-os/core/lib/armv7aLaiv/CT_\libsolid_cs.a(solid_fs_vlink.o)
 .rodata.str1.1
                0xf808f016       0xfb C:/ProgramData/KMC/SOLID/SDK/2.0/solid-os/core/lib/armv7aLaiv/CT_\libsolid_cs.a(solid_intc.o)
 *fill*         0xf808f111        0xf 
 .rodata        0xf808f120       0x38 C:/ProgramData/KMC/SOLID/SDK/2.0/solid-os/core/lib/armv7aLaiv/CT_\libsolid_cs.a(solid_iores.o)
                0xf808f120                _ZTVN3kmg5solid5iores9IOManagerE
                0xf808f130                _ZTSN3kmg5solid5iores9IOManagerE
                0xf808f150                _ZTIN3kmg5solid5iores9IOManagerE
 *fill*         0xf808f158        0x8 
 .rodata        0xf808f160      0x134 C:/ProgramData/KMC/SOLID/SDK/2.0/solid-os/core/lib/armv7aLaiv/CT_\libsolid_cs.a(solid_loader.o)
                0xf808f160                _ZTVN3kmg5solid3elf7SectionE
                0xf808f170                _ZTVN3kmg5solid3elf7SegmentE
                0xf808f180                _ZTVN3kmg5solid3elf9ELFObjectE
                0xf808f190                _ZTVN3kmg5solid3elf12RelocateInfoE
                0xf808f1a0                _ZTVN3kmg5solid3elf6SymbolE
                0xf808f1b0                _ZTSN3kmg5solid3elf7SectionE
                0xf808f1cc                _ZTIN3kmg5solid3elf7SectionE
                0xf808f1e0                _ZTSN3kmg5solid3elf7SegmentE
                0xf808f1fc                _ZTIN3kmg5solid3elf7SegmentE
                0xf808f210                _ZTSN3kmg5solid3elf9ELFObjectE
                0xf808f22c                _ZTIN3kmg5solid3elf9ELFObjectE
                0xf808f240                _ZTSN3kmg5solid3elf12RelocateInfoE
                0xf808f260                _ZTIN3kmg5solid3elf12RelocateInfoE
                0xf808f270                _ZTSN3kmg5solid3elf6SymbolE
                0xf808f288                _ZTIN3kmg5solid3elf6SymbolE
 .rodata.str1.1
                0xf808f294        0xd C:/ProgramData/KMC/SOLID/SDK/2.0/solid-os/core/lib/armv7aLaiv/CT_\libsolid_cs.a(solid_loader.o)
 *fill*         0xf808f2a1        0xf 
 .rodata._ZTSN3kmg5solid3elf10LinkObjectE
                0xf808f2b0       0x1d C:/ProgramData/KMC/SOLID/SDK/2.0/solid-os/core/lib/armv7aLaiv/CT_\libsolid_cs.a(solid_loader.o)
                0xf808f2b0                _ZTSN3kmg5solid3elf10LinkObjectE
 *fill*         0xf808f2cd        0x3 
 .rodata._ZTIN3kmg5solid3elf10LinkObjectE
                0xf808f2d0        0x8 C:/ProgramData/KMC/SOLID/SDK/2.0/solid-os/core/lib/armv7aLaiv/CT_\libsolid_cs.a(solid_loader.o)
                0xf808f2d0                _ZTIN3kmg5solid3elf10LinkObjectE
 .rodata._ZTVN3kmg5solid3elf11LoadManagerE
                0xf808f2d8       0x10 C:/ProgramData/KMC/SOLID/SDK/2.0/solid-os/core/lib/armv7aLaiv/CT_\libsolid_cs.a(solid_loader.o)
                0xf808f2d8                _ZTVN3kmg5solid3elf11LoadManagerE
 *fill*         0xf808f2e8        0x8 
 .rodata._ZTSN3kmg5solid3elf11LoadManagerE
                0xf808f2f0       0x1e C:/ProgramData/KMC/SOLID/SDK/2.0/solid-os/core/lib/armv7aLaiv/CT_\libsolid_cs.a(solid_loader.o)
                0xf808f2f0                _ZTSN3kmg5solid3elf11LoadManagerE
 *fill*         0xf808f30e        0x2 
 .rodata._ZTIN3kmg5solid3elf11LoadManagerE
                0xf808f310        0x8 C:/ProgramData/KMC/SOLID/SDK/2.0/solid-os/core/lib/armv7aLaiv/CT_\libsolid_cs.a(solid_loader.o)
                0xf808f310                _ZTIN3kmg5solid3elf11LoadManagerE
 .rodata._ZTVN3kmg5solid3elf10LinkObjectE
                0xf808f318       0x10 C:/ProgramData/KMC/SOLID/SDK/2.0/solid-os/core/lib/armv7aLaiv/CT_\libsolid_cs.a(solid_loader.o)
                0xf808f318                _ZTVN3kmg5solid3elf10LinkObjectE
 .rodata.str1.1
                0xf808f328      0x7d4 C:/ProgramData/KMC/SOLID/SDK/2.0/solid-os/core/lib/armv7aLaiv/CT_\libsolid_cs.a(solid_loader_fixed.o)
 .rodata.str1.1
                0xf808fafc       0x52 C:/ProgramData/KMC/SOLID/SDK/2.0/solid-os/core/lib/armv7aLaiv/CT_\libsolid_cs.a(solid_malloc.o)
 .rodata.str1.1
                0xf808fb4e       0x57 C:/ProgramData/KMC/SOLID/SDK/2.0/solid-os/core/lib/armv7aLaiv/CT_\libsolid_cs.a(solid_mem.o)
 *fill*         0xf808fba5        0x3 
 .rodata._ZTVN3kmg5solid10MemManagerImEE
                0xf808fba8       0x10 C:/ProgramData/KMC/SOLID/SDK/2.0/solid-os/core/lib/armv7aLaiv/CT_\libsolid_cs.a(solid_mem.o)
                0xf808fba8                _ZTVN3kmg5solid10MemManagerImEE
 *fill*         0xf808fbb8        0x8 
 .rodata._ZTSN3kmg5solid10MemManagerImEE
                0xf808fbc0       0x1c C:/ProgramData/KMC/SOLID/SDK/2.0/solid-os/core/lib/armv7aLaiv/CT_\libsolid_cs.a(solid_mem.o)
                0xf808fbc0                _ZTSN3kmg5solid10MemManagerImEE
 .rodata._ZTIN3kmg5solid10MemManagerImEE
                0xf808fbdc        0x8 C:/ProgramData/KMC/SOLID/SDK/2.0/solid-os/core/lib/armv7aLaiv/CT_\libsolid_cs.a(solid_mem.o)
                0xf808fbdc                _ZTIN3kmg5solid10MemManagerImEE
 .rodata._ZTVN3kmg5solid12StackManagerImEE
                0xf808fbe4       0x10 C:/ProgramData/KMC/SOLID/SDK/2.0/solid-os/core/lib/armv7aLaiv/CT_\libsolid_cs.a(solid_mem.o)
                0xf808fbe4                _ZTVN3kmg5solid12StackManagerImEE
 *fill*         0xf808fbf4        0xc 
 .rodata._ZTSN3kmg5solid12StackManagerImEE
                0xf808fc00       0x1e C:/ProgramData/KMC/SOLID/SDK/2.0/solid-os/core/lib/armv7aLaiv/CT_\libsolid_cs.a(solid_mem.o)
                0xf808fc00                _ZTSN3kmg5solid12StackManagerImEE
 *fill*         0xf808fc1e        0x2 
 .rodata._ZTIN3kmg5solid12StackManagerImEE
                0xf808fc20        0xc C:/ProgramData/KMC/SOLID/SDK/2.0/solid-os/core/lib/armv7aLaiv/CT_\libsolid_cs.a(solid_mem.o)
                0xf808fc20                _ZTIN3kmg5solid12StackManagerImEE
 .rodata.str1.1
                0xf808fc2c        0xa C:/ProgramData/KMC/SOLID/SDK/2.0/solid-os/core/lib/armv7aLaiv/CT_\libsolid_cs.a(solid_mem_cache.o)
 .rodata.str1.1
                0xf808fc36        0x6 C:/ProgramData/KMC/SOLID/SDK/2.0/solid-os/core/lib/armv7aLaiv/CT_\libsolid_cs.a(tasan.o)
 .rodata.str1.1
                0xf808fc3c       0x4e C:/ProgramData/KMC/SOLID/SDK/2.0/solid-os/core/lib/armv7aLaiv/CT_\libsolid_cs.a(dlmalloc.o)
 .rodata.str1.1
                0xf808fc8a       0x32 C:/ProgramData/KMC/SOLID/SDK/2.0/solid-os/net/lwIP/lib/armv7aLaiv/CT_\libnet.a(sys_arch.o)
 .rodata.str1.1
                0xf808fcbc       0x48 C:/ProgramData/KMC/SOLID/SDK/2.0/solid-os/net/lwIP/lib/armv7aLaiv/CT_\libnet.a(def.o)
 .rodata        0xf808fd04        0x8 C:/ProgramData/KMC/SOLID/SDK/2.0/solid-os/net/lwIP/lib/armv7aLaiv/CT_\libnet.a(ip4_addr.o)
                0xf808fd04                ip_addr_any
                0xf808fd08                ip_addr_broadcast
 .rodata.str1.1
                0xf808fd0c       0x91 C:/ProgramData/KMC/SOLID/SDK/2.0/solid-os/net/lwIP/lib/armv7aLaiv/CT_\libnet.a(memp.o)
 *fill*         0xf808fd9d        0x3 
 .rodata        0xf808fda0      0x150 C:/ProgramData/KMC/SOLID/SDK/2.0/solid-os/net/lwIP/lib/armv7aLaiv/CT_\libnet.a(memp.o)
                0xf808fda0                memp_UDP_PCB
                0xf808fdb4                memp_TCP_PCB
                0xf808fdc8                memp_TCP_PCB_LISTEN
                0xf808fddc                memp_TCP_SEG
                0xf808fdf0                memp_REASSDATA
                0xf808fe04                memp_FRAG_PBUF
                0xf808fe18                memp_NETBUF
                0xf808fe2c                memp_NETCONN
                0xf808fe40                memp_TCPIP_MSG_API
                0xf808fe54                memp_TCPIP_MSG_INPKT
                0xf808fe68                memp_SYS_TIMEOUT
                0xf808fe7c                memp_NETDB
                0xf808fe90                memp_PBUF
                0xf808fea4                memp_PBUF_POOL
                0xf808feb8                memp_pools
 .rodata.str1.1
                0xf808fef0       0x91 C:/ProgramData/KMC/SOLID/SDK/2.0/solid-os/net/lwIP/lib/armv7aLaiv/CT_\libnet.a(stats.o)
                                  0x4 (size before relaxing)
 .rodata        0xf808fef0       0x50 C:/ProgramData/KMC/SOLID/SDK/2.0/solid-os/net/lwIP/lib/armv7aLaiv/CT_\libnet.a(tcp.o)
                0xf808fef0                tcp_pcb_lists
 .rodata.str1.1
                0xf808ff40       0x61 C:/ProgramData/KMC/SOLID/SDK/2.0/solid-os/net/lwIP/lib/armv7aLaiv/CT_\libnet.a(tcp.o)
                                 0x68 (size before relaxing)
 *fill*         0xf808ffa1        0x3 
 .rodata        0xf808ffa4       0x30 C:/ProgramData/KMC/SOLID/SDK/2.0/solid-os/net/lwIP/lib/armv7aLaiv/CT_\libnet.a(timeouts.o)
                0xf808ffa4                lwip_cyclic_timers
 .rodata        0xf808ffd4        0xc C:/ProgramData/KMC/SOLID/SDK/2.0/solid-os/net/lwIP/lib/armv7aLaiv/CT_\libnet.a(ethernet.o)
                0xf808ffd4                ethbroadcast
                0xf808ffda                ethzero
 .rodata.str1.1
                0xf808ffe0       0x8f C:/ProgramData/KMC/SOLID/SDK/2.0/solid-os/net/lwIP/lib/armv7aLaiv/CT_\libnet.a(solid_net_if.o)
 *fill*         0xf809006f        0x1 
 .rodata        0xf8090070       0x10 C:/ProgramData/KMC/SOLID/SDK/2.0/solid-os/net/lwIP/lib/armv7aLaiv/CT_\libnet.a(solid_net_if.o)
 .rodata.str1.1
                0xf8090080      0x459 C:/ProgramData/KMC/SOLID/SDK/2.0/solid-os/net/lwIP/lib/armv7aLaiv/CT_\libnet.a(solid_net_registerapi.o)
 .rodata.str1.1
                0xf80904d9      0x10d C:/ProgramData/KMC/SOLID/SDK/2.0/solid-os/net/lwIP/lib/armv7aLaiv/CT_\libnet.a(impl_net_stack.o)
                                0x10f (size before relaxing)
 *fill*         0xf80905e6        0x2 
 .rodata        0xf80905e8       0x18 C:/ProgramData/KMC/SOLID/SDK/2.0/solid-os/net/lwIP/lib/armv7aLaiv/CT_\libnet.a(impl_net_stack.o)
                0xf80905e8                impl_pktbuf_ops
 .rodata        0xf8090600      0x5e8 C:/ProgramData/KMC/SOLID/SDK/2.0/solid-os/net/lwIP/lib/armv7aLaiv/CT_\libnet.a(impl_net_stack_errno.o)
 .rodata.str1.1
                0xf8090be8      0xf69 C:/ProgramData/KMC/SOLID/SDK/2.0/solid-os/net/lwIP/lib/armv7aLaiv/CT_\libnet.a(impl_net_stack_errno.o)
                                0xf77 (size before relaxing)
 *fill*         0xf8091b51        0x3 
 .rodata        0xf8091b54       0x44 C:/ProgramData/KMC/SOLID/SDK/2.0/solid-os/net/lwIP/lib/armv7aLaiv/CT_\libnet.a(err.o)
 .rodata.str1.1
                0xf8091b98      0x135 C:/ProgramData/KMC/SOLID/SDK/2.0/solid-os/net/lwIP/lib/armv7aLaiv/CT_\libnet.a(err.o)
 *fill*         0xf8091ccd        0x3 
 .rodata        0xf8091cd0        0x4 C:/ProgramData/KMC/SOLID/SDK/2.0/solid-os/net/lwIP/lib/armv7aLaiv/CT_\libnet.a(dns.o)
                0xf8091cd0                dns_mquery_v4group
 .rodata.str1.1
                0xf8091cd4       0xaa C:/ProgramData/KMC/SOLID/SDK/2.0/solid-os/rtos/toppers_asp3/lib/armv7aLaiv/CT__\libkernel.a(dataqueue.o)
 .rodata.str1.1
                0xf8091d7e       0x54 C:/ProgramData/KMC/SOLID/SDK/2.0/solid-os/rtos/toppers_asp3/lib/armv7aLaiv/CT__\libkernel.a(interrupt.o)
 .rodata.str1.1
                0xf8091dd2       0x60 C:/ProgramData/KMC/SOLID/SDK/2.0/solid-os/rtos/toppers_asp3/lib/armv7aLaiv/CT__\libkernel.a(semaphore.o)
 .rodata.str1.1
                0xf8091dd2       0x2b C:/ProgramData/KMC/SOLID/SDK/2.0/solid-os/rtos/toppers_asp3/lib/armv7aLaiv/CT__\libkernel.a(startup.o)
                                 0x2d (size before relaxing)
 .rodata.str1.1
                0xf8091dfd       0x42 C:/ProgramData/KMC/SOLID/SDK/2.0/solid-os/rtos/toppers_asp3/lib/armv7aLaiv/CT__\libkernel.a(task.o)
                                 0xa2 (size before relaxing)
 .rodata.str1.1
                0xf8091e3f       0x45 C:/ProgramData/KMC/SOLID/SDK/2.0/solid-os/rtos/toppers_asp3/lib/armv7aLaiv/CT__\libkernel.a(task_manage.o)
 .rodata.str1.1
                0xf8091e3f       0x3e C:/ProgramData/KMC/SOLID/SDK/2.0/solid-os/rtos/toppers_asp3/lib/armv7aLaiv/CT__\libkernel.a(time_event.o)
 .rodata.str1.1
                0xf8091e7d       0x81 C:/ProgramData/KMC/SOLID/SDK/2.0/solid-os/rtos/toppers_asp3/lib/armv7aLaiv/CT__\libkernel.a(wait.o)
                                 0xe1 (size before relaxing)
 .rodata.str1.1
                0xf8091efe      0x2f3 C:/ProgramData/KMC/SOLID/SDK/2.0/solid-os/rtos/toppers_asp3/lib/armv7aLaiv/CT__\libkernel.a(solid_rtos_registerapi.o)
                                0x343 (size before relaxing)
 .rodata        0xf80921f1        0x4 C:/ProgramData/KMC/SOLID/SDK/2.0/solid-os/rtos/toppers_asp3/lib/armv7aLaiv/CT__\libkernel.a(kmc_evttracker_rtos.o)
                0xf80921f1                __kmc_eventlog_tstat_mask
 *fill*         0xf80921f5        0x3 
 .rodata        0xf80921f8        0xc C:/ProgramData/KMC/SOLID/SDK/2.0/solid-os/rtos/toppers_asp3/lib/armv7aLaiv/CT__\libkernel.a(kernel_cfg_intl.o)
                0xf80921f8                _kernel_istksz
                0xf80921fc                _kernel_istk
                0xf8092200                _kernel_istkpt
 .rodata.str1.1
                0xf8092204      0x20b C:/ProgramData/KMC/SOLID/SDK/2.0/solid-os/rtos/toppers_asp3/lib/armv7aLaiv/CT__\libkernel.a(core_kernel_impl.o)
 .rodata.str1.1
                0xf809240f       0x45 C:/ProgramData/KMC/SOLID/SDK/2.0/solid-os/rtos/toppers_asp3/lib/armv7aLaiv/CT__\libkernel.a(eventflag.o)
 .rodata.str1.1
                0xf809240f       0x5d C:/ProgramData/KMC/SOLID/SDK/2.0/solid-os/rtos/toppers_asp3/lib/armv7aLaiv/CT__\libkernel.a(mempfix.o)
                                 0xbd (size before relaxing)
 .rodata.str1.1
                0xf809246c       0x40 C:/ProgramData/KMC/SOLID/SDK/2.0/solid-os/rtos/toppers_asp3/lib/armv7aLaiv/CT__\libkernel.a(mutex.o)
                                 0xe4 (size before relaxing)
 .rodata.str1.1
                0xf80924ac       0x49 C:/ProgramData/KMC/SOLID/SDK/2.0/solid-os/rtos/toppers_asp3/lib/armv7aLaiv/CT__\libkernel.a(pridataq.o)
                                 0xa9 (size before relaxing)
 .rodata.str1.1
                0xf80924f5       0x44 C:/ProgramData/KMC/SOLID/SDK/2.0/solid-os/rtos/toppers_asp3/lib/armv7aLaiv/CT__\libkernel.a(task_sync.o)
 .rodata        0xf80924f5       0x2d C:/ProgramData/KMC/SOLID/SDK/2.0/solid-os/rtos/toppers_asp3/lib/armv7aLaiv/CT__\libkernel.a(log_output.o)
 .rodata.str1.1
                0xf8092522       0x34 C:/ProgramData/KMC/SOLID/SDK/2.0/solid-os/rtos/toppers_asp3/lib/armv7aLaiv/CT__\libkernel.a(log_output.o)
 *fill*         0xf8092556        0xa 
 .rodata        0xf8092560      0x1ac C:/Users/admin/Documents/SOLID-IDE/Projects/lwip_server/Debug_tasan/exeClang_SOLID/\libbsp.a(impl_dmac.o)
 .rodata.str1.1
                0xf809270c       0x7a C:/Users/admin/Documents/SOLID-IDE/Projects/lwip_server/Debug_tasan/exeClang_SOLID/\libbsp.a(impl_dmac.o)
                                0x2a8 (size before relaxing)
 *fill*         0xf8092786       0x1a 
 .rodata        0xf80927a0     0x1454 C:/Users/admin/Documents/SOLID-IDE/Projects/lwip_server/Debug_tasan/exeClang_SOLID/\libbsp.a(impl_iores.o)
 .rodata.str1.1
                0xf8093bf4       0x6a C:/Users/admin/Documents/SOLID-IDE/Projects/lwip_server/Debug_tasan/exeClang_SOLID/\libbsp.a(impl_iores.o)
                               0x1ec6 (size before relaxing)
 *fill*         0xf8093c5e        0x2 
 .rodata        0xf8093c60       0xbc C:/Users/admin/Documents/SOLID-IDE/Projects/lwip_server/Debug_tasan/exeClang_SOLID/\libbsp.a(impl_log.o)
 .rodata.str1.1
                0xf8093d1c       0x7a C:/Users/admin/Documents/SOLID-IDE/Projects/lwip_server/Debug_tasan/exeClang_SOLID/\libbsp.a(impl_log.o)
                                 0xec (size before relaxing)
 *fill*         0xf8093d96        0xa 
 .rodata        0xf8093da0      0x228 C:/Users/admin/Documents/SOLID-IDE/Projects/lwip_server/Debug_tasan/exeClang_SOLID/\libbsp.a(impl_net_dev_ether.o)
 .rodata.str1.1
                0xf8093fc8      0x17c C:/Users/admin/Documents/SOLID-IDE/Projects/lwip_server/Debug_tasan/exeClang_SOLID/\libbsp.a(impl_net_dev_ether.o)
                                0xa20 (size before relaxing)
 *fill*         0xf8094144       0x1c 
 .rodata        0xf8094160      0x208 C:/Users/admin/Documents/SOLID-IDE/Projects/lwip_server/Debug_tasan/exeClang_SOLID/\libbsp.a(impl_net_dev_get_macaddr.o)
 .rodata.str1.1
                0xf8094368       0x97 C:/Users/admin/Documents/SOLID-IDE/Projects/lwip_server/Debug_tasan/exeClang_SOLID/\libbsp.a(impl_net_dev_get_macaddr.o)
                                0x39d (size before relaxing)
 *fill*         0xf80943ff        0x1 
 .rodata        0xf8094400      0x1a0 C:/Users/admin/Documents/SOLID-IDE/Projects/lwip_server/Debug_tasan/exeClang_SOLID/\libbsp.a(impl_net_dev_getconfig.o)
                0xf80944c0                _network_config
 .rodata.str1.1
                0xf80945a0       0x7f C:/Users/admin/Documents/SOLID-IDE/Projects/lwip_server/Debug_tasan/exeClang_SOLID/\libbsp.a(impl_net_dev_getconfig.o)
                                0x1ff (size before relaxing)
 *fill*         0xf809461f        0x1 
 .rodata        0xf8094620       0xa1 C:/Users/admin/Documents/SOLID-IDE/Projects/lwip_server/Debug_tasan/exeClang_SOLID/\libbsp.a(impl_rtc.o)
 .rodata.str1.1
                0xf80946c1       0x20 C:/Users/admin/Documents/SOLID-IDE/Projects/lwip_server/Debug_tasan/exeClang_SOLID/\libbsp.a(impl_rtc.o)
                                 0x36 (size before relaxing)
 *fill*         0xf80946e1       0x1f 
 .rodata        0xf8094700      0x114 C:/Users/admin/Documents/SOLID-IDE/Projects/lwip_server/Debug_tasan/exeClang_SOLID/\libbsp.a(impl_timer.o)
 .rodata.str1.1
                0xf8094814       0x7a C:/Users/admin/Documents/SOLID-IDE/Projects/lwip_server/Debug_tasan/exeClang_SOLID/\libbsp.a(impl_timer.o)
                                0x1c5 (size before relaxing)
 .rodata.str1.1
                0xf809488e       0x1d C:/Users/admin/Documents/SOLID-IDE/Projects/lwip_server/Debug_tasan/exeClang_SOLID/\libbsp.a(rtc.o)
                                 0x58 (size before relaxing)
 .rodata.str1.1
                0xf80948ab        0xa C:/Users/admin/Documents/SOLID-IDE/Projects/lwip_server/Debug_tasan/exeClang_SOLID/\libbsp.a(rtc_userdef.o)
 *fill*         0xf80948ab       0x15 
 .rodata        0xf80948c0      0x48c C:/Users/admin/Documents/SOLID-IDE/Projects/lwip_server/Debug_tasan/exeClang_SOLID/\libbsp.a(bsp_globals.o)
 .rodata.str1.1
                0xf8094d4c       0x64 C:/Users/admin/Documents/SOLID-IDE/Projects/lwip_server/Debug_tasan/exeClang_SOLID/\libbsp.a(bsp_globals.o)
                                0x666 (size before relaxing)
 .rodata.str1.1
                0xf8094db0       0x3c C:/Users/admin/Documents/SOLID-IDE/Projects/lwip_server/Debug_tasan/exeClang_SOLID/\libbsp.a(rza_io_regrw.o)
 .rodata._ZTIN10__cxxabiv117__class_type_infoE
                0xf8094db0        0xc C:/GCC4/ARM/s002/lib/armv7aLaiv\libstdc++.a(class_type_info.o)
                0xf8094db0                _ZTIN10__cxxabiv117__class_type_infoE
 .rodata._ZTSN10__cxxabiv117__class_type_infoE
                0xf8094dbc       0x22 C:/GCC4/ARM/s002/lib/armv7aLaiv\libstdc++.a(class_type_info.o)
                0xf8094dbc                _ZTSN10__cxxabiv117__class_type_infoE
 *fill*         0xf8094dde        0x2 
 .rodata._ZTVN10__cxxabiv117__class_type_infoE
                0xf8094de0       0x2c C:/GCC4/ARM/s002/lib/armv7aLaiv\libstdc++.a(class_type_info.o)
                0xf8094de0                _ZTVN10__cxxabiv117__class_type_infoE
 .rodata._ZSt7nothrow
                0xf8094e0c        0x1 C:/GCC4/ARM/s002/lib/armv7aLaiv\libstdc++.a(new_handler.o)
                0xf8094e0c                _ZSt7nothrow
 *fill*         0xf8094e0d        0x3 
 .rodata._ZTIN10__cxxabiv120__si_class_type_infoE
                0xf8094e10        0xc C:/GCC4/ARM/s002/lib/armv7aLaiv\libstdc++.a(si_class_type_info.o)
                0xf8094e10                _ZTIN10__cxxabiv120__si_class_type_infoE
 .rodata._ZTSN10__cxxabiv120__si_class_type_infoE
                0xf8094e1c       0x25 C:/GCC4/ARM/s002/lib/armv7aLaiv\libstdc++.a(si_class_type_info.o)
                0xf8094e1c                _ZTSN10__cxxabiv120__si_class_type_infoE
 *fill*         0xf8094e41        0x3 
 .rodata._ZTVN10__cxxabiv120__si_class_type_infoE
                0xf8094e44       0x2c C:/GCC4/ARM/s002/lib/armv7aLaiv\libstdc++.a(si_class_type_info.o)
                0xf8094e44                _ZTVN10__cxxabiv120__si_class_type_infoE
 .rodata._ZTISt9type_info
                0xf8094e70        0x8 C:/GCC4/ARM/s002/lib/armv7aLaiv\libstdc++.a(tinfo.o)
                0xf8094e70                _ZTISt9type_info
 .rodata._ZTSSt9type_info
                0xf8094e78        0xd C:/GCC4/ARM/s002/lib/armv7aLaiv\libstdc++.a(tinfo.o)
                0xf8094e78                _ZTSSt9type_info
 *fill*         0xf8094e85        0x3 
 .rodata._ZTVSt9type_info
                0xf8094e88       0x20 C:/GCC4/ARM/s002/lib/armv7aLaiv\libstdc++.a(tinfo.o)
                0xf8094e88                _ZTVSt9type_info
 .rodata.abort.str1.4
                0xf8094ea8       0x21 C:/GCC4/ARM/s002/lib/armv7aLaiv/libc.a(abort.o)
 *fill*         0xf8094ec9        0x3 
 .rodata._C_cache
                0xf8094ecc       0x44 C:/GCC4/ARM/s002/lib/armv7aLaiv/libc.a(global_locale.o)
                0xf8094ecc                _C_cache
 .rodata._DefaultMessagesLocale
                0xf8094f10       0x10 C:/GCC4/ARM/s002/lib/armv7aLaiv/libc.a(global_locale.o)
 .rodata._DefaultMonetaryLocale
                0xf8094f20       0x2c C:/GCC4/ARM/s002/lib/armv7aLaiv/libc.a(global_locale.o)
 .rodata._DefaultNumericLocale
                0xf8094f4c        0xc C:/GCC4/ARM/s002/lib/armv7aLaiv/libc.a(global_locale.o)
 .rodata._DefaultTimeLocale
                0xf8094f58       0xb0 C:/GCC4/ARM/s002/lib/armv7aLaiv/libc.a(global_locale.o)
 .rodata._lc_C_locale
                0xf8095008      0x104 C:/GCC4/ARM/s002/lib/armv7aLaiv/libc.a(global_locale.o)
                0xf8095008                _lc_C_locale
 .rodata._lc_C_locale_name
                0xf809510c        0x2 C:/GCC4/ARM/s002/lib/armv7aLaiv/libc.a(global_locale.o)
 *fill*         0xf809510e        0x2 
 .rodata.str1.4
                0xf8095110      0x157 C:/GCC4/ARM/s002/lib/armv7aLaiv/libc.a(global_locale.o)
                                0x15b (size before relaxing)
 *fill*         0xf8095267        0x1 
 .rodata._DefaultRuneLocale
                0xf8095268      0xcac C:/GCC4/ARM/s002/lib/armv7aLaiv/libc.a(runetable.o)
                0xf8095268                _DefaultRuneLocale
 .rodata.str1.4
                0xf8095f14       0x7b C:/GCC4/ARM/s002/lib/armv7aLaiv/libc.a(runetable.o)
 *fill*         0xf8095f8f        0x1 
 .rodata.__vfprintf_unlocked_l.str1.4
                0xf8095f90       0x1b C:/GCC4/ARM/s002/lib/armv7aLaiv/libc.a(vfprintf.o)
 *fill*         0xf8095fab        0x1 
 .rodata.xdigs_lower.7953
                0xf8095fac       0x10 C:/GCC4/ARM/s002/lib/armv7aLaiv/libc.a(vfprintf.o)
 .rodata.xdigs_upper.7954
                0xf8095fbc       0x10 C:/GCC4/ARM/s002/lib/armv7aLaiv/libc.a(vfprintf.o)
 .rodata._vlink_read.str1.4
                0xf8095fcc        0x2 C:/GCC4/ARM/s002/lib/armv7aLaiv/libc.a(osemu.o)
 *fill*         0xf8095fce        0x2 
 .rodata._kmc_strerror_r.str1.4
                0xf8095fd0       0x2a C:/GCC4/ARM/s002/lib/armv7aLaiv/libc.a(perror.o)
 *fill*         0xf8095ffa        0x2 
 .rodata.perror.str1.4
                0xf8095ffc        0xc C:/GCC4/ARM/s002/lib/armv7aLaiv/libc.a(perror.o)
 .rodata.str1.4
                0xf8096008      0x306 C:/GCC4/ARM/s002/lib/armv7aLaiv/libc.a(perror.o)
                                0x30a (size before relaxing)
 *fill*         0xf809630e        0x2 
 .rodata.sys_errlist
                0xf8096310       0x90 C:/GCC4/ARM/s002/lib/armv7aLaiv/libc.a(perror.o)
                0xf8096310                sys_errlist
 .rodata.sys_nerr
                0xf80963a0        0x4 C:/GCC4/ARM/s002/lib/armv7aLaiv/libc.a(perror.o)
                0xf80963a0                sys_nerr
 .rodata._sjis_ctype
                0xf80963a4      0x100 C:/GCC4/ARM/s002/lib/armv7aLaiv/libc.a(u2dname.o)
 .rodata._unix2dosname.str1.4
                0xf80964a4       0x1c C:/GCC4/ARM/s002/lib/armv7aLaiv/libc.a(u2dname.o)
 .rodata.__envvarnamelen.str1.4
                0xf80964c0        0x2 C:/GCC4/ARM/s002/lib/armv7aLaiv/libc.a(_env.o)
 *fill*         0xf80964c2        0x2 
 .rodata.env_tree_ops
                0xf80964c4       0x10 C:/GCC4/ARM/s002/lib/armv7aLaiv/libc.a(_env.o)
 .rodata.localtime_r.str1.4
                0xf80964d4        0x4 C:/GCC4/ARM/s002/lib/armv7aLaiv/libc.a(localtime.o)
 .rodata.mon2day
                0xf80964d8       0x30 C:/GCC4/ARM/s002/lib/armv7aLaiv/libc.a(localtime.o)
 .rodata.idx.4385
                0xf8096508        0x8 C:/GCC4/ARM/s002/lib/armv7aLaiv/libc.a(strcspn.o)
 .rodata._C_ctype_tab_
                0xf8096510      0x202 C:/GCC4/ARM/s002/lib/armv7aLaiv/libc.a(ctype_.o)
                0xf8096510                _C_ctype_tab_
 *fill*         0xf8096712        0x2 
 .rodata._C_toupper_tab_
                0xf8096714      0x202 C:/GCC4/ARM/s002/lib/armv7aLaiv/libc.a(toupper_.o)
                0xf8096714                _C_toupper_tab_
 *fill*         0xf8096916        0x2 
 .rodata._C_tolower_tab_
                0xf8096918      0x202 C:/GCC4/ARM/s002/lib/armv7aLaiv/libc.a(tolower_.o)
                0xf8096918                _C_tolower_tab_
 *fill*         0xf8096b1a        0x2 
 .rodata._citrus_ctype_open.str1.4
                0xf8096b1c       0x28 C:/GCC4/ARM/s002/lib/armv7aLaiv/libc.a(citrus_ctype.o)
                                 0x2c (size before relaxing)
 .rodata._UTF8_range
                0xf8096b44       0x20 C:/GCC4/ARM/s002/lib/armv7aLaiv/libc.a(citrus_utf8.o)
 .rodata.__dtoa.str1.4
                0xf8096b64       0x14 C:/GCC4/ARM/s002/lib/armv7aLaiv/libc.a(dtoa.o)
                                 0x12 (size before relaxing)
 .rodata.__hdtoa.str1.4
                0xf8096b78       0x14 C:/GCC4/ARM/s002/lib/armv7aLaiv/libc.a(hdtoa.o)
 .rodata.__bigtens_D2A
                0xf8096b78       0x28 C:/GCC4/ARM/s002/lib/armv7aLaiv/libc.a(misc.o)
                0xf8096b78                __bigtens_D2A
 .rodata.__tens_D2A
                0xf8096ba0       0xb8 C:/GCC4/ARM/s002/lib/armv7aLaiv/libc.a(misc.o)
                0xf8096ba0                __tens_D2A
 .rodata.__tinytens_D2A
                0xf8096c58       0x28 C:/GCC4/ARM/s002/lib/armv7aLaiv/libc.a(misc.o)
                0xf8096c58                __tinytens_D2A
 .rodata.p05.6743
                0xf8096c80        0xc C:/GCC4/ARM/s002/lib/armv7aLaiv/libc.a(misc.o)
 .rodata.countLeadingZerosHigh.4424
                0xf8096c8c      0x400 C:/GCC4/ARM/s002/lib/armv7aLaiv/libc.a(softfloat.o)
 *(.gnu.linkonce.r.*)
                0xf809708c                . = ALIGN (0x4)
                0xf809708c                _ctor_list = .
 *(SORT(.init_array.*))
 .init_array.1  0xf809708c        0xc C:/Users/admin/Documents/SOLID-IDE/Projects/lwip_server/Debug_tasan/exeClang_SOLID/lwip_server/lwip_server_all.o
 .init_array.1  0xf8097098        0x4 C:/Users/admin/Documents/SOLID-IDE/Projects/lwip_server/Debug_tasan/exeClang_SOLID/\libbsp.a(impl_cs_event.o)
 .init_array.1  0xf809709c        0x4 C:/Users/admin/Documents/SOLID-IDE/Projects/lwip_server/Debug_tasan/exeClang_SOLID/\libbsp.a(impl_dmac.o)
 .init_array.1  0xf80970a0        0x4 C:/Users/admin/Documents/SOLID-IDE/Projects/lwip_server/Debug_tasan/exeClang_SOLID/\libbsp.a(impl_iores.o)
 .init_array.1  0xf80970a4        0x4 C:/Users/admin/Documents/SOLID-IDE/Projects/lwip_server/Debug_tasan/exeClang_SOLID/\libbsp.a(impl_log.o)
 .init_array.1  0xf80970a8        0x4 C:/Users/admin/Documents/SOLID-IDE/Projects/lwip_server/Debug_tasan/exeClang_SOLID/\libbsp.a(impl_net_dev_ether.o)
 .init_array.1  0xf80970ac        0x4 C:/Users/admin/Documents/SOLID-IDE/Projects/lwip_server/Debug_tasan/exeClang_SOLID/\libbsp.a(impl_net_dev_get_macaddr.o)
 .init_array.1  0xf80970b0        0x4 C:/Users/admin/Documents/SOLID-IDE/Projects/lwip_server/Debug_tasan/exeClang_SOLID/\libbsp.a(impl_net_dev_getconfig.o)
 .init_array.1  0xf80970b4        0x4 C:/Users/admin/Documents/SOLID-IDE/Projects/lwip_server/Debug_tasan/exeClang_SOLID/\libbsp.a(impl_rtc.o)
 .init_array.1  0xf80970b8        0x4 C:/Users/admin/Documents/SOLID-IDE/Projects/lwip_server/Debug_tasan/exeClang_SOLID/\libbsp.a(impl_timer.o)
 .init_array.1  0xf80970bc        0x4 C:/Users/admin/Documents/SOLID-IDE/Projects/lwip_server/Debug_tasan/exeClang_SOLID/\libbsp.a(bsp_globals.o)
 *(.init_array)
 .init_array    0xf80970c0        0x4 C:/ProgramData/KMC/SOLID/SDK/2.0/solid-os/core/lib/armv7aLaiv/CT_\libsolid_cs.a(solid_dmac.o)
 .init_array    0xf80970c4        0x4 C:/ProgramData/KMC/SOLID/SDK/2.0/solid-os/core/lib/armv7aLaiv/CT_\libsolid_cs.a(solid_fs_base.o)
 .init_array    0xf80970c8        0x4 C:/ProgramData/KMC/SOLID/SDK/2.0/solid-os/core/lib/armv7aLaiv/CT_\libsolid_cs.a(solid_intc.o)
 .init_array    0xf80970cc        0x4 C:/ProgramData/KMC/SOLID/SDK/2.0/solid-os/core/lib/armv7aLaiv/CT_\libsolid_cs.a(solid_iores.o)
 .init_array    0xf80970d0        0x4 C:/ProgramData/KMC/SOLID/SDK/2.0/solid-os/core/lib/armv7aLaiv/CT_\libsolid_cs.a(solid_loader.o)
 .init_array    0xf80970d4        0x4 C:/ProgramData/KMC/SOLID/SDK/2.0/solid-os/core/lib/armv7aLaiv/CT_\libsolid_cs.a(solid_mem.o)
 .init_array    0xf80970d8        0x4 C:/ProgramData/KMC/SOLID/SDK/2.0/solid-os/core/lib/armv7aLaiv/CT_\libsolid_cs.a(solid_timer.o)
                0xf80970dc        0x4 LONG 0x0
                0xf80970e0                _dtor_list = .
 *(.fini_array)
 *(SORT(.fini_array.*))
 .fini_array.1  0xf80970e0        0xc C:/Users/admin/Documents/SOLID-IDE/Projects/lwip_server/Debug_tasan/exeClang_SOLID/lwip_server/lwip_server_all.o
 .fini_array.1  0xf80970ec        0x4 C:/Users/admin/Documents/SOLID-IDE/Projects/lwip_server/Debug_tasan/exeClang_SOLID/\libbsp.a(impl_dmac.o)
 .fini_array.1  0xf80970f0        0x4 C:/Users/admin/Documents/SOLID-IDE/Projects/lwip_server/Debug_tasan/exeClang_SOLID/\libbsp.a(impl_iores.o)
 .fini_array.1  0xf80970f4        0x4 C:/Users/admin/Documents/SOLID-IDE/Projects/lwip_server/Debug_tasan/exeClang_SOLID/\libbsp.a(impl_log.o)
 .fini_array.1  0xf80970f8        0x4 C:/Users/admin/Documents/SOLID-IDE/Projects/lwip_server/Debug_tasan/exeClang_SOLID/\libbsp.a(impl_net_dev_ether.o)
 .fini_array.1  0xf80970fc        0x4 C:/Users/admin/Documents/SOLID-IDE/Projects/lwip_server/Debug_tasan/exeClang_SOLID/\libbsp.a(impl_net_dev_get_macaddr.o)
 .fini_array.1  0xf8097100        0x4 C:/Users/admin/Documents/SOLID-IDE/Projects/lwip_server/Debug_tasan/exeClang_SOLID/\libbsp.a(impl_net_dev_getconfig.o)
 .fini_array.1  0xf8097104        0x4 C:/Users/admin/Documents/SOLID-IDE/Projects/lwip_server/Debug_tasan/exeClang_SOLID/\libbsp.a(impl_rtc.o)
 .fini_array.1  0xf8097108        0x4 C:/Users/admin/Documents/SOLID-IDE/Projects/lwip_server/Debug_tasan/exeClang_SOLID/\libbsp.a(impl_timer.o)
 .fini_array.1  0xf809710c        0x4 C:/Users/admin/Documents/SOLID-IDE/Projects/lwip_server/Debug_tasan/exeClang_SOLID/\libbsp.a(bsp_globals.o)
                0xf8097110        0x4 LONG 0x0

.ARM.extab      0xf8097114        0x0
 *(.ARM.extab* .gnu.linkonce.armextab.*)
 .ARM.extab.text._ZNK10__cxxabiv117__class_type_info11__do_upcastEPKS0_PPv
                0xf8097114        0x0 C:/GCC4/ARM/s002/lib/armv7aLaiv\libstdc++.a(class_type_info.o)
 .ARM.extab.text._ZNK10__cxxabiv117__class_type_info20__do_find_public_srcEiPKvPKS0_S2_
                0xf8097114        0x0 C:/GCC4/ARM/s002/lib/armv7aLaiv\libstdc++.a(class_type_info.o)
 .ARM.extab.text._ZN10__cxxabiv117__class_type_infoD2Ev
                0xf8097114        0x0 C:/GCC4/ARM/s002/lib/armv7aLaiv\libstdc++.a(class_type_info.o)
 .ARM.extab.text._ZN10__cxxabiv117__class_type_infoD0Ev
                0xf8097114        0x0 C:/GCC4/ARM/s002/lib/armv7aLaiv\libstdc++.a(class_type_info.o)
 .ARM.extab.text._ZNK10__cxxabiv117__class_type_info11__do_upcastEPKS0_PKvRNS0_15__upcast_resultE
                0xf8097114        0x0 C:/GCC4/ARM/s002/lib/armv7aLaiv\libstdc++.a(class_type_info.o)
 .ARM.extab.text._ZNK10__cxxabiv117__class_type_info10__do_catchEPKSt9type_infoPPvj
                0xf8097114        0x0 C:/GCC4/ARM/s002/lib/armv7aLaiv\libstdc++.a(class_type_info.o)
 .ARM.extab.text._ZNK10__cxxabiv117__class_type_info12__do_dyncastEiNS0_10__sub_kindEPKS0_PKvS3_S5_RNS0_16__dyncast_resultE
                0xf8097114        0x0 C:/GCC4/ARM/s002/lib/armv7aLaiv\libstdc++.a(class_type_info.o)
 .ARM.extab.text._ZSt15set_new_handlerPFvvE
                0xf8097114        0x0 C:/GCC4/ARM/s002/lib/armv7aLaiv\libstdc++.a(new_handler.o)
 .ARM.extab.text._ZSt15get_new_handlerv
                0xf8097114        0x0 C:/GCC4/ARM/s002/lib/armv7aLaiv\libstdc++.a(new_handler.o)
 .ARM.extab.text._ZdlPvj
                0xf8097114        0x0 C:/GCC4/ARM/s002/lib/armv7aLaiv\libstdc++.a(del_ops.o)
 .ARM.extab.text._ZN10__cxxabiv120__si_class_type_infoD2Ev
                0xf8097114        0x0 C:/GCC4/ARM/s002/lib/armv7aLaiv\libstdc++.a(si_class_type_info.o)
 .ARM.extab.text._ZN10__cxxabiv120__si_class_type_infoD0Ev
                0xf8097114        0x0 C:/GCC4/ARM/s002/lib/armv7aLaiv\libstdc++.a(si_class_type_info.o)
 .ARM.extab.text._ZNK10__cxxabiv120__si_class_type_info20__do_find_public_srcEiPKvPKNS_17__class_type_infoES2_
                0xf8097114        0x0 C:/GCC4/ARM/s002/lib/armv7aLaiv\libstdc++.a(si_class_type_info.o)
 .ARM.extab.text._ZNK10__cxxabiv120__si_class_type_info12__do_dyncastEiNS_17__class_type_info10__sub_kindEPKS1_PKvS4_S6_RNS1_16__dyncast_resultE
                0xf8097114        0x0 C:/GCC4/ARM/s002/lib/armv7aLaiv\libstdc++.a(si_class_type_info.o)
 .ARM.extab.text._ZNK10__cxxabiv120__si_class_type_info11__do_upcastEPKNS_17__class_type_infoEPKvRNS1_15__upcast_resultE
                0xf8097114        0x0 C:/GCC4/ARM/s002/lib/armv7aLaiv\libstdc++.a(si_class_type_info.o)
 .ARM.extab.text._ZdlPv
                0xf8097114        0x0 C:/GCC4/ARM/s002/lib/armv7aLaiv\libstdc++.a(del_op.o)
 .ARM.extab.text._ZNSt9type_infoD2Ev
                0xf8097114        0x0 C:/GCC4/ARM/s002/lib/armv7aLaiv\libstdc++.a(tinfo.o)
 .ARM.extab.text._ZNKSt9type_info15__is_function_pEv
                0xf8097114        0x0 C:/GCC4/ARM/s002/lib/armv7aLaiv\libstdc++.a(tinfo.o)
 .ARM.extab.text._ZNKSt9type_info11__do_upcastEPKN10__cxxabiv117__class_type_infoEPPv
                0xf8097114        0x0 C:/GCC4/ARM/s002/lib/armv7aLaiv\libstdc++.a(tinfo.o)
 .ARM.extab.text._ZNSt9type_infoD0Ev
                0xf8097114        0x0 C:/GCC4/ARM/s002/lib/armv7aLaiv\libstdc++.a(tinfo.o)
 .ARM.extab.text._ZNKSt9type_infoeqERKS_
                0xf8097114        0x0 C:/GCC4/ARM/s002/lib/armv7aLaiv\libstdc++.a(tinfo.o)
 .ARM.extab.text._ZNKSt9type_info10__do_catchEPKS_PPvj
                0xf8097114        0x0 C:/GCC4/ARM/s002/lib/armv7aLaiv\libstdc++.a(tinfo.o)
 .ARM.extab.text.__udivmoddi4
                0xf8097114        0x0 C:/GCC4/ARM/s002/lib/armv7aLaiv/libgcc.a(_udivmoddi4.o)
 .ARM.extab.text.selfrel_offset31
                0xf8097114        0x0 C:/GCC4/ARM/s002/lib/armv7aLaiv/libgcc.a(unwind-arm.o)
 .ARM.extab.text.search_EIT_table
                0xf8097114        0x0 C:/GCC4/ARM/s002/lib/armv7aLaiv/libgcc.a(unwind-arm.o)
 .ARM.extab.text.__gnu_unwind_get_pr_addr
                0xf8097114        0x0 C:/GCC4/ARM/s002/lib/armv7aLaiv/libgcc.a(unwind-arm.o)
 .ARM.extab.text.get_eit_entry
                0xf8097114        0x0 C:/GCC4/ARM/s002/lib/armv7aLaiv/libgcc.a(unwind-arm.o)
 .ARM.extab.text.restore_non_core_regs
                0xf8097114        0x0 C:/GCC4/ARM/s002/lib/armv7aLaiv/libgcc.a(unwind-arm.o)
 .ARM.extab.text._Unwind_decode_typeinfo_ptr.isra.0
                0xf8097114        0x0 C:/GCC4/ARM/s002/lib/armv7aLaiv/libgcc.a(unwind-arm.o)
 .ARM.extab.text.__gnu_unwind_24bit.isra.1
                0xf8097114        0x0 C:/GCC4/ARM/s002/lib/armv7aLaiv/libgcc.a(unwind-arm.o)
 .ARM.extab.text._Unwind_DebugHook
                0xf8097114        0x0 C:/GCC4/ARM/s002/lib/armv7aLaiv/libgcc.a(unwind-arm.o)
 .ARM.extab.text.unwind_phase2
                0xf8097114        0x0 C:/GCC4/ARM/s002/lib/armv7aLaiv/libgcc.a(unwind-arm.o)
 .ARM.extab.text.unwind_phase2_forced
                0xf8097114        0x0 C:/GCC4/ARM/s002/lib/armv7aLaiv/libgcc.a(unwind-arm.o)
 .ARM.extab.text._Unwind_GetCFA
                0xf8097114        0x0 C:/GCC4/ARM/s002/lib/armv7aLaiv/libgcc.a(unwind-arm.o)
 .ARM.extab.text.__gnu_Unwind_RaiseException
                0xf8097114        0x0 C:/GCC4/ARM/s002/lib/armv7aLaiv/libgcc.a(unwind-arm.o)
 .ARM.extab.text.__gnu_Unwind_ForcedUnwind
                0xf8097114        0x0 C:/GCC4/ARM/s002/lib/armv7aLaiv/libgcc.a(unwind-arm.o)
 .ARM.extab.text.__gnu_Unwind_Resume
                0xf8097114        0x0 C:/GCC4/ARM/s002/lib/armv7aLaiv/libgcc.a(unwind-arm.o)
 .ARM.extab.text.__gnu_Unwind_Resume_or_Rethrow
                0xf8097114        0x0 C:/GCC4/ARM/s002/lib/armv7aLaiv/libgcc.a(unwind-arm.o)
 .ARM.extab.text._Unwind_Complete
                0xf8097114        0x0 C:/GCC4/ARM/s002/lib/armv7aLaiv/libgcc.a(unwind-arm.o)
 .ARM.extab.text._Unwind_DeleteException
                0xf8097114        0x0 C:/GCC4/ARM/s002/lib/armv7aLaiv/libgcc.a(unwind-arm.o)
 .ARM.extab.text._Unwind_VRS_Get
                0xf8097114        0x0 C:/GCC4/ARM/s002/lib/armv7aLaiv/libgcc.a(unwind-arm.o)
 .ARM.extab.text._Unwind_GetGR
                0xf8097114        0x0 C:/GCC4/ARM/s002/lib/armv7aLaiv/libgcc.a(unwind-arm.o)
 .ARM.extab.text._Unwind_VRS_Set
                0xf8097114        0x0 C:/GCC4/ARM/s002/lib/armv7aLaiv/libgcc.a(unwind-arm.o)
 .ARM.extab.text._Unwind_SetGR
                0xf8097114        0x0 C:/GCC4/ARM/s002/lib/armv7aLaiv/libgcc.a(unwind-arm.o)
 .ARM.extab.text.__gnu_Unwind_Backtrace
                0xf8097114        0x0 C:/GCC4/ARM/s002/lib/armv7aLaiv/libgcc.a(unwind-arm.o)
 .ARM.extab.text.__gnu_unwind_pr_common
                0xf8097114        0x0 C:/GCC4/ARM/s002/lib/armv7aLaiv/libgcc.a(unwind-arm.o)
 .ARM.extab.text.__aeabi_unwind_cpp_pr0
                0xf8097114        0x0 C:/GCC4/ARM/s002/lib/armv7aLaiv/libgcc.a(unwind-arm.o)
 .ARM.extab.text.__aeabi_unwind_cpp_pr1
                0xf8097114        0x0 C:/GCC4/ARM/s002/lib/armv7aLaiv/libgcc.a(unwind-arm.o)
 .ARM.extab.text.__aeabi_unwind_cpp_pr2
                0xf8097114        0x0 C:/GCC4/ARM/s002/lib/armv7aLaiv/libgcc.a(unwind-arm.o)
 .ARM.extab.text._Unwind_VRS_Pop
                0xf8097114        0x0 C:/GCC4/ARM/s002/lib/armv7aLaiv/libgcc.a(unwind-arm.o)
 .ARM.extab.text.next_unwind_byte
                0xf8097114        0x0 C:/GCC4/ARM/s002/lib/armv7aLaiv/libgcc.a(pr-support.o)
 .ARM.extab.text._Unwind_GetGR.constprop.0
                0xf8097114        0x0 C:/GCC4/ARM/s002/lib/armv7aLaiv/libgcc.a(pr-support.o)
 .ARM.extab.text.unwind_UCB_from_context
                0xf8097114        0x0 C:/GCC4/ARM/s002/lib/armv7aLaiv/libgcc.a(pr-support.o)
 .ARM.extab.text.__gnu_unwind_execute
                0xf8097114        0x0 C:/GCC4/ARM/s002/lib/armv7aLaiv/libgcc.a(pr-support.o)
 .ARM.extab.text.__gnu_unwind_frame
                0xf8097114        0x0 C:/GCC4/ARM/s002/lib/armv7aLaiv/libgcc.a(pr-support.o)
 .ARM.extab.text._Unwind_GetRegionStart
                0xf8097114        0x0 C:/GCC4/ARM/s002/lib/armv7aLaiv/libgcc.a(pr-support.o)
 .ARM.extab.text._Unwind_GetLanguageSpecificData
                0xf8097114        0x0 C:/GCC4/ARM/s002/lib/armv7aLaiv/libgcc.a(pr-support.o)
 .ARM.extab.text._Unwind_GetTextRelBase
                0xf8097114        0x0 C:/GCC4/ARM/s002/lib/armv7aLaiv/libgcc.a(pr-support.o)
 .ARM.extab.text._Unwind_GetDataRelBase
                0xf8097114        0x0 C:/GCC4/ARM/s002/lib/armv7aLaiv/libgcc.a(pr-support.o)
                0xf8097114                __exidx_start = .

.ARM.exidx      0xf8097114      0x1a0
 *(.ARM.exidx* .gnu.linkonce.armexidx.*)
 .ARM.exidx     0xf8097114       0x38 C:/Users/admin/Documents/SOLID-IDE/Projects/lwip_server/Debug_tasan/exeClang_SOLID/lwip_server/lwip_server_all.o
                                 0x60 (size before relaxing)
 .ARM.exidx     0xf809714c        0x0 C:/ProgramData/KMC/SOLID/SDK/2.0/solid-os/core/lib/armv7aLaiv/CT_\libsolid_cs.a(solid_cs_main.o)
                                 0x28 (size before relaxing)
 .ARM.exidx     0xf809714c        0x0 C:/ProgramData/KMC/SOLID/SDK/2.0/solid-os/core/lib/armv7aLaiv/CT_\libsolid_cs.a(kmc_trace_mem_dummy.o)
                                  0x8 (size before relaxing)
 .ARM.exidx     0xf809714c        0x0 C:/ProgramData/KMC/SOLID/SDK/2.0/solid-os/core/lib/armv7aLaiv/CT_\libsolid_cs.a(solid_cs_event.o)
                                 0x10 (size before relaxing)
 .ARM.exidx     0xf809714c        0x0 C:/ProgramData/KMC/SOLID/SDK/2.0/solid-os/core/lib/armv7aLaiv/CT_\libsolid_cs.a(solid_debugger.o)
                                 0x20 (size before relaxing)
 .ARM.exidx     0xf809714c        0x0 C:/ProgramData/KMC/SOLID/SDK/2.0/solid-os/core/lib/armv7aLaiv/CT_\libsolid_cs.a(solid_dmac.o)
                                0x138 (size before relaxing)
 .ARM.exidx.text._ZN3kmg5solid4dmac10ControllerC2Ev
                0xf809714c        0x0 C:/ProgramData/KMC/SOLID/SDK/2.0/solid-os/core/lib/armv7aLaiv/CT_\libsolid_cs.a(solid_dmac.o)
                                  0x8 (size before relaxing)
 .ARM.exidx.text._ZN3kmg5solid4dmac10ControllerD2Ev
                0xf809714c        0x0 C:/ProgramData/KMC/SOLID/SDK/2.0/solid-os/core/lib/armv7aLaiv/CT_\libsolid_cs.a(solid_dmac.o)
                                  0x8 (size before relaxing)
 .ARM.exidx.text._ZN3kmg5solid4dmac7ChannelnaEjRKSt9nothrow_t
                0xf809714c        0x0 C:/ProgramData/KMC/SOLID/SDK/2.0/solid-os/core/lib/armv7aLaiv/CT_\libsolid_cs.a(solid_dmac.o)
                                  0x8 (size before relaxing)
 .ARM.exidx.text._ZN3kmg5solid4dmac7ChannelC2Ev
                0xf809714c        0x0 C:/ProgramData/KMC/SOLID/SDK/2.0/solid-os/core/lib/armv7aLaiv/CT_\libsolid_cs.a(solid_dmac.o)
                                  0x8 (size before relaxing)
 .ARM.exidx.text._ZN3kmg5solid4dmac7Channel6IsUsedEv
                0xf809714c        0x0 C:/ProgramData/KMC/SOLID/SDK/2.0/solid-os/core/lib/armv7aLaiv/CT_\libsolid_cs.a(solid_dmac.o)
                                  0x8 (size before relaxing)
 .ARM.exidx.text._ZN3kmg5solid4dmac7Channel10IsFinishedEv
                0xf809714c        0x0 C:/ProgramData/KMC/SOLID/SDK/2.0/solid-os/core/lib/armv7aLaiv/CT_\libsolid_cs.a(solid_dmac.o)
                                  0x8 (size before relaxing)
 .ARM.exidx.text._ZN3kmg5solid4dmac10ControllerD0Ev
                0xf809714c        0x0 C:/ProgramData/KMC/SOLID/SDK/2.0/solid-os/core/lib/armv7aLaiv/CT_\libsolid_cs.a(solid_dmac.o)
                                  0x8 (size before relaxing)
 .ARM.exidx     0xf809714c        0x0 C:/ProgramData/KMC/SOLID/SDK/2.0/solid-os/core/lib/armv7aLaiv/CT_\libsolid_cs.a(solid_exception.o)
                                 0x38 (size before relaxing)
 .ARM.exidx     0xf809714c        0x0 C:/ProgramData/KMC/SOLID/SDK/2.0/solid-os/core/lib/armv7aLaiv/CT_\libsolid_cs.a(solid_fs_base.o)
                                0x130 (size before relaxing)
 .ARM.exidx.text._ZN5solid2fs7FileSysC2Ev
                0xf809714c        0x0 C:/ProgramData/KMC/SOLID/SDK/2.0/solid-os/core/lib/armv7aLaiv/CT_\libsolid_cs.a(solid_fs_base.o)
                                  0x8 (size before relaxing)
 .ARM.exidx.text._ZN5solid2fs7FileSysD2Ev
                0xf809714c        0x0 C:/ProgramData/KMC/SOLID/SDK/2.0/solid-os/core/lib/armv7aLaiv/CT_\libsolid_cs.a(solid_fs_base.o)
                                  0x8 (size before relaxing)
 .ARM.exidx.text._ZN5solid2fs11DescStockerC2Ev
                0xf809714c        0x0 C:/ProgramData/KMC/SOLID/SDK/2.0/solid-os/core/lib/armv7aLaiv/CT_\libsolid_cs.a(solid_fs_base.o)
                                  0x8 (size before relaxing)
 .ARM.exidx.text._ZN5solid2fs11DescStockerD2Ev
                0xf809714c        0x0 C:/ProgramData/KMC/SOLID/SDK/2.0/solid-os/core/lib/armv7aLaiv/CT_\libsolid_cs.a(solid_fs_base.o)
                                  0x8 (size before relaxing)
 .ARM.exidx     0xf809714c        0x0 C:/ProgramData/KMC/SOLID/SDK/2.0/solid-os/core/lib/armv7aLaiv/CT_\libsolid_cs.a(solid_fs_mem.o)
                                 0x50 (size before relaxing)
 .ARM.exidx     0xf809714c        0x0 C:/ProgramData/KMC/SOLID/SDK/2.0/solid-os/core/lib/armv7aLaiv/CT_\libsolid_cs.a(solid_fs_vlink.o)
                                 0x68 (size before relaxing)
 .ARM.exidx     0xf809714c        0x0 C:/ProgramData/KMC/SOLID/SDK/2.0/solid-os/core/lib/armv7aLaiv/CT_\libsolid_cs.a(solid_intc.o)
                                0x1e0 (size before relaxing)
 .ARM.exidx.text._ZN3kmg5solid19InterruptControllerC2Ev
                0xf809714c        0x0 C:/ProgramData/KMC/SOLID/SDK/2.0/solid-os/core/lib/armv7aLaiv/CT_\libsolid_cs.a(solid_intc.o)
                                  0x8 (size before relaxing)
 .ARM.exidx.text._ZN3kmg5solid19InterruptControllerD2Ev
                0xf809714c        0x0 C:/ProgramData/KMC/SOLID/SDK/2.0/solid-os/core/lib/armv7aLaiv/CT_\libsolid_cs.a(solid_intc.o)
                                  0x8 (size before relaxing)
 .ARM.exidx.text._ZNK3kmg5solid19InterruptController16GetPriorityShiftEv
                0xf809714c        0x0 C:/ProgramData/KMC/SOLID/SDK/2.0/solid-os/core/lib/armv7aLaiv/CT_\libsolid_cs.a(solid_intc.o)
                                  0x8 (size before relaxing)
 .ARM.exidx.text._ZNK3kmg5solid19InterruptController16GetPriorityLevelEv
                0xf809714c        0x0 C:/ProgramData/KMC/SOLID/SDK/2.0/solid-os/core/lib/armv7aLaiv/CT_\libsolid_cs.a(solid_intc.o)
                                  0x8 (size before relaxing)
 .ARM.exidx.text._ZNK3kmg5solid19InterruptController11GetMinIntNoEv
                0xf809714c        0x0 C:/ProgramData/KMC/SOLID/SDK/2.0/solid-os/core/lib/armv7aLaiv/CT_\libsolid_cs.a(solid_intc.o)
                                  0x8 (size before relaxing)
 .ARM.exidx.text._ZNK3kmg5solid19InterruptController11GetMaxIntNoEv
                0xf809714c        0x0 C:/ProgramData/KMC/SOLID/SDK/2.0/solid-os/core/lib/armv7aLaiv/CT_\libsolid_cs.a(solid_intc.o)
                                  0x8 (size before relaxing)
 .ARM.exidx     0xf809714c        0x0 C:/ProgramData/KMC/SOLID/SDK/2.0/solid-os/core/lib/armv7aLaiv/CT_\libsolid_cs.a(solid_iores.o)
                                 0xa8 (size before relaxing)
 .ARM.exidx     0xf809714c        0x0 C:/ProgramData/KMC/SOLID/SDK/2.0/solid-os/core/lib/armv7aLaiv/CT_\libsolid_cs.a(solid_loader.o)
                                0x290 (size before relaxing)
 .ARM.exidx.text._ZN3kmg5solid3elf13SymbolManagerC2Ev
                0xf809714c        0x0 C:/ProgramData/KMC/SOLID/SDK/2.0/solid-os/core/lib/armv7aLaiv/CT_\libsolid_cs.a(solid_loader.o)
                                  0x8 (size before relaxing)
 .ARM.exidx.text._ZN3kmg5solid3elf13SymbolManagerD2Ev
                0xf809714c        0x0 C:/ProgramData/KMC/SOLID/SDK/2.0/solid-os/core/lib/armv7aLaiv/CT_\libsolid_cs.a(solid_loader.o)
                                  0x8 (size before relaxing)
 .ARM.exidx.text._ZN3kmg5solid3elf11LoadManagerC2Ev
                0xf809714c        0x0 C:/ProgramData/KMC/SOLID/SDK/2.0/solid-os/core/lib/armv7aLaiv/CT_\libsolid_cs.a(solid_loader.o)
                                  0x8 (size before relaxing)
 .ARM.exidx.text._ZN3kmg5solid3elf11LoadManagerD2Ev
                0xf809714c        0x0 C:/ProgramData/KMC/SOLID/SDK/2.0/solid-os/core/lib/armv7aLaiv/CT_\libsolid_cs.a(solid_loader.o)
                                  0x8 (size before relaxing)
 .ARM.exidx.text._ZN3kmg5solid3elf10LinkObjectC2Ev
                0xf809714c        0x0 C:/ProgramData/KMC/SOLID/SDK/2.0/solid-os/core/lib/armv7aLaiv/CT_\libsolid_cs.a(solid_loader.o)
                                  0x8 (size before relaxing)
 .ARM.exidx.text._ZN3kmg5solid3elf7SectiondlEPv
                0xf809714c        0x0 C:/ProgramData/KMC/SOLID/SDK/2.0/solid-os/core/lib/armv7aLaiv/CT_\libsolid_cs.a(solid_loader.o)
                                  0x8 (size before relaxing)
 .ARM.exidx.text._ZN3kmg5solid3elf12RelocateInfonwEjRKSt9nothrow_t
                0xf809714c        0x0 C:/ProgramData/KMC/SOLID/SDK/2.0/solid-os/core/lib/armv7aLaiv/CT_\libsolid_cs.a(solid_loader.o)
                                  0x8 (size before relaxing)
 .ARM.exidx.text._ZN3kmg5solid3elf7SegmentdlEPv
                0xf809714c        0x0 C:/ProgramData/KMC/SOLID/SDK/2.0/solid-os/core/lib/armv7aLaiv/CT_\libsolid_cs.a(solid_loader.o)
                                  0x8 (size before relaxing)
 .ARM.exidx.text._ZN3kmg5solid3elf9ELFObjectdlEPv
                0xf809714c        0x0 C:/ProgramData/KMC/SOLID/SDK/2.0/solid-os/core/lib/armv7aLaiv/CT_\libsolid_cs.a(solid_loader.o)
                                  0x8 (size before relaxing)
 .ARM.exidx.text._ZN3kmg5solid3elf7SectionnwEjRKSt9nothrow_t
                0xf809714c        0x0 C:/ProgramData/KMC/SOLID/SDK/2.0/solid-os/core/lib/armv7aLaiv/CT_\libsolid_cs.a(solid_loader.o)
                                  0x8 (size before relaxing)
 .ARM.exidx.text._ZN3kmg5solid3elf10LinkObject7SetNextEPS2_
                0xf809714c        0x0 C:/ProgramData/KMC/SOLID/SDK/2.0/solid-os/core/lib/armv7aLaiv/CT_\libsolid_cs.a(solid_loader.o)
                                  0x8 (size before relaxing)
 .ARM.exidx.text._ZN3kmg5solid3elf7SegmentnwEjRKSt9nothrow_t
                0xf809714c        0x0 C:/ProgramData/KMC/SOLID/SDK/2.0/solid-os/core/lib/armv7aLaiv/CT_\libsolid_cs.a(solid_loader.o)
                                  0x8 (size before relaxing)
 .ARM.exidx.text._ZN3kmg5solid3elf12RelocateInfo7GetNameEv
                0xf809714c        0x0 C:/ProgramData/KMC/SOLID/SDK/2.0/solid-os/core/lib/armv7aLaiv/CT_\libsolid_cs.a(solid_loader.o)
                                  0x8 (size before relaxing)
 .ARM.exidx.text._ZN3kmg5solid3elf9ELFObjectnwEjRKSt9nothrow_t
                0xf809714c        0x0 C:/ProgramData/KMC/SOLID/SDK/2.0/solid-os/core/lib/armv7aLaiv/CT_\libsolid_cs.a(solid_loader.o)
                                  0x8 (size before relaxing)
 .ARM.exidx.text._ZN3kmg5solid3elf12RelocateInfodlEPv
                0xf809714c        0x0 C:/ProgramData/KMC/SOLID/SDK/2.0/solid-os/core/lib/armv7aLaiv/CT_\libsolid_cs.a(solid_loader.o)
                                  0x8 (size before relaxing)
 .ARM.exidx.text._ZN3kmg5solid3elf6SymboldlEPv
                0xf809714c        0x0 C:/ProgramData/KMC/SOLID/SDK/2.0/solid-os/core/lib/armv7aLaiv/CT_\libsolid_cs.a(solid_loader.o)
                                  0x8 (size before relaxing)
 .ARM.exidx.text._ZN3kmg5solid3elf6Symbol10GetAddressEv
                0xf809714c        0x0 C:/ProgramData/KMC/SOLID/SDK/2.0/solid-os/core/lib/armv7aLaiv/CT_\libsolid_cs.a(solid_loader.o)
                                  0x8 (size before relaxing)
 .ARM.exidx.text._ZN3kmg5solid3elf6Symbol13ChangeAddressEm
                0xf809714c        0x0 C:/ProgramData/KMC/SOLID/SDK/2.0/solid-os/core/lib/armv7aLaiv/CT_\libsolid_cs.a(solid_loader.o)
                                  0x8 (size before relaxing)
 .ARM.exidx.text._ZN3kmg5solid3elf6SymbolnwEjRKSt9nothrow_t
                0xf809714c        0x0 C:/ProgramData/KMC/SOLID/SDK/2.0/solid-os/core/lib/armv7aLaiv/CT_\libsolid_cs.a(solid_loader.o)
                                  0x8 (size before relaxing)
 .ARM.exidx.text._ZN3kmg5solid3elf6Symbol7GetHashEv
                0xf809714c        0x0 C:/ProgramData/KMC/SOLID/SDK/2.0/solid-os/core/lib/armv7aLaiv/CT_\libsolid_cs.a(solid_loader.o)
                                  0x8 (size before relaxing)
 .ARM.exidx.text._ZN3kmg5solid3elf6Symbol7GetNameEv
                0xf809714c        0x0 C:/ProgramData/KMC/SOLID/SDK/2.0/solid-os/core/lib/armv7aLaiv/CT_\libsolid_cs.a(solid_loader.o)
                                  0x8 (size before relaxing)
 .ARM.exidx.text._ZN3kmg5solid3elf11LoadManagerD0Ev
                0xf809714c        0x0 C:/ProgramData/KMC/SOLID/SDK/2.0/solid-os/core/lib/armv7aLaiv/CT_\libsolid_cs.a(solid_loader.o)
                                  0x8 (size before relaxing)
 .ARM.exidx.text._ZN3kmg5solid3elf10LinkObjectD2Ev
                0xf809714c        0x0 C:/ProgramData/KMC/SOLID/SDK/2.0/solid-os/core/lib/armv7aLaiv/CT_\libsolid_cs.a(solid_loader.o)
                                  0x8 (size before relaxing)
 .ARM.exidx.text._ZN3kmg5solid3elf10LinkObjectD0Ev
                0xf809714c        0x0 C:/ProgramData/KMC/SOLID/SDK/2.0/solid-os/core/lib/armv7aLaiv/CT_\libsolid_cs.a(solid_loader.o)
                                  0x8 (size before relaxing)
 .ARM.exidx.text._ZN3kmg5solid3elf10LinkObjectdlEPv
                0xf809714c        0x0 C:/ProgramData/KMC/SOLID/SDK/2.0/solid-os/core/lib/armv7aLaiv/CT_\libsolid_cs.a(solid_loader.o)
                                  0x8 (size before relaxing)
 .ARM.exidx     0xf809714c        0x0 C:/ProgramData/KMC/SOLID/SDK/2.0/solid-os/core/lib/armv7aLaiv/CT_\libsolid_cs.a(solid_loader_fixed.o)
                                  0x8 (size before relaxing)
 .ARM.exidx     0xf809714c        0x0 C:/ProgramData/KMC/SOLID/SDK/2.0/solid-os/core/lib/armv7aLaiv/CT_\libsolid_cs.a(solid_log.o)
                                 0x58 (size before relaxing)
 .ARM.exidx     0xf809714c        0x0 C:/ProgramData/KMC/SOLID/SDK/2.0/solid-os/core/lib/armv7aLaiv/CT_\libsolid_cs.a(solid_malloc.o)
                                 0x68 (size before relaxing)
 .ARM.exidx     0xf809714c        0x0 C:/ProgramData/KMC/SOLID/SDK/2.0/solid-os/core/lib/armv7aLaiv/CT_\libsolid_cs.a(solid_mem.o)
                                0x1c0 (size before relaxing)
 .ARM.exidx.text._ZN3kmg5solid5CACHEC2Ev
                0xf809714c        0x0 C:/ProgramData/KMC/SOLID/SDK/2.0/solid-os/core/lib/armv7aLaiv/CT_\libsolid_cs.a(solid_mem.o)
                                  0x8 (size before relaxing)
 .ARM.exidx.text._ZN3kmg5solid5CACHED2Ev
                0xf809714c        0x0 C:/ProgramData/KMC/SOLID/SDK/2.0/solid-os/core/lib/armv7aLaiv/CT_\libsolid_cs.a(solid_mem.o)
                                  0x8 (size before relaxing)
 .ARM.exidx.text._ZN3kmg5solid3MMUC2Ev
                0xf809714c        0x0 C:/ProgramData/KMC/SOLID/SDK/2.0/solid-os/core/lib/armv7aLaiv/CT_\libsolid_cs.a(solid_mem.o)
                                  0x8 (size before relaxing)
 .ARM.exidx.text._ZN3kmg5solid3MMUD2Ev
                0xf809714c        0x0 C:/ProgramData/KMC/SOLID/SDK/2.0/solid-os/core/lib/armv7aLaiv/CT_\libsolid_cs.a(solid_mem.o)
                                  0x8 (size before relaxing)
 .ARM.exidx.text._ZN3kmg5solid10MemManagerImEC2Ev
                0xf809714c        0x0 C:/ProgramData/KMC/SOLID/SDK/2.0/solid-os/core/lib/armv7aLaiv/CT_\libsolid_cs.a(solid_mem.o)
                                  0x8 (size before relaxing)
 .ARM.exidx.text._ZN3kmg5solid10MemManagerImED2Ev
                0xf809714c        0x0 C:/ProgramData/KMC/SOLID/SDK/2.0/solid-os/core/lib/armv7aLaiv/CT_\libsolid_cs.a(solid_mem.o)
                                  0x8 (size before relaxing)
 .ARM.exidx.text._ZN3kmg5solid12StackManagerImEC2Ev
                0xf809714c        0x0 C:/ProgramData/KMC/SOLID/SDK/2.0/solid-os/core/lib/armv7aLaiv/CT_\libsolid_cs.a(solid_mem.o)
                                  0x8 (size before relaxing)
 .ARM.exidx.text._ZN3kmg5solid12StackManagerImED2Ev
                0xf809714c        0x0 C:/ProgramData/KMC/SOLID/SDK/2.0/solid-os/core/lib/armv7aLaiv/CT_\libsolid_cs.a(solid_mem.o)
                                  0x8 (size before relaxing)
 .ARM.exidx.text._ZN3kmg5solid9MemoryMapC2Ev
                0xf809714c        0x0 C:/ProgramData/KMC/SOLID/SDK/2.0/solid-os/core/lib/armv7aLaiv/CT_\libsolid_cs.a(solid_mem.o)
                                  0x8 (size before relaxing)
 .ARM.exidx.text._ZN3kmg5solid9MemoryMapD2Ev
                0xf809714c        0x0 C:/ProgramData/KMC/SOLID/SDK/2.0/solid-os/core/lib/armv7aLaiv/CT_\libsolid_cs.a(solid_mem.o)
                                  0x8 (size before relaxing)
 .ARM.exidx.text._ZN3kmg5solid10MemManagerImE11AddFreeAreaEmj
                0xf809714c        0x0 C:/ProgramData/KMC/SOLID/SDK/2.0/solid-os/core/lib/armv7aLaiv/CT_\libsolid_cs.a(solid_mem.o)
                                  0x8 (size before relaxing)
 .ARM.exidx.text._ZN3kmg5solid10MemManagerImE10RemoveAreaEmj
                0xf809714c        0x0 C:/ProgramData/KMC/SOLID/SDK/2.0/solid-os/core/lib/armv7aLaiv/CT_\libsolid_cs.a(solid_mem.o)
                                  0x8 (size before relaxing)
 .ARM.exidx.text._ZN3kmg5solid10MemManagerImE5AllocEjPmPjb
                0xf809714c        0x0 C:/ProgramData/KMC/SOLID/SDK/2.0/solid-os/core/lib/armv7aLaiv/CT_\libsolid_cs.a(solid_mem.o)
                                  0x8 (size before relaxing)
 .ARM.exidx.text._ZN3kmg5solid10MemManagerImE4FreeEmPj
                0xf809714c        0x0 C:/ProgramData/KMC/SOLID/SDK/2.0/solid-os/core/lib/armv7aLaiv/CT_\libsolid_cs.a(solid_mem.o)
                                  0x8 (size before relaxing)
 .ARM.exidx.text._ZN3kmg5solid10MemManagerImE4InitEv
                0xf809714c        0x0 C:/ProgramData/KMC/SOLID/SDK/2.0/solid-os/core/lib/armv7aLaiv/CT_\libsolid_cs.a(solid_mem.o)
                                  0x8 (size before relaxing)
 .ARM.exidx.text._ZN3kmg5solid12StackManagerImE4InitEv
                0xf809714c        0x0 C:/ProgramData/KMC/SOLID/SDK/2.0/solid-os/core/lib/armv7aLaiv/CT_\libsolid_cs.a(solid_mem.o)
                                  0x8 (size before relaxing)
 .ARM.exidx.text._ZN3kmg5solid10MemManagerImE7GetUsedEv
                0xf809714c        0x0 C:/ProgramData/KMC/SOLID/SDK/2.0/solid-os/core/lib/armv7aLaiv/CT_\libsolid_cs.a(solid_mem.o)
                                  0x8 (size before relaxing)
 .ARM.exidx.text._ZN3kmg5solid12StackManagerImE7SetModeEb
                0xf809714c        0x0 C:/ProgramData/KMC/SOLID/SDK/2.0/solid-os/core/lib/armv7aLaiv/CT_\libsolid_cs.a(solid_mem.o)
                                  0x8 (size before relaxing)
 .ARM.exidx.text._ZN3kmg5solid12StackManagerImE5AllocEjPm
                0xf809714c        0x0 C:/ProgramData/KMC/SOLID/SDK/2.0/solid-os/core/lib/armv7aLaiv/CT_\libsolid_cs.a(solid_mem.o)
                                  0x8 (size before relaxing)
 .ARM.exidx.text._ZN3kmg5solid12StackManagerImE4FreeEm
                0xf809714c        0x0 C:/ProgramData/KMC/SOLID/SDK/2.0/solid-os/core/lib/armv7aLaiv/CT_\libsolid_cs.a(solid_mem.o)
                                  0x8 (size before relaxing)
 .ARM.exidx.text._ZN3kmg5solid10MemManagerImE12AllocAlignedEjmPm
                0xf809714c        0x0 C:/ProgramData/KMC/SOLID/SDK/2.0/solid-os/core/lib/armv7aLaiv/CT_\libsolid_cs.a(solid_mem.o)
                                  0x8 (size before relaxing)
 .ARM.exidx.text._ZN3kmg5solid10MemManagerImED0Ev
                0xf809714c        0x0 C:/ProgramData/KMC/SOLID/SDK/2.0/solid-os/core/lib/armv7aLaiv/CT_\libsolid_cs.a(solid_mem.o)
                                  0x8 (size before relaxing)
 .ARM.exidx.text._ZN3kmg5solid12StackManagerImED0Ev
                0xf809714c        0x0 C:/ProgramData/KMC/SOLID/SDK/2.0/solid-os/core/lib/armv7aLaiv/CT_\libsolid_cs.a(solid_mem.o)
                                  0x8 (size before relaxing)
 .ARM.exidx.text._ZN3kmg5solid10MemManagerImE10AllocChunkEv
                0xf809714c        0x0 C:/ProgramData/KMC/SOLID/SDK/2.0/solid-os/core/lib/armv7aLaiv/CT_\libsolid_cs.a(solid_mem.o)
                                  0x8 (size before relaxing)
 .ARM.exidx.text._ZN3kmg5solid10MemManagerImE8AddChunkERPNS0_15SOLID_MEM_CHUNKImEES5_b
                0xf809714c        0x0 C:/ProgramData/KMC/SOLID/SDK/2.0/solid-os/core/lib/armv7aLaiv/CT_\libsolid_cs.a(solid_mem.o)
                                  0x8 (size before relaxing)
 .ARM.exidx.text._ZN3kmg5solid10MemManagerImE9FreeChunkEPNS0_15SOLID_MEM_CHUNKImEE
                0xf809714c        0x0 C:/ProgramData/KMC/SOLID/SDK/2.0/solid-os/core/lib/armv7aLaiv/CT_\libsolid_cs.a(solid_mem.o)
                                  0x8 (size before relaxing)
 .ARM.exidx.text._ZN3kmg5solid10MemManagerImE11RemoveChunkERPNS0_15SOLID_MEM_CHUNKImEES5_S5_
                0xf809714c        0x0 C:/ProgramData/KMC/SOLID/SDK/2.0/solid-os/core/lib/armv7aLaiv/CT_\libsolid_cs.a(solid_mem.o)
                                  0x8 (size before relaxing)
 .ARM.exidx.text._ZN3kmg5solid12StackManagerImE8IsInUsedEmj
                0xf809714c        0x0 C:/ProgramData/KMC/SOLID/SDK/2.0/solid-os/core/lib/armv7aLaiv/CT_\libsolid_cs.a(solid_mem.o)
                                  0x8 (size before relaxing)
 .ARM.exidx     0xf809714c        0x0 C:/ProgramData/KMC/SOLID/SDK/2.0/solid-os/core/lib/armv7aLaiv/CT_\libsolid_cs.a(solid_mem_cache.o)
                                 0xd0 (size before relaxing)
 .ARM.exidx     0xf809714c        0x0 C:/ProgramData/KMC/SOLID/SDK/2.0/solid-os/core/lib/armv7aLaiv/CT_\libsolid_cs.a(solid_mutex.o)
                                 0x38 (size before relaxing)
 .ARM.exidx     0xf809714c        0x0 C:/ProgramData/KMC/SOLID/SDK/2.0/solid-os/core/lib/armv7aLaiv/CT_\libsolid_cs.a(solid_rtc.o)
                                 0x18 (size before relaxing)
 .ARM.exidx     0xf809714c        0x0 C:/ProgramData/KMC/SOLID/SDK/2.0/solid-os/core/lib/armv7aLaiv/CT_\libsolid_cs.a(solid_timer.o)
                                0x110 (size before relaxing)
 .ARM.exidx.text._ZN3kmg5solid9TickCountC2Ev
                0xf809714c        0x0 C:/ProgramData/KMC/SOLID/SDK/2.0/solid-os/core/lib/armv7aLaiv/CT_\libsolid_cs.a(solid_timer.o)
                                  0x8 (size before relaxing)
 .ARM.exidx.text._ZN3kmg5solid9TickCountD2Ev
                0xf809714c        0x0 C:/ProgramData/KMC/SOLID/SDK/2.0/solid-os/core/lib/armv7aLaiv/CT_\libsolid_cs.a(solid_timer.o)
                                  0x8 (size before relaxing)
 .ARM.exidx.text._ZN3kmg5solid5TimerC2Ev
                0xf809714c        0x0 C:/ProgramData/KMC/SOLID/SDK/2.0/solid-os/core/lib/armv7aLaiv/CT_\libsolid_cs.a(solid_timer.o)
                                  0x8 (size before relaxing)
 .ARM.exidx.text._ZN3kmg5solid5TimerD2Ev
                0xf809714c        0x0 C:/ProgramData/KMC/SOLID/SDK/2.0/solid-os/core/lib/armv7aLaiv/CT_\libsolid_cs.a(solid_timer.o)
                                  0x8 (size before relaxing)
 .ARM.exidx.text._ZNK3kmg5solid9TickCount14GetTicksPerSecEv
                0xf809714c        0x0 C:/ProgramData/KMC/SOLID/SDK/2.0/solid-os/core/lib/armv7aLaiv/CT_\libsolid_cs.a(solid_timer.o)
                                  0x8 (size before relaxing)
 .ARM.exidx.text._ZNK3kmg5solid5Timer14GetTicksPerSecEv
                0xf809714c        0x0 C:/ProgramData/KMC/SOLID/SDK/2.0/solid-os/core/lib/armv7aLaiv/CT_\libsolid_cs.a(solid_timer.o)
                                  0x8 (size before relaxing)
 .ARM.exidx.text._ZNK3kmg5solid5Timer11GetMaxTicksEv
                0xf809714c        0x0 C:/ProgramData/KMC/SOLID/SDK/2.0/solid-os/core/lib/armv7aLaiv/CT_\libsolid_cs.a(solid_timer.o)
                                  0x8 (size before relaxing)
 .ARM.exidx     0xf809714c        0x0 C:/ProgramData/KMC/SOLID/SDK/2.0/solid-os/core/lib/armv7aLaiv/CT_\libsolid_cs.a(solid_vector.o)
                                 0x48 (size before relaxing)
 .ARM.exidx     0xf809714c        0x0 C:/ProgramData/KMC/SOLID/SDK/2.0/solid-os/core/lib/armv7aLaiv/CT_\libsolid_cs.a(solid_vlink.o)
                                 0x50 (size before relaxing)
 .ARM.exidx     0xf809714c        0x0 C:/ProgramData/KMC/SOLID/SDK/2.0/solid-os/core/lib/armv7aLaiv/CT_\libsolid_cs.a(tasan.o)
                                0x1f0 (size before relaxing)
 .ARM.exidx     0xf809714c        0x0 C:/ProgramData/KMC/SOLID/SDK/2.0/solid-os/core/lib/armv7aLaiv/CT_\libsolid_cs.a(tasan_interceptors.o)
                                 0x28 (size before relaxing)
 .ARM.exidx     0xf809714c        0x0 C:/ProgramData/KMC/SOLID/SDK/2.0/solid-os/core/lib/armv7aLaiv/CT_\libsolid_cs.a(solid_mem_mmu.o)
                                 0xa0 (size before relaxing)
 .ARM.exidx     0xf809714c        0x0 C:/ProgramData/KMC/SOLID/SDK/2.0/solid-os/core/lib/armv7aLaiv/CT_\libsolid_cs.a(kmc_evttracker_core.o)
                                 0x50 (size before relaxing)
 .ARM.exidx     0xf809714c        0x0 C:/ProgramData/KMC/SOLID/SDK/2.0/solid-os/core/lib/armv7aLaiv/CT_\libsolid_cs.a(dlmalloc.o)
                                0x178 (size before relaxing)
 .ARM.exidx     0xf809714c        0x0 C:/ProgramData/KMC/SOLID/SDK/2.0/solid-os/core/lib/armv7aLaiv/CT_\libsolid_cs.a(solid_asan.o)
                                 0x10 (size before relaxing)
 .ARM.exidx     0xf809714c        0x0 C:/ProgramData/KMC/SOLID/SDK/2.0/solid-os/net/lwIP/lib/armv7aLaiv/CT_\libnet.a(sys_arch.o)
                                 0xc0 (size before relaxing)
 .ARM.exidx     0xf809714c        0x0 C:/ProgramData/KMC/SOLID/SDK/2.0/solid-os/net/lwIP/lib/armv7aLaiv/CT_\libnet.a(sockets.o)
                                0x108 (size before relaxing)
 .ARM.exidx     0xf809714c        0x0 C:/ProgramData/KMC/SOLID/SDK/2.0/solid-os/net/lwIP/lib/armv7aLaiv/CT_\libnet.a(tcpip.o)
                                 0x68 (size before relaxing)
 .ARM.exidx     0xf809714c        0x0 C:/ProgramData/KMC/SOLID/SDK/2.0/solid-os/net/lwIP/lib/armv7aLaiv/CT_\libnet.a(def.o)
                                 0x30 (size before relaxing)
 .ARM.exidx     0xf809714c        0x0 C:/ProgramData/KMC/SOLID/SDK/2.0/solid-os/net/lwIP/lib/armv7aLaiv/CT_\libnet.a(init.o)
                                  0x8 (size before relaxing)
 .ARM.exidx     0xf809714c        0x0 C:/ProgramData/KMC/SOLID/SDK/2.0/solid-os/net/lwIP/lib/armv7aLaiv/CT_\libnet.a(ip4.o)
                                 0x28 (size before relaxing)
 .ARM.exidx     0xf809714c        0x0 C:/ProgramData/KMC/SOLID/SDK/2.0/solid-os/net/lwIP/lib/armv7aLaiv/CT_\libnet.a(ip4_addr.o)
                                 0x30 (size before relaxing)
 .ARM.exidx     0xf809714c        0x0 C:/ProgramData/KMC/SOLID/SDK/2.0/solid-os/net/lwIP/lib/armv7aLaiv/CT_\libnet.a(ip4_frag.o)
                                 0x58 (size before relaxing)
 .ARM.exidx     0xf809714c        0x0 C:/ProgramData/KMC/SOLID/SDK/2.0/solid-os/net/lwIP/lib/armv7aLaiv/CT_\libnet.a(mem.o)
                                 0x30 (size before relaxing)
 .ARM.exidx     0xf809714c        0x0 C:/ProgramData/KMC/SOLID/SDK/2.0/solid-os/net/lwIP/lib/armv7aLaiv/CT_\libnet.a(memp.o)
                                 0x40 (size before relaxing)
 .ARM.exidx     0xf809714c        0x0 C:/ProgramData/KMC/SOLID/SDK/2.0/solid-os/net/lwIP/lib/armv7aLaiv/CT_\libnet.a(netif.o)
                                 0x80 (size before relaxing)
 .ARM.exidx     0xf809714c        0x0 C:/ProgramData/KMC/SOLID/SDK/2.0/solid-os/net/lwIP/lib/armv7aLaiv/CT_\libnet.a(pbuf.o)
                                 0xe8 (size before relaxing)
 .ARM.exidx     0xf809714c        0x0 C:/ProgramData/KMC/SOLID/SDK/2.0/solid-os/net/lwIP/lib/armv7aLaiv/CT_\libnet.a(stats.o)
                                  0x8 (size before relaxing)
 .ARM.exidx     0xf809714c        0x0 C:/ProgramData/KMC/SOLID/SDK/2.0/solid-os/net/lwIP/lib/armv7aLaiv/CT_\libnet.a(tcp.o)
                                0x170 (size before relaxing)
 .ARM.exidx     0xf809714c        0x0 C:/ProgramData/KMC/SOLID/SDK/2.0/solid-os/net/lwIP/lib/armv7aLaiv/CT_\libnet.a(tcp_in.o)
                                 0x48 (size before relaxing)
 .ARM.exidx     0xf809714c        0x0 C:/ProgramData/KMC/SOLID/SDK/2.0/solid-os/net/lwIP/lib/armv7aLaiv/CT_\libnet.a(tcp_out.o)
                                 0x88 (size before relaxing)
 .ARM.exidx     0xf809714c        0x0 C:/ProgramData/KMC/SOLID/SDK/2.0/solid-os/net/lwIP/lib/armv7aLaiv/CT_\libnet.a(timeouts.o)
                                 0x50 (size before relaxing)
 .ARM.exidx     0xf809714c        0x0 C:/ProgramData/KMC/SOLID/SDK/2.0/solid-os/net/lwIP/lib/armv7aLaiv/CT_\libnet.a(udp.o)
                                 0x80 (size before relaxing)
 .ARM.exidx     0xf809714c        0x0 C:/ProgramData/KMC/SOLID/SDK/2.0/solid-os/net/lwIP/lib/armv7aLaiv/CT_\libnet.a(ethernet.o)
                                 0x10 (size before relaxing)
 .ARM.exidx     0xf809714c        0x0 C:/ProgramData/KMC/SOLID/SDK/2.0/solid-os/net/lwIP/lib/armv7aLaiv/CT_\libnet.a(solid_net_if.o)
                                 0x88 (size before relaxing)
 .ARM.exidx     0xf809714c        0x0 C:/ProgramData/KMC/SOLID/SDK/2.0/solid-os/net/lwIP/lib/armv7aLaiv/CT_\libnet.a(solid_net_registerapi.o)
                                  0x8 (size before relaxing)
 .ARM.exidx     0xf809714c        0x0 C:/ProgramData/KMC/SOLID/SDK/2.0/solid-os/net/lwIP/lib/armv7aLaiv/CT_\libnet.a(impl_net_stack.o)
                                 0x80 (size before relaxing)
 .ARM.exidx     0xf809714c        0x0 C:/ProgramData/KMC/SOLID/SDK/2.0/solid-os/net/lwIP/lib/armv7aLaiv/CT_\libnet.a(impl_net_stack_errno.o)
                                  0x8 (size before relaxing)
 .ARM.exidx     0xf809714c        0x0 C:/ProgramData/KMC/SOLID/SDK/2.0/solid-os/net/lwIP/lib/armv7aLaiv/CT_\libnet.a(ethernetif.o)
                                 0x18 (size before relaxing)
 .ARM.exidx     0xf809714c        0x0 C:/ProgramData/KMC/SOLID/SDK/2.0/solid-os/net/lwIP/lib/armv7aLaiv/CT_\libnet.a(api_lib.o)
                                 0x98 (size before relaxing)
 .ARM.exidx     0xf809714c        0x0 C:/ProgramData/KMC/SOLID/SDK/2.0/solid-os/net/lwIP/lib/armv7aLaiv/CT_\libnet.a(api_msg.o)
                                 0xd8 (size before relaxing)
 .ARM.exidx     0xf809714c        0x0 C:/ProgramData/KMC/SOLID/SDK/2.0/solid-os/net/lwIP/lib/armv7aLaiv/CT_\libnet.a(err.o)
                                 0x10 (size before relaxing)
 .ARM.exidx     0xf809714c        0x0 C:/ProgramData/KMC/SOLID/SDK/2.0/solid-os/net/lwIP/lib/armv7aLaiv/CT_\libnet.a(netbuf.o)
                                 0x48 (size before relaxing)
 .ARM.exidx     0xf809714c        0x0 C:/ProgramData/KMC/SOLID/SDK/2.0/solid-os/net/lwIP/lib/armv7aLaiv/CT_\libnet.a(netdb.o)
                                 0x20 (size before relaxing)
 .ARM.exidx     0xf809714c        0x0 C:/ProgramData/KMC/SOLID/SDK/2.0/solid-os/net/lwIP/lib/armv7aLaiv/CT_\libnet.a(dns.o)
                                 0x98 (size before relaxing)
 .ARM.exidx     0xf809714c        0x0 C:/ProgramData/KMC/SOLID/SDK/2.0/solid-os/net/lwIP/lib/armv7aLaiv/CT_\libnet.a(inet_chksum.o)
                                 0x48 (size before relaxing)
 .ARM.exidx     0xf809714c        0x0 C:/ProgramData/KMC/SOLID/SDK/2.0/solid-os/net/lwIP/lib/armv7aLaiv/CT_\libnet.a(dhcp.o)
                                0x128 (size before relaxing)
 .ARM.exidx     0xf809714c        0x0 C:/ProgramData/KMC/SOLID/SDK/2.0/solid-os/net/lwIP/lib/armv7aLaiv/CT_\libnet.a(etharp.o)
                                 0x80 (size before relaxing)
 .ARM.exidx     0xf809714c        0x0 C:/ProgramData/KMC/SOLID/SDK/2.0/solid-os/net/lwIP/lib/armv7aLaiv/CT_\libnet.a(icmp.o)
                                 0x20 (size before relaxing)
 .ARM.exidx     0xf809714c        0x0 C:/ProgramData/KMC/SOLID/SDK/2.0/solid-os/rtos/toppers_asp3/lib/armv7aLaiv/CT__\libkernel.a(dataqueue.o)
                                 0xf8 (size before relaxing)
 .ARM.exidx     0xf809714c        0x0 C:/ProgramData/KMC/SOLID/SDK/2.0/solid-os/rtos/toppers_asp3/lib/armv7aLaiv/CT__\libkernel.a(interrupt.o)
                                 0xa0 (size before relaxing)
 .ARM.exidx     0xf809714c        0x0 C:/ProgramData/KMC/SOLID/SDK/2.0/solid-os/rtos/toppers_asp3/lib/armv7aLaiv/CT__\libkernel.a(vasyslog.o)
                                 0x10 (size before relaxing)
 .ARM.exidx     0xf809714c        0x0 C:/ProgramData/KMC/SOLID/SDK/2.0/solid-os/rtos/toppers_asp3/lib/armv7aLaiv/CT__\libkernel.a(semaphore.o)
                                 0xa0 (size before relaxing)
 .ARM.exidx     0xf809714c        0x0 C:/ProgramData/KMC/SOLID/SDK/2.0/solid-os/rtos/toppers_asp3/lib/armv7aLaiv/CT__\libkernel.a(startup.o)
                                 0x68 (size before relaxing)
 .ARM.exidx     0xf809714c        0x0 C:/ProgramData/KMC/SOLID/SDK/2.0/solid-os/rtos/toppers_asp3/lib/armv7aLaiv/CT__\libkernel.a(sys_manage.o)
                                 0xa0 (size before relaxing)
 .ARM.exidx     0xf809714c        0x0 C:/ProgramData/KMC/SOLID/SDK/2.0/solid-os/rtos/toppers_asp3/lib/armv7aLaiv/CT__\libkernel.a(task.o)
                                 0xe0 (size before relaxing)
 .ARM.exidx     0xf809714c        0x0 C:/ProgramData/KMC/SOLID/SDK/2.0/solid-os/rtos/toppers_asp3/lib/armv7aLaiv/CT__\libkernel.a(taskhook.o)
                                  0x8 (size before relaxing)
 .ARM.exidx     0xf809714c        0x0 C:/ProgramData/KMC/SOLID/SDK/2.0/solid-os/rtos/toppers_asp3/lib/armv7aLaiv/CT__\libkernel.a(task_manage.o)
                                 0x80 (size before relaxing)
 .ARM.exidx     0xf809714c        0x0 C:/ProgramData/KMC/SOLID/SDK/2.0/solid-os/rtos/toppers_asp3/lib/armv7aLaiv/CT__\libkernel.a(time_event.o)
                                 0xc0 (size before relaxing)
 .ARM.exidx     0xf809714c        0x0 C:/ProgramData/KMC/SOLID/SDK/2.0/solid-os/rtos/toppers_asp3/lib/armv7aLaiv/CT__\libkernel.a(wait.o)
                                 0xc8 (size before relaxing)
 .ARM.exidx     0xf809714c        0x0 C:/ProgramData/KMC/SOLID/SDK/2.0/solid-os/rtos/toppers_asp3/lib/armv7aLaiv/CT__\libkernel.a(solid_rtos_registerapi.o)
                                  0x8 (size before relaxing)
 .ARM.exidx     0xf809714c        0x0 C:/ProgramData/KMC/SOLID/SDK/2.0/solid-os/rtos/toppers_asp3/lib/armv7aLaiv/CT__\libkernel.a(target_fput_log.o)
                                 0x10 (size before relaxing)
 .ARM.exidx     0xf809714c        0x0 C:/ProgramData/KMC/SOLID/SDK/2.0/solid-os/rtos/toppers_asp3/lib/armv7aLaiv/CT__\libkernel.a(target_intc_impl.o)
                                 0x80 (size before relaxing)
 .ARM.exidx     0xf809714c        0x0 C:/ProgramData/KMC/SOLID/SDK/2.0/solid-os/rtos/toppers_asp3/lib/armv7aLaiv/CT__\libkernel.a(target_timer_impl.o)
                                 0x48 (size before relaxing)
 .ARM.exidx     0xf809714c        0x0 C:/ProgramData/KMC/SOLID/SDK/2.0/solid-os/rtos/toppers_asp3/lib/armv7aLaiv/CT__\libkernel.a(kmc_evttracker_rtos.o)
                                 0x38 (size before relaxing)
 .ARM.exidx     0xf809714c        0x0 C:/ProgramData/KMC/SOLID/SDK/2.0/solid-os/rtos/toppers_asp3/lib/armv7aLaiv/CT__\libkernel.a(rtos_prof.o)
                                 0x68 (size before relaxing)
 .ARM.exidx     0xf809714c        0x0 C:/ProgramData/KMC/SOLID/SDK/2.0/solid-os/rtos/toppers_asp3/lib/armv7aLaiv/CT__\libkernel.a(kernel_cfg_intl.o)
                                 0x18 (size before relaxing)
 .ARM.exidx     0xf809714c        0x0 C:/ProgramData/KMC/SOLID/SDK/2.0/solid-os/rtos/toppers_asp3/lib/armv7aLaiv/CT__\libkernel.a(alarm.o)
                                 0x68 (size before relaxing)
 .ARM.exidx     0xf809714c        0x0 C:/ProgramData/KMC/SOLID/SDK/2.0/solid-os/rtos/toppers_asp3/lib/armv7aLaiv/CT__\libkernel.a(core_kernel_impl.o)
                                 0x58 (size before relaxing)
 .ARM.exidx     0xf809714c        0x0 C:/ProgramData/KMC/SOLID/SDK/2.0/solid-os/rtos/toppers_asp3/lib/armv7aLaiv/CT__\libkernel.a(cyclic.o)
                                 0x60 (size before relaxing)
 .ARM.exidx     0xf809714c        0x0 C:/ProgramData/KMC/SOLID/SDK/2.0/solid-os/rtos/toppers_asp3/lib/armv7aLaiv/CT__\libkernel.a(eventflag.o)
                                 0xb0 (size before relaxing)
 .ARM.exidx     0xf809714c        0x0 C:/ProgramData/KMC/SOLID/SDK/2.0/solid-os/rtos/toppers_asp3/lib/armv7aLaiv/CT__\libkernel.a(exception.o)
                                 0x38 (size before relaxing)
 .ARM.exidx     0xf809714c        0x0 C:/ProgramData/KMC/SOLID/SDK/2.0/solid-os/rtos/toppers_asp3/lib/armv7aLaiv/CT__\libkernel.a(mempfix.o)
                                 0xa8 (size before relaxing)
 .ARM.exidx     0xf809714c        0x0 C:/ProgramData/KMC/SOLID/SDK/2.0/solid-os/rtos/toppers_asp3/lib/armv7aLaiv/CT__\libkernel.a(tSysLog.o)
                                 0x58 (size before relaxing)
 .ARM.exidx     0xf809714c        0x0 C:/ProgramData/KMC/SOLID/SDK/2.0/solid-os/rtos/toppers_asp3/lib/armv7aLaiv/CT__\libkernel.a(mutex.o)
                                 0xf8 (size before relaxing)
 .ARM.exidx     0xf809714c        0x0 C:/ProgramData/KMC/SOLID/SDK/2.0/solid-os/rtos/toppers_asp3/lib/armv7aLaiv/CT__\libkernel.a(pridataq.o)
                                 0xe0 (size before relaxing)
 .ARM.exidx     0xf809714c        0x0 C:/ProgramData/KMC/SOLID/SDK/2.0/solid-os/rtos/toppers_asp3/lib/armv7aLaiv/CT__\libkernel.a(task_refer.o)
                                 0x40 (size before relaxing)
 .ARM.exidx     0xf809714c        0x0 C:/ProgramData/KMC/SOLID/SDK/2.0/solid-os/rtos/toppers_asp3/lib/armv7aLaiv/CT__\libkernel.a(task_sync.o)
                                 0xb0 (size before relaxing)
 .ARM.exidx     0xf809714c        0x0 C:/ProgramData/KMC/SOLID/SDK/2.0/solid-os/rtos/toppers_asp3/lib/armv7aLaiv/CT__\libkernel.a(task_term.o)
                                 0x80 (size before relaxing)
 .ARM.exidx     0xf809714c        0x0 C:/ProgramData/KMC/SOLID/SDK/2.0/solid-os/rtos/toppers_asp3/lib/armv7aLaiv/CT__\libkernel.a(time_manage.o)
                                 0x78 (size before relaxing)
 .ARM.exidx     0xf809714c        0x0 C:/ProgramData/KMC/SOLID/SDK/2.0/solid-os/rtos/toppers_asp3/lib/armv7aLaiv/CT__\libkernel.a(log_output.o)
                                 0x20 (size before relaxing)
 .ARM.exidx     0xf809714c        0x0 C:/Users/admin/Documents/SOLID-IDE/Projects/lwip_server/Debug_tasan/exeClang_SOLID/\libbsp.a(impl_cs_event.o)
                                  0x8 (size before relaxing)
 .ARM.exidx.text.asan.module_ctor
                0xf809714c        0x8 C:/Users/admin/Documents/SOLID-IDE/Projects/lwip_server/Debug_tasan/exeClang_SOLID/\libbsp.a(impl_cs_event.o)
 .ARM.exidx     0xf8097154       0x10 C:/Users/admin/Documents/SOLID-IDE/Projects/lwip_server/Debug_tasan/exeClang_SOLID/\libbsp.a(impl_dmac.o)
                                 0x58 (size before relaxing)
 .ARM.exidx     0xf8097164       0x10 C:/Users/admin/Documents/SOLID-IDE/Projects/lwip_server/Debug_tasan/exeClang_SOLID/\libbsp.a(impl_iores.o)
                                 0x18 (size before relaxing)
 .ARM.exidx     0xf8097174       0x10 C:/Users/admin/Documents/SOLID-IDE/Projects/lwip_server/Debug_tasan/exeClang_SOLID/\libbsp.a(impl_log.o)
                                 0x20 (size before relaxing)
 .ARM.exidx     0xf8097184       0x10 C:/Users/admin/Documents/SOLID-IDE/Projects/lwip_server/Debug_tasan/exeClang_SOLID/\libbsp.a(impl_net_dev_ether.o)
                                0x140 (size before relaxing)
 .ARM.exidx     0xf8097194       0x10 C:/Users/admin/Documents/SOLID-IDE/Projects/lwip_server/Debug_tasan/exeClang_SOLID/\libbsp.a(impl_net_dev_get_macaddr.o)
                                 0x40 (size before relaxing)
 .ARM.exidx     0xf80971a4       0x10 C:/Users/admin/Documents/SOLID-IDE/Projects/lwip_server/Debug_tasan/exeClang_SOLID/\libbsp.a(impl_net_dev_getconfig.o)
                                 0x18 (size before relaxing)
 .ARM.exidx     0xf80971b4       0x10 C:/Users/admin/Documents/SOLID-IDE/Projects/lwip_server/Debug_tasan/exeClang_SOLID/\libbsp.a(impl_rtc.o)
                                 0x28 (size before relaxing)
 .ARM.exidx     0xf80971c4       0x10 C:/Users/admin/Documents/SOLID-IDE/Projects/lwip_server/Debug_tasan/exeClang_SOLID/\libbsp.a(impl_timer.o)
                                 0x60 (size before relaxing)
 .ARM.exidx     0xf80971d4        0x8 C:/Users/admin/Documents/SOLID-IDE/Projects/lwip_server/Debug_tasan/exeClang_SOLID/\libbsp.a(rtc.o)
                                 0x70 (size before relaxing)
 .ARM.exidx     0xf80971dc        0x0 C:/Users/admin/Documents/SOLID-IDE/Projects/lwip_server/Debug_tasan/exeClang_SOLID/\libbsp.a(rtc_userdef.o)
                                  0x8 (size before relaxing)
 .ARM.exidx     0xf80971dc        0x8 C:/Users/admin/Documents/SOLID-IDE/Projects/lwip_server/Debug_tasan/exeClang_SOLID/\libbsp.a(bsp_globals.o)
                                 0x18 (size before relaxing)
 .ARM.exidx     0xf80971e4        0x8 C:/Users/admin/Documents/SOLID-IDE/Projects/lwip_server/Debug_tasan/exeClang_SOLID/\libbsp.a(rza_io_regrw.o)
                                 0x30 (size before relaxing)
 .ARM.exidx.text._ZNK10__cxxabiv117__class_type_info11__do_upcastEPKS0_PPv
                0xf80971ec        0x8 C:/GCC4/ARM/s002/lib/armv7aLaiv\libstdc++.a(class_type_info.o)
 .ARM.exidx.text._ZNK10__cxxabiv117__class_type_info20__do_find_public_srcEiPKvPKS0_S2_
                0xf80971f4        0x8 C:/GCC4/ARM/s002/lib/armv7aLaiv\libstdc++.a(class_type_info.o)
 .ARM.exidx.text._ZN10__cxxabiv117__class_type_infoD2Ev
                0xf80971fc        0x0 C:/GCC4/ARM/s002/lib/armv7aLaiv\libstdc++.a(class_type_info.o)
                                  0x8 (size before relaxing)
 .ARM.exidx.text._ZN10__cxxabiv117__class_type_infoD0Ev
                0xf80971fc        0x0 C:/GCC4/ARM/s002/lib/armv7aLaiv\libstdc++.a(class_type_info.o)
                                  0x8 (size before relaxing)
 .ARM.exidx.text._ZNK10__cxxabiv117__class_type_info11__do_upcastEPKS0_PKvRNS0_15__upcast_resultE
                0xf80971fc        0x0 C:/GCC4/ARM/s002/lib/armv7aLaiv\libstdc++.a(class_type_info.o)
                                  0x8 (size before relaxing)
 .ARM.exidx.text._ZNK10__cxxabiv117__class_type_info10__do_catchEPKSt9type_infoPPvj
                0xf80971fc        0x0 C:/GCC4/ARM/s002/lib/armv7aLaiv\libstdc++.a(class_type_info.o)
                                  0x8 (size before relaxing)
 .ARM.exidx.text._ZNK10__cxxabiv117__class_type_info12__do_dyncastEiNS0_10__sub_kindEPKS0_PKvS3_S5_RNS0_16__dyncast_resultE
                0xf80971fc        0x0 C:/GCC4/ARM/s002/lib/armv7aLaiv\libstdc++.a(class_type_info.o)
                                  0x8 (size before relaxing)
 .ARM.exidx.text._ZSt15set_new_handlerPFvvE
                0xf80971fc        0x0 C:/GCC4/ARM/s002/lib/armv7aLaiv\libstdc++.a(new_handler.o)
                                  0x8 (size before relaxing)
 .ARM.exidx.text._ZSt15get_new_handlerv
                0xf80971fc        0x0 C:/GCC4/ARM/s002/lib/armv7aLaiv\libstdc++.a(new_handler.o)
                                  0x8 (size before relaxing)
 .ARM.exidx.text._ZdlPvj
                0xf80971fc        0x0 C:/GCC4/ARM/s002/lib/armv7aLaiv\libstdc++.a(del_ops.o)
                                  0x8 (size before relaxing)
 .ARM.exidx.text._ZN10__cxxabiv120__si_class_type_infoD2Ev
                0xf80971fc        0x0 C:/GCC4/ARM/s002/lib/armv7aLaiv\libstdc++.a(si_class_type_info.o)
                                  0x8 (size before relaxing)
 .ARM.exidx.text._ZN10__cxxabiv120__si_class_type_infoD0Ev
                0xf80971fc        0x0 C:/GCC4/ARM/s002/lib/armv7aLaiv\libstdc++.a(si_class_type_info.o)
                                  0x8 (size before relaxing)
 .ARM.exidx.text._ZNK10__cxxabiv120__si_class_type_info20__do_find_public_srcEiPKvPKNS_17__class_type_infoES2_
                0xf80971fc        0x0 C:/GCC4/ARM/s002/lib/armv7aLaiv\libstdc++.a(si_class_type_info.o)
                                  0x8 (size before relaxing)
 .ARM.exidx.text._ZNK10__cxxabiv120__si_class_type_info12__do_dyncastEiNS_17__class_type_info10__sub_kindEPKS1_PKvS4_S6_RNS1_16__dyncast_resultE
                0xf80971fc        0x0 C:/GCC4/ARM/s002/lib/armv7aLaiv\libstdc++.a(si_class_type_info.o)
                                  0x8 (size before relaxing)
 .ARM.exidx.text._ZNK10__cxxabiv120__si_class_type_info11__do_upcastEPKNS_17__class_type_infoEPKvRNS1_15__upcast_resultE
                0xf80971fc        0x8 C:/GCC4/ARM/s002/lib/armv7aLaiv\libstdc++.a(si_class_type_info.o)
 .ARM.exidx.text._ZdlPv
                0xf8097204        0x8 C:/GCC4/ARM/s002/lib/armv7aLaiv\libstdc++.a(del_op.o)
 .ARM.exidx.text._ZNSt9type_infoD2Ev
                0xf809720c        0x0 C:/GCC4/ARM/s002/lib/armv7aLaiv\libstdc++.a(tinfo.o)
                                  0x8 (size before relaxing)
 .ARM.exidx.text._ZNKSt9type_info15__is_function_pEv
                0xf809720c        0x0 C:/GCC4/ARM/s002/lib/armv7aLaiv\libstdc++.a(tinfo.o)
                                  0x8 (size before relaxing)
 .ARM.exidx.text._ZNKSt9type_info11__do_upcastEPKN10__cxxabiv117__class_type_infoEPPv
                0xf809720c        0x0 C:/GCC4/ARM/s002/lib/armv7aLaiv\libstdc++.a(tinfo.o)
                                  0x8 (size before relaxing)
 .ARM.exidx.text._ZNSt9type_infoD0Ev
                0xf809720c        0x0 C:/GCC4/ARM/s002/lib/armv7aLaiv\libstdc++.a(tinfo.o)
                                  0x8 (size before relaxing)
 .ARM.exidx.text._ZNKSt9type_infoeqERKS_
                0xf809720c        0x0 C:/GCC4/ARM/s002/lib/armv7aLaiv\libstdc++.a(tinfo.o)
                                  0x8 (size before relaxing)
 .ARM.exidx.text._ZNKSt9type_info10__do_catchEPKS_PPvj
                0xf809720c        0x0 C:/GCC4/ARM/s002/lib/armv7aLaiv\libstdc++.a(tinfo.o)
                                  0x8 (size before relaxing)
 .ARM.exidx.text.__udivmoddi4
                0xf809720c        0x0 C:/GCC4/ARM/s002/lib/armv7aLaiv/libgcc.a(_udivmoddi4.o)
                                  0x8 (size before relaxing)
 .ARM.exidx.text.selfrel_offset31
                0xf809720c        0x0 C:/GCC4/ARM/s002/lib/armv7aLaiv/libgcc.a(unwind-arm.o)
                                  0x8 (size before relaxing)
 .ARM.exidx.text.search_EIT_table
                0xf809720c        0x0 C:/GCC4/ARM/s002/lib/armv7aLaiv/libgcc.a(unwind-arm.o)
                                  0x8 (size before relaxing)
 .ARM.exidx.text.__gnu_unwind_get_pr_addr
                0xf809720c        0x0 C:/GCC4/ARM/s002/lib/armv7aLaiv/libgcc.a(unwind-arm.o)
                                  0x8 (size before relaxing)
 .ARM.exidx.text.get_eit_entry
                0xf809720c        0x8 C:/GCC4/ARM/s002/lib/armv7aLaiv/libgcc.a(unwind-arm.o)
 .ARM.exidx.text.restore_non_core_regs
                0xf8097214        0x8 C:/GCC4/ARM/s002/lib/armv7aLaiv/libgcc.a(unwind-arm.o)
 .ARM.exidx.text._Unwind_decode_typeinfo_ptr.isra.0
                0xf809721c        0x8 C:/GCC4/ARM/s002/lib/armv7aLaiv/libgcc.a(unwind-arm.o)
 .ARM.exidx.text.__gnu_unwind_24bit.isra.1
                0xf8097224        0x0 C:/GCC4/ARM/s002/lib/armv7aLaiv/libgcc.a(unwind-arm.o)
                                  0x8 (size before relaxing)
 .ARM.exidx.text._Unwind_DebugHook
                0xf8097224        0x0 C:/GCC4/ARM/s002/lib/armv7aLaiv/libgcc.a(unwind-arm.o)
                                  0x8 (size before relaxing)
 .ARM.exidx.text.unwind_phase2
                0xf8097224        0x8 C:/GCC4/ARM/s002/lib/armv7aLaiv/libgcc.a(unwind-arm.o)
 .ARM.exidx.text.unwind_phase2_forced
                0xf809722c        0x8 C:/GCC4/ARM/s002/lib/armv7aLaiv/libgcc.a(unwind-arm.o)
 .ARM.exidx.text._Unwind_GetCFA
                0xf8097234        0x8 C:/GCC4/ARM/s002/lib/armv7aLaiv/libgcc.a(unwind-arm.o)
 .ARM.exidx.text.__gnu_Unwind_RaiseException
                0xf809723c        0x8 C:/GCC4/ARM/s002/lib/armv7aLaiv/libgcc.a(unwind-arm.o)
 .ARM.exidx.text.__gnu_Unwind_ForcedUnwind
                0xf8097244        0x8 C:/GCC4/ARM/s002/lib/armv7aLaiv/libgcc.a(unwind-arm.o)
 .ARM.exidx.text.__gnu_Unwind_Resume
                0xf809724c        0x8 C:/GCC4/ARM/s002/lib/armv7aLaiv/libgcc.a(unwind-arm.o)
 .ARM.exidx.text.__gnu_Unwind_Resume_or_Rethrow
                0xf8097254        0x8 C:/GCC4/ARM/s002/lib/armv7aLaiv/libgcc.a(unwind-arm.o)
 .ARM.exidx.text._Unwind_Complete
                0xf809725c        0x0 C:/GCC4/ARM/s002/lib/armv7aLaiv/libgcc.a(unwind-arm.o)
                                  0x8 (size before relaxing)
 .ARM.exidx.text._Unwind_DeleteException
                0xf809725c        0x0 C:/GCC4/ARM/s002/lib/armv7aLaiv/libgcc.a(unwind-arm.o)
                                  0x8 (size before relaxing)
 .ARM.exidx.text._Unwind_VRS_Get
                0xf809725c        0x0 C:/GCC4/ARM/s002/lib/armv7aLaiv/libgcc.a(unwind-arm.o)
                                  0x8 (size before relaxing)
 .ARM.exidx.text._Unwind_GetGR
                0xf809725c        0x0 C:/GCC4/ARM/s002/lib/armv7aLaiv/libgcc.a(unwind-arm.o)
                                  0x8 (size before relaxing)
 .ARM.exidx.text._Unwind_VRS_Set
                0xf809725c        0x0 C:/GCC4/ARM/s002/lib/armv7aLaiv/libgcc.a(unwind-arm.o)
                                  0x8 (size before relaxing)
 .ARM.exidx.text._Unwind_SetGR
                0xf809725c        0x0 C:/GCC4/ARM/s002/lib/armv7aLaiv/libgcc.a(unwind-arm.o)
                                  0x8 (size before relaxing)
 .ARM.exidx.text.__gnu_Unwind_Backtrace
                0xf809725c        0x8 C:/GCC4/ARM/s002/lib/armv7aLaiv/libgcc.a(unwind-arm.o)
 .ARM.exidx.text.__gnu_unwind_pr_common
                0xf8097264        0x8 C:/GCC4/ARM/s002/lib/armv7aLaiv/libgcc.a(unwind-arm.o)
 .ARM.exidx.text.__aeabi_unwind_cpp_pr0
                0xf809726c        0x8 C:/GCC4/ARM/s002/lib/armv7aLaiv/libgcc.a(unwind-arm.o)
 .ARM.exidx.text.__aeabi_unwind_cpp_pr1
                0xf8097274        0x0 C:/GCC4/ARM/s002/lib/armv7aLaiv/libgcc.a(unwind-arm.o)
                                  0x8 (size before relaxing)
 .ARM.exidx.text.__aeabi_unwind_cpp_pr2
                0xf8097274        0x0 C:/GCC4/ARM/s002/lib/armv7aLaiv/libgcc.a(unwind-arm.o)
                                  0x8 (size before relaxing)
 .ARM.exidx.text._Unwind_VRS_Pop
                0xf8097274       0x10 C:/GCC4/ARM/s002/lib/armv7aLaiv/libgcc.a(unwind-arm.o)
                                  0x8 (size before relaxing)
 .ARM.exidx.text.next_unwind_byte
                0xf8097284        0x0 C:/GCC4/ARM/s002/lib/armv7aLaiv/libgcc.a(pr-support.o)
                                  0x8 (size before relaxing)
 .ARM.exidx.text._Unwind_GetGR.constprop.0
                0xf8097284        0x8 C:/GCC4/ARM/s002/lib/armv7aLaiv/libgcc.a(pr-support.o)
 .ARM.exidx.text.unwind_UCB_from_context
                0xf809728c        0x8 C:/GCC4/ARM/s002/lib/armv7aLaiv/libgcc.a(pr-support.o)
 .ARM.exidx.text.__gnu_unwind_execute
                0xf8097294        0x8 C:/GCC4/ARM/s002/lib/armv7aLaiv/libgcc.a(pr-support.o)
 .ARM.exidx.text.__gnu_unwind_frame
                0xf809729c        0x8 C:/GCC4/ARM/s002/lib/armv7aLaiv/libgcc.a(pr-support.o)
 .ARM.exidx.text._Unwind_GetRegionStart
                0xf80972a4        0x8 C:/GCC4/ARM/s002/lib/armv7aLaiv/libgcc.a(pr-support.o)
 .ARM.exidx.text._Unwind_GetLanguageSpecificData
                0xf80972ac        0x0 C:/GCC4/ARM/s002/lib/armv7aLaiv/libgcc.a(pr-support.o)
                                  0x8 (size before relaxing)
 .ARM.exidx.text._Unwind_GetTextRelBase
                0xf80972ac        0x8 C:/GCC4/ARM/s002/lib/armv7aLaiv/libgcc.a(pr-support.o)
 .ARM.exidx.text._Unwind_GetDataRelBase
                0xf80972b4        0x0 C:/GCC4/ARM/s002/lib/armv7aLaiv/libgcc.a(pr-support.o)
                                  0x8 (size before relaxing)
                0xf80972b4                __exidx_end = .
                0xf80972b4                _solid_rodata_end = .
                0x0008d000                _solid_rodata_offs = (_solid_rodata_start - _solid_start)
                0x0000a2b4                _solid_rodata_size = (_solid_rodata_end - _solid_rodata_start)

.rel.dyn        0xf80972b4        0x0
 .rel.iplt      0xf80972b4        0x0 C:/Users/admin/Documents/SOLID-IDE/Projects/lwip_server/Debug_tasan/exeClang_SOLID/lwip_server/lwip_server_all.o

.data           0xf8098000     0x3500
                0xf8098000                _solid_data_start = .
 *(.data .data.*)
 .data          0xf8098000      0x9e0 C:/Users/admin/Documents/SOLID-IDE/Projects/lwip_server/Debug_tasan/exeClang_SOLID/lwip_server/lwip_server_all.o
                0xf8098280                __kmc_eventlog_max_record
 .data          0xf80989e0       0x30 C:/ProgramData/KMC/SOLID/SDK/2.0/solid-os/core/lib/armv7aLaiv/CT_\libsolid_cs.a(solid_exception.o)
 .data          0xf8098a10      0x320 C:/ProgramData/KMC/SOLID/SDK/2.0/solid-os/core/lib/armv7aLaiv/CT_\libsolid_cs.a(solid_loader_fixed.o)
 .data          0xf8098d30        0x4 C:/ProgramData/KMC/SOLID/SDK/2.0/solid-os/core/lib/armv7aLaiv/CT_\libsolid_cs.a(solid_log.o)
 *fill*         0xf8098d34        0x4 
 .data          0xf8098d38        0x8 C:/ProgramData/KMC/SOLID/SDK/2.0/solid-os/core/lib/armv7aLaiv/CT_\libsolid_cs.a(solid_timer.o)
 .data          0xf8098d40        0x4 C:/ProgramData/KMC/SOLID/SDK/2.0/solid-os/core/lib/armv7aLaiv/CT_\libsolid_cs.a(kmc_evttracker_core.o)
 .data          0xf8098d44       0x20 C:/ProgramData/KMC/SOLID/SDK/2.0/solid-os/net/lwIP/lib/armv7aLaiv/CT_\libnet.a(sys_arch.o)
 .data          0xf8098d64        0x6 C:/ProgramData/KMC/SOLID/SDK/2.0/solid-os/net/lwIP/lib/armv7aLaiv/CT_\libnet.a(tcp.o)
 .data          0xf8098d6a        0x2 C:/ProgramData/KMC/SOLID/SDK/2.0/solid-os/net/lwIP/lib/armv7aLaiv/CT_\libnet.a(udp.o)
 *fill*         0xf8098d6c        0x4 
 .data          0xf8098d70       0x28 C:/ProgramData/KMC/SOLID/SDK/2.0/solid-os/net/lwIP/lib/armv7aLaiv/CT_\libnet.a(solid_net_if.o)
 .data          0xf8098d98      0x2a0 C:/ProgramData/KMC/SOLID/SDK/2.0/solid-os/net/lwIP/lib/armv7aLaiv/CT_\libnet.a(solid_net_registerapi.o)
 .data          0xf8099038       0x44 C:/ProgramData/KMC/SOLID/SDK/2.0/solid-os/net/lwIP/lib/armv7aLaiv/CT_\libnet.a(err.o)
 .data          0xf809907c        0x4 C:/ProgramData/KMC/SOLID/SDK/2.0/solid-os/net/lwIP/lib/armv7aLaiv/CT_\libnet.a(dhcp.o)
 .data          0xf8099080      0x310 C:/ProgramData/KMC/SOLID/SDK/2.0/solid-os/rtos/toppers_asp3/lib/armv7aLaiv/CT__\libkernel.a(solid_rtos_registerapi.o)
 .data          0xf8099390       0x10 C:/ProgramData/KMC/SOLID/SDK/2.0/solid-os/rtos/toppers_asp3/lib/armv7aLaiv/CT__\libkernel.a(target_intc_impl.o)
 .data          0xf80993a0      0x120 C:/Users/admin/Documents/SOLID-IDE/Projects/lwip_server/Debug_tasan/exeClang_SOLID/\libbsp.a(impl_dmac.o)
 .data          0xf80994c0      0xdc0 C:/Users/admin/Documents/SOLID-IDE/Projects/lwip_server/Debug_tasan/exeClang_SOLID/\libbsp.a(impl_iores.o)
 .data          0xf809a280       0x40 C:/Users/admin/Documents/SOLID-IDE/Projects/lwip_server/Debug_tasan/exeClang_SOLID/\libbsp.a(impl_log.o)
 .data          0xf809a2c0      0x460 C:/Users/admin/Documents/SOLID-IDE/Projects/lwip_server/Debug_tasan/exeClang_SOLID/\libbsp.a(impl_net_dev_ether.o)
 .data          0xf809a720       0xe0 C:/Users/admin/Documents/SOLID-IDE/Projects/lwip_server/Debug_tasan/exeClang_SOLID/\libbsp.a(impl_net_dev_get_macaddr.o)
 .data          0xf809a800       0x80 C:/Users/admin/Documents/SOLID-IDE/Projects/lwip_server/Debug_tasan/exeClang_SOLID/\libbsp.a(impl_net_dev_getconfig.o)
 .data          0xf809a880       0x20 C:/Users/admin/Documents/SOLID-IDE/Projects/lwip_server/Debug_tasan/exeClang_SOLID/\libbsp.a(impl_rtc.o)
 .data          0xf809a8a0       0x80 C:/Users/admin/Documents/SOLID-IDE/Projects/lwip_server/Debug_tasan/exeClang_SOLID/\libbsp.a(impl_timer.o)
 .data          0xf809a920      0x1c0 C:/Users/admin/Documents/SOLID-IDE/Projects/lwip_server/Debug_tasan/exeClang_SOLID/\libbsp.a(bsp_globals.o)
 .data          0xf809aae0        0x0 C:/GCC4/ARM/s002/lib/armv7aLaiv\libstdc++.a(class_type_info.o)
 .data          0xf809aae0        0x0 C:/GCC4/ARM/s002/lib/armv7aLaiv\libstdc++.a(new_handler.o)
 .data          0xf809aae0        0x0 C:/GCC4/ARM/s002/lib/armv7aLaiv\libstdc++.a(del_ops.o)
 .data          0xf809aae0        0x0 C:/GCC4/ARM/s002/lib/armv7aLaiv\libstdc++.a(si_class_type_info.o)
 .data          0xf809aae0        0x0 C:/GCC4/ARM/s002/lib/armv7aLaiv\libstdc++.a(del_op.o)
 .data          0xf809aae0        0x0 C:/GCC4/ARM/s002/lib/armv7aLaiv\libstdc++.a(tinfo.o)
 .data          0xf809aae0        0x0 C:/GCC4/ARM/s002/lib/armv7aLaiv/libgcc.a(_udivsi3.o)
 .data          0xf809aae0        0x0 C:/GCC4/ARM/s002/lib/armv7aLaiv/libgcc.a(_dvmd_tls.o)
 .data          0xf809aae0        0x0 C:/GCC4/ARM/s002/lib/armv7aLaiv/libgcc.a(_aeabi_uldivmod.o)
 .data          0xf809aae0        0x0 C:/GCC4/ARM/s002/lib/armv7aLaiv/libgcc.a(_udivmoddi4.o)
 .data          0xf809aae0        0x0 C:/GCC4/ARM/s002/lib/armv7aLaiv/libgcc.a(unwind-arm.o)
 .data          0xf809aae0        0x0 C:/GCC4/ARM/s002/lib/armv7aLaiv/libgcc.a(libunwind.o)
 .data          0xf809aae0        0x0 C:/GCC4/ARM/s002/lib/armv7aLaiv/libgcc.a(pr-support.o)
 .data          0xf809aae0        0x0 C:/GCC4/ARM/s002/lib/armv7aLaiv/libc.a(_m_init.o)
 .data          0xf809aae0        0x0 C:/GCC4/ARM/s002/lib/armv7aLaiv/libc.a(abort.o)
 .data          0xf809aae0        0x0 C:/GCC4/ARM/s002/lib/armv7aLaiv/libc.a(errno.o)
 .data          0xf809aae0        0x0 C:/GCC4/ARM/s002/lib/armv7aLaiv/libc.a(atoi.o)
 .data          0xf809aae0        0x0 C:/GCC4/ARM/s002/lib/armv7aLaiv/libc.a(rand.o)
 .data.next     0xf809aae0        0x4 C:/GCC4/ARM/s002/lib/armv7aLaiv/libc.a(rand.o)
 .data          0xf809aae4        0x0 C:/GCC4/ARM/s002/lib/armv7aLaiv/libc.a(strtol.o)
 .data          0xf809aae4        0x0 C:/GCC4/ARM/s002/lib/armv7aLaiv/libc.a(strtoul.o)
 .data          0xf809aae4        0x0 C:/GCC4/ARM/s002/lib/armv7aLaiv/libc.a(atexit.o)
 .data          0xf809aae4        0x0 C:/GCC4/ARM/s002/lib/armv7aLaiv/libc.a(memcmp.o)
 .data          0xf809aae4        0x0 C:/GCC4/ARM/s002/lib/armv7aLaiv/libc.a(memcpy.o)
 .data          0xf809aae4        0x0 C:/GCC4/ARM/s002/lib/armv7aLaiv/libc.a(memmove.o)
 .data          0xf809aae4        0x0 C:/GCC4/ARM/s002/lib/armv7aLaiv/libc.a(memset.o)
 .data          0xf809aae4        0x0 C:/GCC4/ARM/s002/lib/armv7aLaiv/libc.a(strcpy.o)
 .data          0xf809aae4        0x0 C:/GCC4/ARM/s002/lib/armv7aLaiv/libc.a(strncpy.o)
 .data          0xf809aae4        0x0 C:/GCC4/ARM/s002/lib/armv7aLaiv/libc.a(strcmp.o)
 .data          0xf809aae4        0x0 C:/GCC4/ARM/s002/lib/armv7aLaiv/libc.a(strncmp.o)
 .data          0xf809aae4        0x0 C:/GCC4/ARM/s002/lib/armv7aLaiv/libc.a(strlen.o)
 .data          0xf809aae4        0x0 C:/GCC4/ARM/s002/lib/armv7aLaiv/libc.a(isctype.o)
 .data          0xf809aae4        0x0 C:/GCC4/ARM/s002/lib/armv7aLaiv/libc.a(global_locale.o)
 .data._lc_global_locale
                0xf809aae4      0x104 C:/GCC4/ARM/s002/lib/armv7aLaiv/libc.a(global_locale.o)
                0xf809aae4                _lc_global_locale
 .data          0xf809abe8        0x0 C:/GCC4/ARM/s002/lib/armv7aLaiv/libc.a(runetable.o)
 .data          0xf809abe8        0x0 C:/GCC4/ARM/s002/lib/armv7aLaiv/libc.a(thread-stub-init.o)
 .data          0xf809abe8        0x0 C:/GCC4/ARM/s002/lib/armv7aLaiv/libc.a(thread-stub.o)
 .data          0xf809abe8        0x0 C:/GCC4/ARM/s002/lib/armv7aLaiv/libc.a(ssp_init.o)
 .data          0xf809abe8        0x0 C:/GCC4/ARM/s002/lib/armv7aLaiv/libc.a(findfp.o)
 .data.__sF     0xf809abe8      0x108 C:/GCC4/ARM/s002/lib/armv7aLaiv/libc.a(findfp.o)
                0xf809abe8                __sF
 .data.__sFext  0xf809acf0      0x438 C:/GCC4/ARM/s002/lib/armv7aLaiv/libc.a(findfp.o)
                0xf809acf0                __sFext
 .data.__sfp_lock
                0xf809b128       0x24 C:/GCC4/ARM/s002/lib/armv7aLaiv/libc.a(findfp.o)
                0xf809b128                __sfp_lock
 .data.__sglue  0xf809b14c        0xc C:/GCC4/ARM/s002/lib/armv7aLaiv/libc.a(findfp.o)
                0xf809b14c                __sglue
 .data.uglue    0xf809b158        0xc C:/GCC4/ARM/s002/lib/armv7aLaiv/libc.a(findfp.o)
 .data          0xf809b164        0x0 C:/GCC4/ARM/s002/lib/armv7aLaiv/libc.a(fprintf.o)
 .data          0xf809b164        0x0 C:/GCC4/ARM/s002/lib/armv7aLaiv/libc.a(stdio.o)
 .data          0xf809b164        0x0 C:/GCC4/ARM/s002/lib/armv7aLaiv/libc.a(vfprintf.o)
 .data.blanks.7951
                0xf809b164       0x10 C:/GCC4/ARM/s002/lib/armv7aLaiv/libc.a(vfprintf.o)
 .data.zeroes.7952
                0xf809b174       0x10 C:/GCC4/ARM/s002/lib/armv7aLaiv/libc.a(vfprintf.o)
 .data          0xf809b184        0x0 C:/GCC4/ARM/s002/lib/armv7aLaiv/libc.a(vsnprintf.o)
 .data          0xf809b184        0x0 C:/GCC4/ARM/s002/lib/armv7aLaiv/libc.a(wsetup.o)
 .data          0xf809b184        0x0 C:/GCC4/ARM/s002/lib/armv7aLaiv/libc.a(makebuf.o)
 .data          0xf809b184        0x0 C:/GCC4/ARM/s002/lib/armv7aLaiv/libc.a(close.o)
 .data          0xf809b184        0x0 C:/GCC4/ARM/s002/lib/armv7aLaiv/libc.a(fstat.o)
 .data          0xf809b184        0x0 C:/GCC4/ARM/s002/lib/armv7aLaiv/libc.a(lseek.o)
 .data          0xf809b184        0x0 C:/GCC4/ARM/s002/lib/armv7aLaiv/libc.a(open.o)
 .data._fd_status
                0xf809b184      0x140 C:/GCC4/ARM/s002/lib/armv7aLaiv/libc.a(open.o)
                0xf809b184                _fd_status
 .data          0xf809b2c4        0x0 C:/GCC4/ARM/s002/lib/armv7aLaiv/libc.a(osemu.o)
 .data.getPT    0xf809b2c4        0x4 C:/GCC4/ARM/s002/lib/armv7aLaiv/libc.a(osemu.o)
 .data.getPT_BLK
                0xf809b2c8        0x4 C:/GCC4/ARM/s002/lib/armv7aLaiv/libc.a(osemu.o)
 .data.getPT_L  0xf809b2cc        0x4 C:/GCC4/ARM/s002/lib/armv7aLaiv/libc.a(osemu.o)
 .data.getSTAT  0xf809b2d0        0x4 C:/GCC4/ARM/s002/lib/armv7aLaiv/libc.a(osemu.o)
 .data.kmc.vlink
                0xf809b2d4       0x14 C:/GCC4/ARM/s002/lib/armv7aLaiv/libc.a(osemu.o)
                0xf809b2d4                __et2_vlink_tbl
 .data.putCMD   0xf809b2e8        0x4 C:/GCC4/ARM/s002/lib/armv7aLaiv/libc.a(osemu.o)
 .data.putPT    0xf809b2ec        0x4 C:/GCC4/ARM/s002/lib/armv7aLaiv/libc.a(osemu.o)
 .data.putPT_BLK
                0xf809b2f0        0x4 C:/GCC4/ARM/s002/lib/armv7aLaiv/libc.a(osemu.o)
 .data.putPT_L  0xf809b2f4        0x4 C:/GCC4/ARM/s002/lib/armv7aLaiv/libc.a(osemu.o)
 .data          0xf809b2f8        0x0 C:/GCC4/ARM/s002/lib/armv7aLaiv/libc.a(perror.o)
 .data          0xf809b2f8        0x0 C:/GCC4/ARM/s002/lib/armv7aLaiv/libc.a(read.o)
 .data          0xf809b2f8        0x0 C:/GCC4/ARM/s002/lib/armv7aLaiv/libc.a(u2dname.o)
 .data._LF_flg  0xf809b2f8        0x4 C:/GCC4/ARM/s002/lib/armv7aLaiv/libc.a(u2dname.o)
                0xf809b2f8                _LF_flg
 .data          0xf809b2fc        0x0 C:/GCC4/ARM/s002/lib/armv7aLaiv/libc.a(utime.o)
 .data          0xf809b2fc        0x0 C:/GCC4/ARM/s002/lib/armv7aLaiv/libc.a(write.o)
 .data          0xf809b2fc        0x0 C:/GCC4/ARM/s002/lib/armv7aLaiv/libc.a(_env.o)
 .data.env_lock
                0xf809b2fc       0x24 C:/GCC4/ARM/s002/lib/armv7aLaiv/libc.a(_env.o)
 .data          0xf809b320        0x0 C:/GCC4/ARM/s002/lib/armv7aLaiv/libc.a(exit.o)
 .data          0xf809b320        0x0 C:/GCC4/ARM/s002/lib/armv7aLaiv/libc.a(signal.o)
 .data          0xf809b320        0x0 C:/GCC4/ARM/s002/lib/armv7aLaiv/libc.a(localtime.o)
 .data          0xf809b320        0x0 C:/GCC4/ARM/s002/lib/armv7aLaiv/libc.a(lldiv.o)
 .data          0xf809b320        0x0 C:/GCC4/ARM/s002/lib/armv7aLaiv/libc.a(memchr.o)
 .data          0xf809b320        0x0 C:/GCC4/ARM/s002/lib/armv7aLaiv/libc.a(strnlen.o)
 .data          0xf809b320        0x0 C:/GCC4/ARM/s002/lib/armv7aLaiv/libc.a(strcspn.o)
 .data          0xf809b320        0x0 C:/GCC4/ARM/s002/lib/armv7aLaiv/libc.a(strncasecmp.o)
 .data          0xf809b320        0x0 C:/GCC4/ARM/s002/lib/armv7aLaiv/libc.a(strdup.o)
 .data          0xf809b320        0x0 C:/GCC4/ARM/s002/lib/armv7aLaiv/libc.a(ctype_.o)
 .data._ctype_tab_
                0xf809b320        0x4 C:/GCC4/ARM/s002/lib/armv7aLaiv/libc.a(ctype_.o)
                0xf809b320                _ctype_tab_
 .data          0xf809b324        0x0 C:/GCC4/ARM/s002/lib/armv7aLaiv/libc.a(toupper_.o)
 .data._toupper_tab_
                0xf809b324        0x4 C:/GCC4/ARM/s002/lib/armv7aLaiv/libc.a(toupper_.o)
                0xf809b324                _toupper_tab_
 .data          0xf809b328        0x0 C:/GCC4/ARM/s002/lib/armv7aLaiv/libc.a(tolower_.o)
 .data._tolower_tab_
                0xf809b328        0x4 C:/GCC4/ARM/s002/lib/armv7aLaiv/libc.a(tolower_.o)
                0xf809b328                _tolower_tab_
 .data          0xf809b32c        0x0 C:/GCC4/ARM/s002/lib/armv7aLaiv/libc.a(citrus_ctype.o)
 .data._citrus_ctype_default
                0xf809b32c        0xc C:/GCC4/ARM/s002/lib/armv7aLaiv/libc.a(citrus_ctype.o)
                0xf809b32c                _citrus_ctype_default
 .data._citrus_ctype_mskanji
                0xf809b338        0xc C:/GCC4/ARM/s002/lib/armv7aLaiv/libc.a(citrus_ctype.o)
                0xf809b338                _citrus_ctype_mskanji
 .data._citrus_ctype_none
                0xf809b344        0xc C:/GCC4/ARM/s002/lib/armv7aLaiv/libc.a(citrus_ctype.o)
                0xf809b344                _citrus_ctype_none
 .data._citrus_ctype_utf8
                0xf809b350        0xc C:/GCC4/ARM/s002/lib/armv7aLaiv/libc.a(citrus_ctype.o)
                0xf809b350                _citrus_ctype_utf8
 .data          0xf809b35c        0x0 C:/GCC4/ARM/s002/lib/armv7aLaiv/libc.a(citrus_none.o)
 .data._citrus_NONE_ctype_ops
                0xf809b35c       0x4c C:/GCC4/ARM/s002/lib/armv7aLaiv/libc.a(citrus_none.o)
                0xf809b35c                _citrus_NONE_ctype_ops
 .data._citrus_NONE_stdenc_ops
                0xf809b3a8       0x28 C:/GCC4/ARM/s002/lib/armv7aLaiv/libc.a(citrus_none.o)
                0xf809b3a8                _citrus_NONE_stdenc_ops
 .data._citrus_NONE_stdenc_traits
                0xf809b3d0        0x8 C:/GCC4/ARM/s002/lib/armv7aLaiv/libc.a(citrus_none.o)
                0xf809b3d0                _citrus_NONE_stdenc_traits
 .data          0xf809b3d8        0x0 C:/GCC4/ARM/s002/lib/armv7aLaiv/libc.a(citrus_mskanji.o)
 .data._citrus_MSKanji_ctype_ops
                0xf809b3d8       0x4c C:/GCC4/ARM/s002/lib/armv7aLaiv/libc.a(citrus_mskanji.o)
                0xf809b3d8                _citrus_MSKanji_ctype_ops
 .data._citrus_MSKanji_stdenc_ops
                0xf809b424       0x28 C:/GCC4/ARM/s002/lib/armv7aLaiv/libc.a(citrus_mskanji.o)
                0xf809b424                _citrus_MSKanji_stdenc_ops
 .data          0xf809b44c        0x0 C:/GCC4/ARM/s002/lib/armv7aLaiv/libc.a(citrus_utf8.o)
 .data._citrus_UTF8_ctype_ops
                0xf809b44c       0x4c C:/GCC4/ARM/s002/lib/armv7aLaiv/libc.a(citrus_utf8.o)
                0xf809b44c                _citrus_UTF8_ctype_ops
 .data._citrus_UTF8_stdenc_ops
                0xf809b498       0x28 C:/GCC4/ARM/s002/lib/armv7aLaiv/libc.a(citrus_utf8.o)
                0xf809b498                _citrus_UTF8_stdenc_ops
 .data          0xf809b4c0        0x0 C:/GCC4/ARM/s002/lib/armv7aLaiv/libc.a(localeconv.o)
 .data          0xf809b4c0        0x0 C:/GCC4/ARM/s002/lib/armv7aLaiv/libc.a(multibyte_amd1.o)
 .data          0xf809b4c0        0x0 C:/GCC4/ARM/s002/lib/armv7aLaiv/libc.a(__isthreaded.o)
 .data          0xf809b4c0        0x0 C:/GCC4/ARM/s002/lib/armv7aLaiv/libc.a(dtoa.o)
 .data          0xf809b4c0        0x0 C:/GCC4/ARM/s002/lib/armv7aLaiv/libc.a(ldtoa.o)
 .data          0xf809b4c0        0x0 C:/GCC4/ARM/s002/lib/armv7aLaiv/libc.a(hdtoa.o)
 .data          0xf809b4c0        0x0 C:/GCC4/ARM/s002/lib/armv7aLaiv/libc.a(dmisc.o)
 .data          0xf809b4c0        0x0 C:/GCC4/ARM/s002/lib/armv7aLaiv/libc.a(misc.o)
 .data.pmem_next
                0xf809b4c0        0x4 C:/GCC4/ARM/s002/lib/armv7aLaiv/libc.a(misc.o)
 .data          0xf809b4c4        0x0 C:/GCC4/ARM/s002/lib/armv7aLaiv/libc.a(softfloat.o)
 .data          0xf809b4c4        0x0 C:/GCC4/ARM/s002/lib/armv7aLaiv/libc.a(__aeabi_dcmpeq.o)
 .data          0xf809b4c4        0x0 C:/GCC4/ARM/s002/lib/armv7aLaiv/libc.a(__aeabi_dcmpge.o)
 .data          0xf809b4c4        0x0 C:/GCC4/ARM/s002/lib/armv7aLaiv/libc.a(__aeabi_dcmpgt.o)
 .data          0xf809b4c4        0x0 C:/GCC4/ARM/s002/lib/armv7aLaiv/libc.a(__aeabi_dcmplt.o)
 .data          0xf809b4c4        0x0 C:/GCC4/ARM/s002/lib/armv7aLaiv/libc.a(rb.o)
 .data          0xf809b4c4        0x0 C:/GCC4/ARM/s002/lib/armv7aLaiv/libc.a(fflush.o)
 .data          0xf809b4c4        0x0 C:/GCC4/ARM/s002/lib/armv7aLaiv/libc.a(flockfile.o)
 .data          0xf809b4c4        0x0 C:/GCC4/ARM/s002/lib/armv7aLaiv/libc.a(fvwrite.o)
 .data          0xf809b4c4        0x0 C:/GCC4/ARM/s002/lib/armv7aLaiv/libc.a(fwalk.o)
 .data          0xf809b4c4        0x0 C:/GCC4/ARM/s002/lib/armv7aLaiv/libc.a(creat.o)
 .data          0xf809b4c4        0x0 C:/GCC4/ARM/s002/lib/armv7aLaiv/libc.a(fpclassifyd_ieee754.o)
 .data          0xf809b4c4        0x0 C:/GCC4/ARM/s002/lib/armv7aLaiv/libc.a(strcasecmp.o)
 .data          0xf809b4c4        0x0 C:/GCC4/ARM/s002/lib/armv7aLaiv/libc.a(gdtoa_locks.o)
 .data.__gdtoa_locks
                0xf809b4c4       0x38 C:/GCC4/ARM/s002/lib/armv7aLaiv/libc.a(gdtoa_locks.o)
                0xf809b4c4                __gdtoa_locks
 .data          0xf809b4fc        0x0 C:/GCC4/ARM/s002/lib/armv7aLaiv/libgcc.a(_divsi3.o)
 .data          0xf809b4fc        0x0 C:/GCC4/ARM/s002/lib/armv7aLaiv/libgcc.a(_arm_addsubdf3.o)
 .data          0xf809b4fc        0x0 C:/GCC4/ARM/s002/lib/armv7aLaiv/libgcc.a(_aeabi_ldivmod.o)
 *(.gnu.linkonce.d.*)
                0xf809b500                . = ALIGN (0x8)
 *fill*         0xf809b4fc        0x4 
                [!provide]                PROVIDE (__start___llvm_prf_cnts, .)
 *(__llvm_prf_cnts)
                [!provide]                PROVIDE (__stop___llvm_prf_cnts, .)
                0xf809b500                . = ALIGN (0x8)
                [!provide]                PROVIDE (__start___llvm_prf_data, .)
 *(__llvm_prf_data)
                [!provide]                PROVIDE (__stop___llvm_prf_data, .)
                0xf809b500                _solid_data_end = .
                0x00098000                _solid_data_offs = (_solid_data_start - _solid_start)
                0x00003500                _solid_sata_size = (_solid_data_end - _solid_data_start)

.igot.plt       0xf809b500        0x0
 .igot.plt      0xf809b500        0x0 C:/Users/admin/Documents/SOLID-IDE/Projects/lwip_server/Debug_tasan/exeClang_SOLID/lwip_server/lwip_server_all.o
                0xf809c500                . = (. + 0x1000)

.args           0xf809d000      0x414
                0xf809d000                _solid_bss_start = .
                0xf809d000                _solid_args_start = .
 *(.args)
 .args          0xf809d000      0x414 C:/ProgramData/KMC/SOLID/SDK/2.0/solid-os/core/lib/armv7aLaiv/CT_\libsolid_cs.a(solid_cs_args.o)
                0xf809d000                solid_args
                0xf809d414                _solid_args_end = .

.bss            0xf809d420    0xb0f74
 *(.sbss .sbss.*)
 *(.bss .bss.*)
 .bss           0xf809d420    0x14000 C:/Users/admin/Documents/SOLID-IDE/Projects/lwip_server/Debug_tasan/exeClang_SOLID/lwip_server/lwip_server_all.o
 .bss           0xf80b1420        0x4 C:/ProgramData/KMC/SOLID/SDK/2.0/solid-os/core/lib/armv7aLaiv/CT_\libsolid_cs.a(solid_cs_main.o)
                0xf80b1420                __dso_handle
 .bss           0xf80b1424      0x401 C:/ProgramData/KMC/SOLID/SDK/2.0/solid-os/core/lib/armv7aLaiv/CT_\libsolid_cs.a(solid_cs_event.o)
 *fill*         0xf80b1825        0x3 
 .bss           0xf80b1828       0x14 C:/ProgramData/KMC/SOLID/SDK/2.0/solid-os/core/lib/armv7aLaiv/CT_\libsolid_cs.a(solid_dmac.o)
                0xf80b1828                _ZN3kmg5solid4dmac10controllerE
 .bss           0xf80b183c        0x4 C:/ProgramData/KMC/SOLID/SDK/2.0/solid-os/core/lib/armv7aLaiv/CT_\libsolid_cs.a(solid_exception.o)
 .bss           0xf80b1840     0x4160 C:/ProgramData/KMC/SOLID/SDK/2.0/solid-os/core/lib/armv7aLaiv/CT_\libsolid_cs.a(solid_fs_base.o)
                0xf80b1840                _ZN5solid2fs7filesysE
                0xf80b1844                _ZN5solid2fs13sysfs_HandlerE
                0xf80b19a0                _ZN5solid2fs11descstockerE
 .bss           0xf80b59a0      0x15c C:/ProgramData/KMC/SOLID/SDK/2.0/solid-os/core/lib/armv7aLaiv/CT_\libsolid_cs.a(solid_fs_mem.o)
 .bss           0xf80b5afc      0x15c C:/ProgramData/KMC/SOLID/SDK/2.0/solid-os/core/lib/armv7aLaiv/CT_\libsolid_cs.a(solid_fs_vlink.o)
 .bss           0xf80b5c58     0x1024 C:/ProgramData/KMC/SOLID/SDK/2.0/solid-os/core/lib/armv7aLaiv/CT_\libsolid_cs.a(solid_intc.o)
                0xf80b5c58                _ZN3kmg5solid4intcE
 .bss           0xf80b6c7c     0x284c C:/ProgramData/KMC/SOLID/SDK/2.0/solid-os/core/lib/armv7aLaiv/CT_\libsolid_cs.a(solid_iores.o)
                0xf80b6c7c                _ZN3kmg5solid5iores5iomgrE
 .bss           0xf80b94c8      0x10c C:/ProgramData/KMC/SOLID/SDK/2.0/solid-os/core/lib/armv7aLaiv/CT_\libsolid_cs.a(solid_loader.o)
                0xf80b94cc                _ZN3kmg5solid3elf9symbolmgrE
                0xf80b95cc                _ZN3kmg5solid3elf7loadmgrE
 .bss           0xf80b95d4        0x8 C:/ProgramData/KMC/SOLID/SDK/2.0/solid-os/core/lib/armv7aLaiv/CT_\libsolid_cs.a(solid_log.o)
 .bss           0xf80b95dc        0x4 C:/ProgramData/KMC/SOLID/SDK/2.0/solid-os/core/lib/armv7aLaiv/CT_\libsolid_cs.a(solid_malloc.o)
 .bss           0xf80b95e0     0xd220 C:/ProgramData/KMC/SOLID/SDK/2.0/solid-os/core/lib/armv7aLaiv/CT_\libsolid_cs.a(solid_mem.o)
                0xf80b95e0                _ZN3kmg5solid5cacheE
                0xf80b9698                _ZN3kmg5solid3mmuE
                0xf80b98a8                _ZN3kmg5solid6memmgrE
                0xf80bc8b8                _ZN3kmg5solid5iomgrE
                0xf80bf8c8                _ZN3kmg5solid7heapmgrE
                0xf80c28d8                _ZN3kmg5solid8stackmgrE
                0xf80c58f0                _ZN3kmg5solid6memmapE
 .bss           0xf80c6800       0x5c C:/ProgramData/KMC/SOLID/SDK/2.0/solid-os/core/lib/armv7aLaiv/CT_\libsolid_cs.a(solid_timer.o)
                0xf80c6800                _ZN3kmg5solid2tcE
                0xf80c6820                _ZN3kmg5solid5timerE
 .bss           0xf80c685c       0x28 C:/ProgramData/KMC/SOLID/SDK/2.0/solid-os/core/lib/armv7aLaiv/CT_\libsolid_cs.a(solid_vector.o)
 .bss           0xf80c6884        0x8 C:/ProgramData/KMC/SOLID/SDK/2.0/solid-os/core/lib/armv7aLaiv/CT_\libsolid_cs.a(solid_vlink.o)
 .bss           0xf80c688c       0x14 C:/ProgramData/KMC/SOLID/SDK/2.0/solid-os/core/lib/armv7aLaiv/CT_\libsolid_cs.a(tasan.o)
                0xf80c688c                asan_reporter
 .bss           0xf80c68a0        0x4 C:/ProgramData/KMC/SOLID/SDK/2.0/solid-os/core/lib/armv7aLaiv/CT_\libsolid_cs.a(kmc_evttracker_core.o)
 .bss           0xf80c68a4       0x18 C:/ProgramData/KMC/SOLID/SDK/2.0/solid-os/core/lib/armv7aLaiv/CT_\libsolid_cs.a(dlmalloc.o)
 .bss           0xf80c68bc       0x58 C:/ProgramData/KMC/SOLID/SDK/2.0/solid-os/net/lwIP/lib/armv7aLaiv/CT_\libnet.a(sys_arch.o)
 .bss           0xf80c6914       0x58 C:/ProgramData/KMC/SOLID/SDK/2.0/solid-os/net/lwIP/lib/armv7aLaiv/CT_\libnet.a(sockets.o)
 .bss           0xf80c696c        0xc C:/ProgramData/KMC/SOLID/SDK/2.0/solid-os/net/lwIP/lib/armv7aLaiv/CT_\libnet.a(tcpip.o)
 .bss           0xf80c6978        0x2 C:/ProgramData/KMC/SOLID/SDK/2.0/solid-os/net/lwIP/lib/armv7aLaiv/CT_\libnet.a(ip4.o)
 .bss           0xf80c697a       0x10 C:/ProgramData/KMC/SOLID/SDK/2.0/solid-os/net/lwIP/lib/armv7aLaiv/CT_\libnet.a(ip4_addr.o)
 *fill*         0xf80c698a        0x2 
 .bss           0xf80c698c        0x6 C:/ProgramData/KMC/SOLID/SDK/2.0/solid-os/net/lwIP/lib/armv7aLaiv/CT_\libnet.a(ip4_frag.o)
 *fill*         0xf80c6992        0x2 
 .bss           0xf80c6994       0x10 C:/ProgramData/KMC/SOLID/SDK/2.0/solid-os/net/lwIP/lib/armv7aLaiv/CT_\libnet.a(mem.o)
 .bss           0xf80c69a4      0x118 C:/ProgramData/KMC/SOLID/SDK/2.0/solid-os/net/lwIP/lib/armv7aLaiv/CT_\libnet.a(memp.o)
 .bss           0xf80c6abc        0x1 C:/ProgramData/KMC/SOLID/SDK/2.0/solid-os/net/lwIP/lib/armv7aLaiv/CT_\libnet.a(netif.o)
 .bss           0xf80c6abd        0x2 C:/ProgramData/KMC/SOLID/SDK/2.0/solid-os/net/lwIP/lib/armv7aLaiv/CT_\libnet.a(tcp.o)
 *fill*         0xf80c6abf        0x1 
 .bss           0xf80c6ac0       0x3e C:/ProgramData/KMC/SOLID/SDK/2.0/solid-os/net/lwIP/lib/armv7aLaiv/CT_\libnet.a(tcp_in.o)
 *fill*         0xf80c6afe        0x2 
 .bss           0xf80c6b00        0xc C:/ProgramData/KMC/SOLID/SDK/2.0/solid-os/net/lwIP/lib/armv7aLaiv/CT_\libnet.a(timeouts.o)
 .bss           0xf80c6b0c       0x10 C:/ProgramData/KMC/SOLID/SDK/2.0/solid-os/net/lwIP/lib/armv7aLaiv/CT_\libnet.a(solid_net_if.o)
                0xf80c6b0c                pb_ops
 .bss           0xf80c6b1c        0x4 C:/ProgramData/KMC/SOLID/SDK/2.0/solid-os/net/lwIP/lib/armv7aLaiv/CT_\libnet.a(impl_net_stack.o)
                0xf80c6b1c                _netif
 .bss           0xf80c6b20      0x125 C:/ProgramData/KMC/SOLID/SDK/2.0/solid-os/net/lwIP/lib/armv7aLaiv/CT_\libnet.a(netdb.o)
 *fill*         0xf80c6c45        0x3 
 .bss           0xf80c6c48      0x48a C:/ProgramData/KMC/SOLID/SDK/2.0/solid-os/net/lwIP/lib/armv7aLaiv/CT_\libnet.a(dns.o)
 *fill*         0xf80c70d2        0x2 
 .bss           0xf80c70d4        0xc C:/ProgramData/KMC/SOLID/SDK/2.0/solid-os/net/lwIP/lib/armv7aLaiv/CT_\libnet.a(dhcp.o)
 .bss           0xf80c70e0       0xf1 C:/ProgramData/KMC/SOLID/SDK/2.0/solid-os/net/lwIP/lib/armv7aLaiv/CT_\libnet.a(etharp.o)
 *fill*         0xf80c71d1        0x3 
 .bss           0xf80c71d4        0x8 C:/ProgramData/KMC/SOLID/SDK/2.0/solid-os/rtos/toppers_asp3/lib/armv7aLaiv/CT__\libkernel.a(startup.o)
                0xf80c71d4                _kernel_kerflg
 .bss           0xf80c71dc        0xc C:/ProgramData/KMC/SOLID/SDK/2.0/solid-os/rtos/toppers_asp3/lib/armv7aLaiv/CT__\libkernel.a(taskhook.o)
                0xf80c71dc                _kernel_mtxhook_check_ceilpri
                0xf80c71e0                _kernel_mtxhook_scan_ceilmtx
                0xf80c71e4                _kernel_mtxhook_release_all
 .bss           0xf80c71e8        0xc C:/ProgramData/KMC/SOLID/SDK/2.0/solid-os/rtos/toppers_asp3/lib/armv7aLaiv/CT__\libkernel.a(time_event.o)
 .bss           0xf80c71f4       0x24 C:/ProgramData/KMC/SOLID/SDK/2.0/solid-os/rtos/toppers_asp3/lib/armv7aLaiv/CT__\libkernel.a(target_intc_impl.o)
                0xf80c71f4                __TMAX_INTNO__
                0xf80c71f8                __TMIN_INTNO__
 .bss           0xf80c7218       0x20 C:/ProgramData/KMC/SOLID/SDK/2.0/solid-os/rtos/toppers_asp3/lib/armv7aLaiv/CT__\libkernel.a(target_timer_impl.o)
 .bss           0xf80c7238        0x4 C:/ProgramData/KMC/SOLID/SDK/2.0/solid-os/rtos/toppers_asp3/lib/armv7aLaiv/CT__\libkernel.a(rtos_prof.o)
 *fill*         0xf80c723c        0x4 
 .bss           0xf80c7240     0x2000 C:/ProgramData/KMC/SOLID/SDK/2.0/solid-os/rtos/toppers_asp3/lib/armv7aLaiv/CT__\libkernel.a(kernel_cfg_intl.o)
 .bss           0xf80c9240      0x418 C:/ProgramData/KMC/SOLID/SDK/2.0/solid-os/rtos/toppers_asp3/lib/armv7aLaiv/CT__\libkernel.a(tSysLog.o)
 *fill*         0xf80c9658        0x8 
 .bss           0xf80c9660      0x1a0 C:/Users/admin/Documents/SOLID-IDE/Projects/lwip_server/Debug_tasan/exeClang_SOLID/\libbsp.a(impl_dmac.o)
 .bss           0xf80c9800       0x40 C:/Users/admin/Documents/SOLID-IDE/Projects/lwip_server/Debug_tasan/exeClang_SOLID/\libbsp.a(impl_log.o)
 .bss           0xf80c9840     0xbd80 C:/Users/admin/Documents/SOLID-IDE/Projects/lwip_server/Debug_tasan/exeClang_SOLID/\libbsp.a(impl_net_dev_ether.o)
                0xf80c9840                pa_tx_desc_top
                0xf80c9880                pa_tx_desc_tail
                0xf80c98c0                pa_rx_desc_top
                0xf80c9900                pa_rx_desc_tail
 .bss           0xf80d55c0       0x80 C:/Users/admin/Documents/SOLID-IDE/Projects/lwip_server/Debug_tasan/exeClang_SOLID/\libbsp.a(impl_net_dev_get_macaddr.o)
 .bss           0xf80d5640       0x80 C:/Users/admin/Documents/SOLID-IDE/Projects/lwip_server/Debug_tasan/exeClang_SOLID/\libbsp.a(impl_timer.o)
 .bss           0xf80d56c0        0x0 C:/GCC4/ARM/s002/lib/armv7aLaiv\libstdc++.a(class_type_info.o)
 .bss           0xf80d56c0        0x0 C:/GCC4/ARM/s002/lib/armv7aLaiv\libstdc++.a(new_handler.o)
 .bss._ZN12_GLOBAL__N_113__new_handlerE
                0xf80d56c0        0x4 C:/GCC4/ARM/s002/lib/armv7aLaiv\libstdc++.a(new_handler.o)
 .bss           0xf80d56c4        0x0 C:/GCC4/ARM/s002/lib/armv7aLaiv\libstdc++.a(del_ops.o)
 .bss           0xf80d56c4        0x0 C:/GCC4/ARM/s002/lib/armv7aLaiv\libstdc++.a(si_class_type_info.o)
 .bss           0xf80d56c4        0x0 C:/GCC4/ARM/s002/lib/armv7aLaiv\libstdc++.a(del_op.o)
 .bss           0xf80d56c4        0x0 C:/GCC4/ARM/s002/lib/armv7aLaiv\libstdc++.a(tinfo.o)
 .bss           0xf80d56c4        0x0 C:/GCC4/ARM/s002/lib/armv7aLaiv/libgcc.a(_udivsi3.o)
 .bss           0xf80d56c4        0x0 C:/GCC4/ARM/s002/lib/armv7aLaiv/libgcc.a(_dvmd_tls.o)
 .bss           0xf80d56c4        0x0 C:/GCC4/ARM/s002/lib/armv7aLaiv/libgcc.a(_aeabi_uldivmod.o)
 .bss           0xf80d56c4        0x0 C:/GCC4/ARM/s002/lib/armv7aLaiv/libgcc.a(_udivmoddi4.o)
 .bss           0xf80d56c4        0x0 C:/GCC4/ARM/s002/lib/armv7aLaiv/libgcc.a(unwind-arm.o)
 .bss           0xf80d56c4        0x0 C:/GCC4/ARM/s002/lib/armv7aLaiv/libgcc.a(libunwind.o)
 .bss           0xf80d56c4        0x0 C:/GCC4/ARM/s002/lib/armv7aLaiv/libgcc.a(pr-support.o)
 .bss           0xf80d56c4        0x0 C:/GCC4/ARM/s002/lib/armv7aLaiv/libc.a(_m_init.o)
 .bss._mspace   0xf80d56c4        0x4 C:/GCC4/ARM/s002/lib/armv7aLaiv/libc.a(_m_init.o)
 .bss.libc_initialized
                0xf80d56c8        0x4 C:/GCC4/ARM/s002/lib/armv7aLaiv/libc.a(_m_init.o)
 .bss.malloc_initialized
                0xf80d56cc        0x4 C:/GCC4/ARM/s002/lib/armv7aLaiv/libc.a(_m_init.o)
 .bss           0xf80d56d0        0x0 C:/GCC4/ARM/s002/lib/armv7aLaiv/libc.a(abort.o)
 .bss           0xf80d56d0        0x0 C:/GCC4/ARM/s002/lib/armv7aLaiv/libc.a(errno.o)
 .bss           0xf80d56d0        0x0 C:/GCC4/ARM/s002/lib/armv7aLaiv/libc.a(atoi.o)
 .bss           0xf80d56d0        0x0 C:/GCC4/ARM/s002/lib/armv7aLaiv/libc.a(rand.o)
 .bss           0xf80d56d0        0x0 C:/GCC4/ARM/s002/lib/armv7aLaiv/libc.a(strtol.o)
 .bss           0xf80d56d0        0x0 C:/GCC4/ARM/s002/lib/armv7aLaiv/libc.a(strtoul.o)
 .bss           0xf80d56d0        0x0 C:/GCC4/ARM/s002/lib/armv7aLaiv/libc.a(atexit.o)
 .bss.atexit_handler0
                0xf80d56d0      0x230 C:/GCC4/ARM/s002/lib/armv7aLaiv/libc.a(atexit.o)
 .bss.atexit_handler_stack
                0xf80d5900        0x4 C:/GCC4/ARM/s002/lib/armv7aLaiv/libc.a(atexit.o)
 .bss.call_depth.5626
                0xf80d5904        0x4 C:/GCC4/ARM/s002/lib/armv7aLaiv/libc.a(atexit.o)
 .bss           0xf80d5908        0x0 C:/GCC4/ARM/s002/lib/armv7aLaiv/libc.a(memcmp.o)
 .bss           0xf80d5908        0x0 C:/GCC4/ARM/s002/lib/armv7aLaiv/libc.a(memcpy.o)
 .bss           0xf80d5908        0x0 C:/GCC4/ARM/s002/lib/armv7aLaiv/libc.a(memmove.o)
 .bss           0xf80d5908        0x0 C:/GCC4/ARM/s002/lib/armv7aLaiv/libc.a(memset.o)
 .bss           0xf80d5908        0x0 C:/GCC4/ARM/s002/lib/armv7aLaiv/libc.a(strcpy.o)
 .bss           0xf80d5908        0x0 C:/GCC4/ARM/s002/lib/armv7aLaiv/libc.a(strncpy.o)
 .bss           0xf80d5908        0x0 C:/GCC4/ARM/s002/lib/armv7aLaiv/libc.a(strcmp.o)
 .bss           0xf80d5908        0x0 C:/GCC4/ARM/s002/lib/armv7aLaiv/libc.a(strncmp.o)
 .bss           0xf80d5908        0x0 C:/GCC4/ARM/s002/lib/armv7aLaiv/libc.a(strlen.o)
 .bss           0xf80d5908        0x0 C:/GCC4/ARM/s002/lib/armv7aLaiv/libc.a(isctype.o)
 .bss           0xf80d5908        0x0 C:/GCC4/ARM/s002/lib/armv7aLaiv/libc.a(global_locale.o)
 .bss           0xf80d5908        0x0 C:/GCC4/ARM/s002/lib/armv7aLaiv/libc.a(runetable.o)
 .bss           0xf80d5908        0x0 C:/GCC4/ARM/s002/lib/armv7aLaiv/libc.a(thread-stub-init.o)
 .bss           0xf80d5908        0x0 C:/GCC4/ARM/s002/lib/armv7aLaiv/libc.a(thread-stub.o)
 .bss.__libc_tsd
                0xf80d5908      0x300 C:/GCC4/ARM/s002/lib/armv7aLaiv/libc.a(thread-stub.o)
 .bss.__libc_tsd_nextkey
                0xf80d5c08        0x4 C:/GCC4/ARM/s002/lib/armv7aLaiv/libc.a(thread-stub.o)
 .bss           0xf80d5c0c        0x0 C:/GCC4/ARM/s002/lib/armv7aLaiv/libc.a(ssp_init.o)
 .bss.__stack_chk_guard
                0xf80d5c0c        0x4 C:/GCC4/ARM/s002/lib/armv7aLaiv/libc.a(ssp_init.o)
                0xf80d5c0c                __stack_chk_guard
 .bss           0xf80d5c10        0x0 C:/GCC4/ARM/s002/lib/armv7aLaiv/libc.a(findfp.o)
 .bss.empty.6946
                0xf80d5c10       0x58 C:/GCC4/ARM/s002/lib/armv7aLaiv/libc.a(findfp.o)
 .bss.usual     0xf80d5c68      0x5d8 C:/GCC4/ARM/s002/lib/armv7aLaiv/libc.a(findfp.o)
 .bss.usualext  0xf80d6240     0x17e8 C:/GCC4/ARM/s002/lib/armv7aLaiv/libc.a(findfp.o)
 .bss           0xf80d7a28        0x0 C:/GCC4/ARM/s002/lib/armv7aLaiv/libc.a(fprintf.o)
 .bss           0xf80d7a28        0x0 C:/GCC4/ARM/s002/lib/armv7aLaiv/libc.a(stdio.o)
 .bss           0xf80d7a28        0x0 C:/GCC4/ARM/s002/lib/armv7aLaiv/libc.a(vfprintf.o)
 .bss.initial.7357
                0xf80d7a28       0x80 C:/GCC4/ARM/s002/lib/armv7aLaiv/libc.a(vfprintf.o)
 .bss           0xf80d7aa8        0x0 C:/GCC4/ARM/s002/lib/armv7aLaiv/libc.a(vsnprintf.o)
 .bss           0xf80d7aa8        0x0 C:/GCC4/ARM/s002/lib/armv7aLaiv/libc.a(wsetup.o)
 .bss           0xf80d7aa8        0x0 C:/GCC4/ARM/s002/lib/armv7aLaiv/libc.a(makebuf.o)
 .bss           0xf80d7aa8        0x0 C:/GCC4/ARM/s002/lib/armv7aLaiv/libc.a(close.o)
 .bss           0xf80d7aa8        0x0 C:/GCC4/ARM/s002/lib/armv7aLaiv/libc.a(fstat.o)
 .bss           0xf80d7aa8        0x0 C:/GCC4/ARM/s002/lib/armv7aLaiv/libc.a(lseek.o)
 .bss           0xf80d7aa8        0x0 C:/GCC4/ARM/s002/lib/armv7aLaiv/libc.a(open.o)
 .bss           0xf80d7aa8        0x0 C:/GCC4/ARM/s002/lib/armv7aLaiv/libc.a(osemu.o)
 .bss.ffblkp    0xf80d7aa8        0x4 C:/GCC4/ARM/s002/lib/armv7aLaiv/libc.a(osemu.o)
 .bss.vlink_not_use_osemu
                0xf80d7aac        0x4 C:/GCC4/ARM/s002/lib/armv7aLaiv/libc.a(osemu.o)
 .bss           0xf80d7ab0        0x0 C:/GCC4/ARM/s002/lib/armv7aLaiv/libc.a(perror.o)
 .bss.buf.4843  0xf80d7ab0       0x40 C:/GCC4/ARM/s002/lib/armv7aLaiv/libc.a(perror.o)
 .bss           0xf80d7af0        0x0 C:/GCC4/ARM/s002/lib/armv7aLaiv/libc.a(read.o)
 .bss           0xf80d7af0        0x0 C:/GCC4/ARM/s002/lib/armv7aLaiv/libc.a(u2dname.o)
 .bss           0xf80d7af0        0x0 C:/GCC4/ARM/s002/lib/armv7aLaiv/libc.a(utime.o)
 .bss           0xf80d7af0        0x0 C:/GCC4/ARM/s002/lib/armv7aLaiv/libc.a(write.o)
 .bss           0xf80d7af0        0x0 C:/GCC4/ARM/s002/lib/armv7aLaiv/libc.a(_env.o)
 .bss.allocated_environ
                0xf80d7af0        0x4 C:/GCC4/ARM/s002/lib/armv7aLaiv/libc.a(_env.o)
 .bss.allocated_environ_size
                0xf80d7af4        0x4 C:/GCC4/ARM/s002/lib/armv7aLaiv/libc.a(_env.o)
 .bss.env_tree  0xf80d7af8       0x10 C:/GCC4/ARM/s002/lib/armv7aLaiv/libc.a(_env.o)
 .bss.marker.6074
                0xf80d7b08        0x1 C:/GCC4/ARM/s002/lib/armv7aLaiv/libc.a(_env.o)
 .bss           0xf80d7b09        0x0 C:/GCC4/ARM/s002/lib/armv7aLaiv/libc.a(exit.o)
 *fill*         0xf80d7b09        0x3 
 .bss.__exiting
                0xf80d7b0c        0x4 C:/GCC4/ARM/s002/lib/armv7aLaiv/libc.a(exit.o)
 .bss           0xf80d7b10        0x0 C:/GCC4/ARM/s002/lib/armv7aLaiv/libc.a(signal.o)
 .bss           0xf80d7b10        0x0 C:/GCC4/ARM/s002/lib/armv7aLaiv/libc.a(localtime.o)
 .bss.time.5089
                0xf80d7b10       0x2c C:/GCC4/ARM/s002/lib/armv7aLaiv/libc.a(localtime.o)
 .bss           0xf80d7b3c        0x0 C:/GCC4/ARM/s002/lib/armv7aLaiv/libc.a(lldiv.o)
 .bss           0xf80d7b3c        0x0 C:/GCC4/ARM/s002/lib/armv7aLaiv/libc.a(memchr.o)
 .bss           0xf80d7b3c        0x0 C:/GCC4/ARM/s002/lib/armv7aLaiv/libc.a(strnlen.o)
 .bss           0xf80d7b3c        0x0 C:/GCC4/ARM/s002/lib/armv7aLaiv/libc.a(strcspn.o)
 .bss           0xf80d7b3c        0x0 C:/GCC4/ARM/s002/lib/armv7aLaiv/libc.a(strncasecmp.o)
 .bss           0xf80d7b3c        0x0 C:/GCC4/ARM/s002/lib/armv7aLaiv/libc.a(strdup.o)
 .bss           0xf80d7b3c        0x0 C:/GCC4/ARM/s002/lib/armv7aLaiv/libc.a(ctype_.o)
 .bss           0xf80d7b3c        0x0 C:/GCC4/ARM/s002/lib/armv7aLaiv/libc.a(toupper_.o)
 .bss           0xf80d7b3c        0x0 C:/GCC4/ARM/s002/lib/armv7aLaiv/libc.a(tolower_.o)
 .bss           0xf80d7b3c        0x0 C:/GCC4/ARM/s002/lib/armv7aLaiv/libc.a(citrus_ctype.o)
 .bss.mskanji_initialized
                0xf80d7b3c        0x4 C:/GCC4/ARM/s002/lib/armv7aLaiv/libc.a(citrus_ctype.o)
 .bss.utf8_initialized
                0xf80d7b40        0x4 C:/GCC4/ARM/s002/lib/armv7aLaiv/libc.a(citrus_ctype.o)
 .bss           0xf80d7b44        0x0 C:/GCC4/ARM/s002/lib/armv7aLaiv/libc.a(citrus_none.o)
 .bss           0xf80d7b44        0x0 C:/GCC4/ARM/s002/lib/armv7aLaiv/libc.a(citrus_mskanji.o)
 .bss           0xf80d7b44        0x0 C:/GCC4/ARM/s002/lib/armv7aLaiv/libc.a(citrus_utf8.o)
 .bss._UTF8_count
                0xf80d7b44        0x4 C:/GCC4/ARM/s002/lib/armv7aLaiv/libc.a(citrus_utf8.o)
 .bss._UTF8_count_array
                0xf80d7b48      0x400 C:/GCC4/ARM/s002/lib/armv7aLaiv/libc.a(citrus_utf8.o)
 .bss           0xf80d7f48        0x0 C:/GCC4/ARM/s002/lib/armv7aLaiv/libc.a(localeconv.o)
 .bss           0xf80d7f48        0x0 C:/GCC4/ARM/s002/lib/armv7aLaiv/libc.a(multibyte_amd1.o)
 .bss           0xf80d7f48        0x0 C:/GCC4/ARM/s002/lib/armv7aLaiv/libc.a(__isthreaded.o)
 .bss.__isthreaded
                0xf80d7f48        0x4 C:/GCC4/ARM/s002/lib/armv7aLaiv/libc.a(__isthreaded.o)
                0xf80d7f48                __isthreaded
 .bss           0xf80d7f4c        0x0 C:/GCC4/ARM/s002/lib/armv7aLaiv/libc.a(dtoa.o)
 .bss           0xf80d7f4c        0x0 C:/GCC4/ARM/s002/lib/armv7aLaiv/libc.a(ldtoa.o)
 .bss           0xf80d7f4c        0x0 C:/GCC4/ARM/s002/lib/armv7aLaiv/libc.a(hdtoa.o)
 .bss           0xf80d7f4c        0x0 C:/GCC4/ARM/s002/lib/armv7aLaiv/libc.a(dmisc.o)
 .bss           0xf80d7f4c        0x0 C:/GCC4/ARM/s002/lib/armv7aLaiv/libc.a(misc.o)
 .bss.freelist  0xf80d7f4c       0x84 C:/GCC4/ARM/s002/lib/armv7aLaiv/libc.a(misc.o)
 .bss.p5s       0xf80d7fd0        0x4 C:/GCC4/ARM/s002/lib/armv7aLaiv/libc.a(misc.o)
 *fill*         0xf80d7fd4        0x4 
 .bss.private_mem
                0xf80d7fd8      0x900 C:/GCC4/ARM/s002/lib/armv7aLaiv/libc.a(misc.o)
 .bss           0xf80d88d8        0x0 C:/GCC4/ARM/s002/lib/armv7aLaiv/libc.a(softfloat.o)
 .bss._softfloat_float_exception_flags
                0xf80d88d8        0x4 C:/GCC4/ARM/s002/lib/armv7aLaiv/libc.a(softfloat.o)
                0xf80d88d8                _softfloat_float_exception_flags
 .bss._softfloat_float_exception_mask
                0xf80d88dc        0x4 C:/GCC4/ARM/s002/lib/armv7aLaiv/libc.a(softfloat.o)
                0xf80d88dc                _softfloat_float_exception_mask
 .bss._softfloat_float_rounding_mode
                0xf80d88e0        0x4 C:/GCC4/ARM/s002/lib/armv7aLaiv/libc.a(softfloat.o)
                0xf80d88e0                _softfloat_float_rounding_mode
 .bss           0xf80d88e4        0x0 C:/GCC4/ARM/s002/lib/armv7aLaiv/libc.a(__aeabi_dcmpeq.o)
 .bss           0xf80d88e4        0x0 C:/GCC4/ARM/s002/lib/armv7aLaiv/libc.a(__aeabi_dcmpge.o)
 .bss           0xf80d88e4        0x0 C:/GCC4/ARM/s002/lib/armv7aLaiv/libc.a(__aeabi_dcmpgt.o)
 .bss           0xf80d88e4        0x0 C:/GCC4/ARM/s002/lib/armv7aLaiv/libc.a(__aeabi_dcmplt.o)
 .bss           0xf80d88e4        0x0 C:/GCC4/ARM/s002/lib/armv7aLaiv/libc.a(rb.o)
 .bss           0xf80d88e4        0x0 C:/GCC4/ARM/s002/lib/armv7aLaiv/libc.a(fflush.o)
 .bss           0xf80d88e4        0x0 C:/GCC4/ARM/s002/lib/armv7aLaiv/libc.a(flockfile.o)
 .bss           0xf80d88e4        0x0 C:/GCC4/ARM/s002/lib/armv7aLaiv/libc.a(fvwrite.o)
 .bss           0xf80d88e4        0x0 C:/GCC4/ARM/s002/lib/armv7aLaiv/libc.a(fwalk.o)
 .bss           0xf80d88e4        0x0 C:/GCC4/ARM/s002/lib/armv7aLaiv/libc.a(creat.o)
 .bss           0xf80d88e4        0x0 C:/GCC4/ARM/s002/lib/armv7aLaiv/libc.a(fpclassifyd_ieee754.o)
 .bss           0xf80d88e4        0x0 C:/GCC4/ARM/s002/lib/armv7aLaiv/libc.a(strcasecmp.o)
 .bss           0xf80d88e4        0x0 C:/GCC4/ARM/s002/lib/armv7aLaiv/libc.a(gdtoa_locks.o)
 .bss           0xf80d88e4        0x0 C:/GCC4/ARM/s002/lib/armv7aLaiv/libgcc.a(_divsi3.o)
 .bss           0xf80d88e4        0x0 C:/GCC4/ARM/s002/lib/armv7aLaiv/libgcc.a(_arm_addsubdf3.o)
 .bss           0xf80d88e4        0x0 C:/GCC4/ARM/s002/lib/armv7aLaiv/libgcc.a(_aeabi_ldivmod.o)
 *(.gnu.linkonce.b.*)
 *(COMMON)
 *fill*         0xf80d88e4        0x4 
 COMMON         0xf80d88e8    0x302ed C:/Users/admin/Documents/SOLID-IDE/Projects/lwip_server/Debug_tasan/exeClang_SOLID/lwip_server/lwip_server_all.o
                0xf80d88e8                _kernel_isrcb_table
                0xf80d88ec                _kernel_isr_queue_table
                0xf80d88f0                _kernel_cyccb_table
                0xf80d88f4                _kernel_mtxcb_table
                0xf80d88f8                _kernel_apdqinib_table
                0xf80d88fc                _kernel_pdqcb_table
                0xf80d8900                _kernel_ampfinib_table
                0xf80d8904                _kernel_aisrinib_table
                0xf80d8908                _kernel_acyc_nfyinfo_table
                0xf80d890c                _kernel_dtqcb_table
                0xf80d89ac                _kernel_aalm_nfyinfo_table
                0xf80d89b0                _kernel_atinib_table
                0xf80d89b4                _kernel_semcb_table
                0xf80d8a04                _kernel_tmevt_heap
                0xf80d8a20                _kernel_inhcb_table
                0xf80d8a24                _kernel_almcb_table
                0xf80d8a28                _kernel_aflginib_table
                0xf80d8a2c                _kernel_isrinib_table
                0xf80d8a30                _kernel_amtxinib_table
                0xf80d8a34                _kernel_aalminib_table
                0xf80d8a38                _kernel_mpfcb_table
                0xf80d8a3c                _kernel_tcb_table
                0xf80d8ba4                _kernel_isr_queue_list
                0xf80d8ba8                __kmc_eventlog_buffer
                0xf8108bc8                _kernel_aseminib_table
                0xf8108bcc                _kernel_acycinib_table
                0xf8108bd0                _kernel_flgcb_table
                0xf8108bd4                _kernel_adtqinib_table
 *fill*         0xf8108bd5        0x3 
 COMMON         0xf8108bd8        0x4 C:/ProgramData/KMC/SOLID/SDK/2.0/solid-os/core/lib/armv7aLaiv/CT_\libsolid_cs.a(solid_malloc.o)
                0xf8108bd8                csMem
 COMMON         0xf8108bdc        0x4 C:/ProgramData/KMC/SOLID/SDK/2.0/solid-os/core/lib/armv7aLaiv/CT_\libsolid_cs.a(solid_vector.o)
                0xf8108bdc                g_pNestedContext
 COMMON         0xf8108be0       0x20 C:/ProgramData/KMC/SOLID/SDK/2.0/solid-os/core/lib/armv7aLaiv/CT_\libsolid_cs.a(tasan.o)
                0xf8108be0                tasan_access_info
 COMMON         0xf8108c00        0x8 C:/ProgramData/KMC/SOLID/SDK/2.0/solid-os/core/lib/armv7aLaiv/CT_\libsolid_cs.a(kmc_evttracker_core.o)
                0xf8108c00                __kmc_toppers_event_data_size
                0xf8108c04                __kmc_toppers_event_data
 COMMON         0xf8108c08       0x78 C:/ProgramData/KMC/SOLID/SDK/2.0/solid-os/net/lwIP/lib/armv7aLaiv/CT_\libnet.a(sys_arch.o)
                0xf8108c08                sys_semaphore_table
                0xf8108c30                sys_mutex_table
                0xf8108c58                sys_mbox_table
 COMMON         0xf8108c80        0x4 C:/ProgramData/KMC/SOLID/SDK/2.0/solid-os/net/lwIP/lib/armv7aLaiv/CT_\libnet.a(tcpip.o)
                0xf8108c80                lock_tcpip_core
 COMMON         0xf8108c84     0x3e93 C:/ProgramData/KMC/SOLID/SDK/2.0/solid-os/net/lwIP/lib/armv7aLaiv/CT_\libnet.a(mem.o)
                0xf8108c84                ram_heap
 COMMON         0xf810cb17    0x30ea2 C:/ProgramData/KMC/SOLID/SDK/2.0/solid-os/net/lwIP/lib/armv7aLaiv/CT_\libnet.a(memp.o)
                0xf810cb17                memp_memory_NETDB_base
                0xf810cc4e                memp_memory_NETBUF_base
                0xf810cc71                memp_memory_TCPIP_MSG_INPKT_base
                0xf810ce74                memp_memory_TCP_SEG_base
                0xf810d197                memp_memory_PBUF_POOL_base
                0xf813cf9a                memp_memory_FRAG_PBUF_base
                0xf813d105                memp_memory_TCPIP_MSG_API_base
                0xf813d208                memp_memory_PBUF_base
                0xf813d30b                memp_memory_TCP_PCB_LISTEN_base
                0xf813d40e                memp_memory_REASSDATA_base
                0xf813d4b1                memp_memory_UDP_PCB_base
                0xf813d534                memp_memory_NETCONN_base
                0xf813d5f7                memp_memory_TCP_PCB_base
                0xf813d956                memp_memory_SYS_TIMEOUT_base
 *fill*         0xf813d9b9        0x3 
 COMMON         0xf813d9bc        0x8 C:/ProgramData/KMC/SOLID/SDK/2.0/solid-os/net/lwIP/lib/armv7aLaiv/CT_\libnet.a(netif.o)
                0xf813d9bc                netif_list
                0xf813d9c0                netif_default
 COMMON         0xf813d9c4        0x1 C:/ProgramData/KMC/SOLID/SDK/2.0/solid-os/net/lwIP/lib/armv7aLaiv/CT_\libnet.a(pbuf.o)
                0xf813d9c4                pbuf_free_ooseq_pending
 *fill*         0xf813d9c5        0x3 
 COMMON         0xf813d9c8      0x104 C:/ProgramData/KMC/SOLID/SDK/2.0/solid-os/net/lwIP/lib/armv7aLaiv/CT_\libnet.a(stats.o)
                0xf813d9c8                lwip_stats
 COMMON         0xf813dacc       0x18 C:/ProgramData/KMC/SOLID/SDK/2.0/solid-os/net/lwIP/lib/armv7aLaiv/CT_\libnet.a(tcp.o)
                0xf813dacc                tcp_active_pcbs_changed
                0xf813dad0                tcp_active_pcbs
                0xf813dad4                tcp_ticks
                0xf813dad8                tcp_listen_pcbs
                0xf813dadc                tcp_bound_pcbs
                0xf813dae0                tcp_tw_pcbs
 COMMON         0xf813dae4        0x4 C:/ProgramData/KMC/SOLID/SDK/2.0/solid-os/net/lwIP/lib/armv7aLaiv/CT_\libnet.a(tcp_in.o)
                0xf813dae4                tcp_input_pcb
 COMMON         0xf813dae8        0x4 C:/ProgramData/KMC/SOLID/SDK/2.0/solid-os/net/lwIP/lib/armv7aLaiv/CT_\libnet.a(udp.o)
                0xf813dae8                udp_pcbs
 COMMON         0xf813daec       0x78 C:/ProgramData/KMC/SOLID/SDK/2.0/solid-os/net/lwIP/lib/armv7aLaiv/CT_\libnet.a(impl_net_stack.o)
                0xf813daec                _netif_store_
                0xf813db24                _dhcp
 COMMON         0xf813db64        0x4 C:/ProgramData/KMC/SOLID/SDK/2.0/solid-os/net/lwIP/lib/armv7aLaiv/CT_\libnet.a(impl_net_stack_errno.o)
                0xf813db64                _net_sys_errno
 COMMON         0xf813db68        0x1 C:/ProgramData/KMC/SOLID/SDK/2.0/solid-os/net/lwIP/lib/armv7aLaiv/CT_\libnet.a(api_msg.o)
                0xf813db68                netconn_aborted
 *fill*         0xf813db69        0x3 
 COMMON         0xf813db6c        0x4 C:/ProgramData/KMC/SOLID/SDK/2.0/solid-os/net/lwIP/lib/armv7aLaiv/CT_\libnet.a(netdb.o)
                0xf813db6c                h_errno
 COMMON         0xf813db70       0x18 C:/ProgramData/KMC/SOLID/SDK/2.0/solid-os/net/lwIP/lib/armv7aLaiv/CT_\libnet.a(ip.o)
                0xf813db70                ip_data
 COMMON         0xf813db88       0x34 C:/ProgramData/KMC/SOLID/SDK/2.0/solid-os/net/lwIP/lib/armv7aLaiv/CT_\libnet.a(dhcp.o)
                0xf813db88                dhcp_rx_options_given
                0xf813db94                dhcp_rx_options_val
 COMMON         0xf813dbbc        0x8 C:/ProgramData/KMC/SOLID/SDK/2.0/solid-os/rtos/toppers_asp3/lib/armv7aLaiv/CT__\libkernel.a(interrupt.o)
                0xf813dbbc                _kernel_free_isrcb
 COMMON         0xf813dbc4       0x9c C:/ProgramData/KMC/SOLID/SDK/2.0/solid-os/rtos/toppers_asp3/lib/armv7aLaiv/CT__\libkernel.a(task.o)
                0xf813dbc4                _kernel_p_schedtsk
                0xf813dbc8                _kernel_ready_queue
                0xf813dc48                _kernel_dspflg
                0xf813dc4c                _kernel_ready_primap
                0xf813dc50                _kernel_free_tcb
                0xf813dc58                _kernel_p_runtsk
                0xf813dc5c                _kernel_enadsp
 COMMON         0xf813dc60       0x20 C:/ProgramData/KMC/SOLID/SDK/2.0/solid-os/rtos/toppers_asp3/lib/armv7aLaiv/CT__\libkernel.a(time_event.o)
                0xf813dc60                _kernel_monotonic_evttim
                0xf813dc64                _kernel_in_signal_time
                0xf813dc68                _kernel_boundary_evttim
                0xf813dc6c                _kernel_current_evttim
                0xf813dc70                _kernel_current_hrtcnt
                0xf813dc78                _kernel_systim_offset
 COMMON         0xf813dc80        0x4 C:/ProgramData/KMC/SOLID/SDK/2.0/solid-os/rtos/toppers_asp3/lib/armv7aLaiv/CT__\libkernel.a(core_kernel_impl.o)
                0xf813dc80                _kernel_excpt_nest_count
 COMMON         0xf813dc84       0x18 C:/Users/admin/Documents/SOLID-IDE/Projects/lwip_server/Debug_tasan/exeClang_SOLID/\libbsp.a(impl_dmac.o)
                0xf813dc84                g_DMACRegs
                0xf813dc90                g_DMARSRegs
 COMMON         0xf813dc9c        0xc C:/Users/admin/Documents/SOLID-IDE/Projects/lwip_server/Debug_tasan/exeClang_SOLID/\libbsp.a(impl_net_dev_ether.o)
                0xf813dc9c                _eth_io_base1
                0xf813dca0                _eth_io_base3
                0xf813dca4                _eth_io_base2
 COMMON         0xf813dca8        0x4 C:/Users/admin/Documents/SOLID-IDE/Projects/lwip_server/Debug_tasan/exeClang_SOLID/\libbsp.a(rtc.o)
                0xf813dca8                rtcreg
 COMMON         0xf813dcac      0x2a0 C:/Users/admin/Documents/SOLID-IDE/Projects/lwip_server/Debug_tasan/exeClang_SOLID/\libbsp.a(bsp_globals.o)
                0xf813dcac                g_MTU2Regs
                0xf813dcb8                g_PFV1Regs
                0xf813dcc4                g_OSTM1Regs
                0xf813dcd0                g_DISC0Regs
                0xf813dcdc                g_SPDIFRegs
                0xf813dce8                g_SPIBSC0Regs
                0xf813dcf4                g_VDC50Regs
                0xf813dd00                g_BSCRegs
                0xf813dd0c                g_SSIF1Regs
                0xf813dd18                g_SCUXRegs
                0xf813dd24                g_USB200Regs
                0xf813dd30                g_LIN0Regs
                0xf813dd3c                g_CPGRegs
                0xf813dd48                g_RIIC2Regs
                0xf813dd54                g_SDG3Regs
                0xf813dd60                g_LVDSRegs
                0xf813dd6c                g_INBRegs
                0xf813dd78                g_SSIF5Regs
                0xf813dd84                g_USB201Regs
                0xf813dd90                g_RTCRegs
                0xf813dd9c                g_CEURegs
                0xf813dda8                g_SSIF2Regs
                0xf813ddb4                g_RIIC0Regs
                0xf813ddc0                g_IRDARegs
                0xf813ddcc                g_RIIC1Regs
                0xf813ddd8                g_SDG0Regs
                0xf813dde4                g_ROMDECRegs
                0xf813ddf0                g_RSPI2Regs
                0xf813ddfc                g_RIIC3Regs
                0xf813de08                g_DVDEC1Regs
                0xf813de14                g_DISC1Regs
                0xf813de20                g_ADCRegs
                0xf813de2c                g_PWMRegs
                0xf813de38                g_VDC51Regs
                0xf813de44                g_SDG1Regs
                0xf813de50                g_SSIF4Regs
                0xf813de5c                g_WDTRegs
                0xf813de68                g_SDG2Regs
                0xf813de74                g_RSPI4Regs
                0xf813de80                g_RSCAN0Regs
                0xf813de8c                g_IEBRegs
                0xf813de98                g_LIN1Regs
                0xf813dea4                g_GPIORegs
                0xf813deb0                g_SSIF3Regs
                0xf813debc                g_PFV0Regs
                0xf813dec8                g_RSPI3Regs
                0xf813ded4                g_SPIBSC1Regs
                0xf813dee0                g_FLCTLRegs
                0xf813deec                g_RSPI0Regs
                0xf813def8                g_DMACRSRegs
                0xf813df04                g_MLBRegs
                0xf813df10                g_SSIF0Regs
                0xf813df1c                g_JCURegs
                0xf813df28                g_DVDEC0Regs
                0xf813df34                g_RSPI1Regs
                0xf813df40                g_OSTM0Regs
 COMMON         0xf813df4c        0x8 C:/GCC4/ARM/s002/lib/armv7aLaiv/libc.a(_m_init.o)
                0xf813df4c                _malloc_start_fnc
                0xf813df50                _malloc_end_fnc
 COMMON         0xf813df54        0x8 C:/GCC4/ARM/s002/lib/armv7aLaiv/libc.a(errno.o)
                0xf813df54                __global_vlink_errno
                0xf813df58                __global_errno
 COMMON         0xf813df5c       0x1c C:/GCC4/ARM/s002/lib/armv7aLaiv/libc.a(atexit.o)
                0xf813df5c                __atexit_mutex
 COMMON         0xf813df78        0x4 C:/GCC4/ARM/s002/lib/armv7aLaiv/libc.a(findfp.o)
                0xf813df78                __sdidinit
 COMMON         0xf813df7c       0x10 C:/GCC4/ARM/s002/lib/armv7aLaiv/libc.a(osemu.o)
                0xf813df7c                _vlink_arg
                0xf813df80                _vlink_end_fnc
                0xf813df84                _vlink_env
                0xf813df88                _vlink_start_fnc
 COMMON         0xf813df8c        0x4 C:/GCC4/ARM/s002/lib/armv7aLaiv/libc.a(_env.o)
                0xf813df8c                environ
 COMMON         0xf813df90        0x4 C:/GCC4/ARM/s002/lib/armv7aLaiv/libc.a(exit.o)
                0xf813df90                __cleanup
                0xf813df94                _heap = .
                0xf813e394                . = (. + 0x400)
 *fill*         0xf813df94      0x400 
                0xf813e394                _heap_end = .
                0xf813e394                _solid_ldr_buf_start = .
                0xf814e394                . = (. + 0x10000)
 *fill*         0xf813e394    0x10000 
                0xf814e394                _solid_ldr_buf_end = .
                0xf814e394                _solid_bss_end = .
                0x0009d000                _solid_bss_offs = (_solid_bss_start - _solid_start)
                0x000b1394                _solid_bss_size = (_solid_bss_end - _solid_bss_start)
                0x0009d000                _solid_args_offs = (_solid_args_start - _solid_start)
                0x00000414                _solid_args_size = (_solid_args_end - _solid_args_start)
                0x00000400                _heap_size = (_heap_end - _heap)
                0x00010000                _solid_ldr_buf_size = (_solid_ldr_buf_end - _solid_ldr_buf_start)
                0xf814f394                . = (. + 0x1000)
                0xf8150000                . = ALIGN (0x4000)

.mmu            0xf8150000     0x8000
                0xf8150000                _solid_mmu_start = .
                0xf8150000                _solid_ttbtable = .
                0xf8154000                . = (. + 0x4000)
 *fill*         0xf8150000     0x4000 
                0xf8154000                _solid_l2table = .
                0xf8158000                . = (. + 0x4000)
 *fill*         0xf8154000     0x4000 
                0xf8158000                _solid_mmu_end = .
                0x00004000                _solid_ttb_size = (_solid_l2table - _solid_mmu_start)
                0x00004000                _solid_l2tb_size = (_solid_mmu_end - _solid_l2table)
                0xf8159000                . = (. + 0x1000)
                0x00001000                SVC_STACK_SIZE = 0x1000
                0x00001000                IRQ_STACK_SIZE = 0x1000
                0x00001000                FIQ_STACK_SIZE = 0x1000
                0x00001000                UND_STACK_SIZE = 0x1000
                0x00001000                ABT_STACK_SIZE = 0x1000
                0x00001000                SYS_STACK_SIZE = 0x1000
                0xf8159000                . = ALIGN (0x1000)

.stacks         0xf8159000     0xb000
                0xf8159000                _solid_stack_start = .
                0xf8159000                _stack_top = .
                0xf8159000                _stack_svc_start = .
                0xf815a000                . = (. + SVC_STACK_SIZE)
 *fill*         0xf8159000     0x1000 
                0xf815a000                _stack_svc_end = .
                0xf815a000                . = ALIGN (0x1000)
                0xf815b000                . = (. + 0x1000)
 *fill*         0xf815a000     0x1000 
                0xf815b000                _stack_irq_start = .
                0xf815c000                . = (. + IRQ_STACK_SIZE)
 *fill*         0xf815b000     0x1000 
                0xf815c000                _stack_irq_end = .
                0xf815c000                . = ALIGN (0x1000)
                0xf815d000                . = (. + 0x1000)
 *fill*         0xf815c000     0x1000 
                0xf815d000                _stack_fiq_start = .
                0xf815e000                . = (. + FIQ_STACK_SIZE)
 *fill*         0xf815d000     0x1000 
                0xf815e000                _stack_fiq_end = .
                0xf815e000                . = ALIGN (0x1000)
                0xf815f000                . = (. + 0x1000)
 *fill*         0xf815e000     0x1000 
                0xf815f000                _stack_und_start = .
                0xf8160000                . = (. + UND_STACK_SIZE)
 *fill*         0xf815f000     0x1000 
                0xf8160000                _stack_und_end = .
                0xf8160000                . = ALIGN (0x1000)
                0xf8161000                . = (. + 0x1000)
 *fill*         0xf8160000     0x1000 
                0xf8161000                _stack_abt_start = .
                0xf8162000                . = (. + ABT_STACK_SIZE)
 *fill*         0xf8161000     0x1000 
                0xf8162000                _stack_abt_end = .
                0xf8162000                . = ALIGN (0x1000)
                0xf8163000                . = (. + 0x1000)
 *fill*         0xf8162000     0x1000 
                0xf8163000                _stack_sys_start = .
                0xf8164000                . = (. + SYS_STACK_SIZE)
 *fill*         0xf8163000     0x1000 
                0xf8164000                _stack_sys_end = .
                0xf8164000                _solid_stack_end = .
                0x00001000                _solid_stack_svc_size = (_stack_svc_end - _stack_svc_start)
                0x00001000                _solid_stack_irq_size = (_stack_irq_end - _stack_irq_start)
                0x00001000                _solid_stack_fiq_size = (_stack_fiq_end - _stack_fiq_start)
                0x00001000                _solid_stack_und_size = (_stack_und_end - _stack_und_start)
                0x00001000                _solid_stack_abt_size = (_stack_abt_end - _stack_abt_start)
                0x00001000                _solid_stack_sys_size = (_stack_sys_end - _stack_sys_start)
                0xf8164000                _solid_end = .
                0x00000001                ASSERT ((_solid_end < (_smm_SOLID_VirtualAddress + _smm_SOLID_Size)), SOLID AREA FULL)

.debug
 *(.debug)

.line
 *(.line)

.debug_srcinfo
 *(.debug_srcinfo)

.debug_sfnames
 *(.debug_sfnames)

.debug_aranges  0x00000000     0x17d8
 *(.debug_aranges)
 .debug_aranges
                0x00000000       0x28 C:/ProgramData/KMC/SOLID/SDK/2.0/solid-os/core/lib/armv7aLaiv/CT_\libsolid_cs.a(solid_cs_asm.o)
 .debug_aranges
                0x00000028       0x20 C:/ProgramData/KMC/SOLID/SDK/2.0/solid-os/rtos/toppers_asp3/lib/armv7aLaiv/CT__\libkernel.a(core_support.o)
 .debug_aranges
                0x00000048       0x50 C:/GCC4/ARM/s002/lib/armv7aLaiv\libstdc++.a(class_type_info.o)
 .debug_aranges
                0x00000098       0x28 C:/GCC4/ARM/s002/lib/armv7aLaiv\libstdc++.a(new_handler.o)
 .debug_aranges
                0x000000c0       0x20 C:/GCC4/ARM/s002/lib/armv7aLaiv\libstdc++.a(del_ops.o)
 .debug_aranges
                0x000000e0       0x40 C:/GCC4/ARM/s002/lib/armv7aLaiv\libstdc++.a(si_class_type_info.o)
 .debug_aranges
                0x00000120       0x20 C:/GCC4/ARM/s002/lib/armv7aLaiv\libstdc++.a(del_op.o)
 .debug_aranges
                0x00000140       0x48 C:/GCC4/ARM/s002/lib/armv7aLaiv\libstdc++.a(tinfo.o)
 .debug_aranges
                0x00000188       0x20 C:/GCC4/ARM/s002/lib/armv7aLaiv/libgcc.a(_udivsi3.o)
 .debug_aranges
                0x000001a8       0x20 C:/GCC4/ARM/s002/lib/armv7aLaiv/libgcc.a(_dvmd_tls.o)
 .debug_aranges
                0x000001c8       0x20 C:/GCC4/ARM/s002/lib/armv7aLaiv/libgcc.a(_aeabi_uldivmod.o)
 .debug_aranges
                0x000001e8       0x20 C:/GCC4/ARM/s002/lib/armv7aLaiv/libgcc.a(_udivmoddi4.o)
 .debug_aranges
                0x00000208       0xf0 C:/GCC4/ARM/s002/lib/armv7aLaiv/libgcc.a(unwind-arm.o)
 .debug_aranges
                0x000002f8       0x20 C:/GCC4/ARM/s002/lib/armv7aLaiv/libgcc.a(libunwind.o)
 .debug_aranges
                0x00000318       0x58 C:/GCC4/ARM/s002/lib/armv7aLaiv/libgcc.a(pr-support.o)
 .debug_aranges
                0x00000370       0x80 C:/GCC4/ARM/s002/lib/armv7aLaiv/libc.a(_m_init.o)
 .debug_aranges
                0x000003f0       0x28 C:/GCC4/ARM/s002/lib/armv7aLaiv/libc.a(abort.o)
 .debug_aranges
                0x00000418       0x28 C:/GCC4/ARM/s002/lib/armv7aLaiv/libc.a(errno.o)
 .debug_aranges
                0x00000440       0x20 C:/GCC4/ARM/s002/lib/armv7aLaiv/libc.a(atoi.o)
 .debug_aranges
                0x00000460       0x28 C:/GCC4/ARM/s002/lib/armv7aLaiv/libc.a(rand.o)
 .debug_aranges
                0x00000488       0x30 C:/GCC4/ARM/s002/lib/armv7aLaiv/libc.a(strtol.o)
 .debug_aranges
                0x000004b8       0x30 C:/GCC4/ARM/s002/lib/armv7aLaiv/libc.a(strtoul.o)
 .debug_aranges
                0x000004e8       0x38 C:/GCC4/ARM/s002/lib/armv7aLaiv/libc.a(atexit.o)
 .debug_aranges
                0x00000520       0x20 C:/GCC4/ARM/s002/lib/armv7aLaiv/libc.a(memcmp.o)
 .debug_aranges
                0x00000540       0x20 C:/GCC4/ARM/s002/lib/armv7aLaiv/libc.a(memcpy.o)
 .debug_aranges
                0x00000560       0x20 C:/GCC4/ARM/s002/lib/armv7aLaiv/libc.a(memmove.o)
 .debug_aranges
                0x00000580       0x20 C:/GCC4/ARM/s002/lib/armv7aLaiv/libc.a(memset.o)
 .debug_aranges
                0x000005a0       0x20 C:/GCC4/ARM/s002/lib/armv7aLaiv/libc.a(strcpy.o)
 .debug_aranges
                0x000005c0       0x20 C:/GCC4/ARM/s002/lib/armv7aLaiv/libc.a(strncpy.o)
 .debug_aranges
                0x000005e0       0x20 C:/GCC4/ARM/s002/lib/armv7aLaiv/libc.a(strcmp.o)
 .debug_aranges
                0x00000600       0x20 C:/GCC4/ARM/s002/lib/armv7aLaiv/libc.a(strncmp.o)
 .debug_aranges
                0x00000620       0x20 C:/GCC4/ARM/s002/lib/armv7aLaiv/libc.a(strlen.o)
 .debug_aranges
                0x00000640      0x108 C:/GCC4/ARM/s002/lib/armv7aLaiv/libc.a(isctype.o)
 .debug_aranges
                0x00000748       0x18 C:/GCC4/ARM/s002/lib/armv7aLaiv/libc.a(global_locale.o)
 .debug_aranges
                0x00000760       0x18 C:/GCC4/ARM/s002/lib/armv7aLaiv/libc.a(runetable.o)
 .debug_aranges
                0x00000778       0x28 C:/GCC4/ARM/s002/lib/armv7aLaiv/libc.a(thread-stub-init.o)
 .debug_aranges
                0x000007a0       0xb0 C:/GCC4/ARM/s002/lib/armv7aLaiv/libc.a(thread-stub.o)
 .debug_aranges
                0x00000850       0x20 C:/GCC4/ARM/s002/lib/armv7aLaiv/libc.a(ssp_init.o)
 .debug_aranges
                0x00000870       0x38 C:/GCC4/ARM/s002/lib/armv7aLaiv/libc.a(findfp.o)
 .debug_aranges
                0x000008a8       0x28 C:/GCC4/ARM/s002/lib/armv7aLaiv/libc.a(fprintf.o)
 .debug_aranges
                0x000008d0       0x38 C:/GCC4/ARM/s002/lib/armv7aLaiv/libc.a(stdio.o)
 .debug_aranges
                0x00000908       0x50 C:/GCC4/ARM/s002/lib/armv7aLaiv/libc.a(vfprintf.o)
 .debug_aranges
                0x00000958       0x38 C:/GCC4/ARM/s002/lib/armv7aLaiv/libc.a(vsnprintf.o)
 .debug_aranges
                0x00000990       0x20 C:/GCC4/ARM/s002/lib/armv7aLaiv/libc.a(wsetup.o)
 .debug_aranges
                0x000009b0       0x28 C:/GCC4/ARM/s002/lib/armv7aLaiv/libc.a(makebuf.o)
 .debug_aranges
                0x000009d8       0x30 C:/GCC4/ARM/s002/lib/armv7aLaiv/libc.a(close.o)
 .debug_aranges
                0x00000a08       0x20 C:/GCC4/ARM/s002/lib/armv7aLaiv/libc.a(fstat.o)
 .debug_aranges
                0x00000a28       0x20 C:/GCC4/ARM/s002/lib/armv7aLaiv/libc.a(lseek.o)
 .debug_aranges
                0x00000a48       0x20 C:/GCC4/ARM/s002/lib/armv7aLaiv/libc.a(open.o)
 .debug_aranges
                0x00000a68      0x1a8 C:/GCC4/ARM/s002/lib/armv7aLaiv/libc.a(osemu.o)
 .debug_aranges
                0x00000c10       0x30 C:/GCC4/ARM/s002/lib/armv7aLaiv/libc.a(perror.o)
 .debug_aranges
                0x00000c40       0x20 C:/GCC4/ARM/s002/lib/armv7aLaiv/libc.a(read.o)
 .debug_aranges
                0x00000c60       0x20 C:/GCC4/ARM/s002/lib/armv7aLaiv/libc.a(u2dname.o)
 .debug_aranges
                0x00000c80       0x28 C:/GCC4/ARM/s002/lib/armv7aLaiv/libc.a(utime.o)
 .debug_aranges
                0x00000ca8       0x20 C:/GCC4/ARM/s002/lib/armv7aLaiv/libc.a(write.o)
 .debug_aranges
                0x00000cc8       0x88 C:/GCC4/ARM/s002/lib/armv7aLaiv/libc.a(_env.o)
 .debug_aranges
                0x00000d50       0x30 C:/GCC4/ARM/s002/lib/armv7aLaiv/libc.a(exit.o)
 .debug_aranges
                0x00000d80       0x28 C:/GCC4/ARM/s002/lib/armv7aLaiv/libc.a(signal.o)
 .debug_aranges
                0x00000da8       0x38 C:/GCC4/ARM/s002/lib/armv7aLaiv/libc.a(localtime.o)
 .debug_aranges
                0x00000de0       0x20 C:/GCC4/ARM/s002/lib/armv7aLaiv/libc.a(lldiv.o)
 .debug_aranges
                0x00000e00       0x20 C:/GCC4/ARM/s002/lib/armv7aLaiv/libc.a(memchr.o)
 .debug_aranges
                0x00000e20       0x20 C:/GCC4/ARM/s002/lib/armv7aLaiv/libc.a(strnlen.o)
 .debug_aranges
                0x00000e40       0x20 C:/GCC4/ARM/s002/lib/armv7aLaiv/libc.a(strcspn.o)
 .debug_aranges
                0x00000e60       0x20 C:/GCC4/ARM/s002/lib/armv7aLaiv/libc.a(strncasecmp.o)
 .debug_aranges
                0x00000e80       0x20 C:/GCC4/ARM/s002/lib/armv7aLaiv/libc.a(strdup.o)
 .debug_aranges
                0x00000ea0       0x18 C:/GCC4/ARM/s002/lib/armv7aLaiv/libc.a(ctype_.o)
 .debug_aranges
                0x00000eb8       0x18 C:/GCC4/ARM/s002/lib/armv7aLaiv/libc.a(toupper_.o)
 .debug_aranges
                0x00000ed0       0x18 C:/GCC4/ARM/s002/lib/armv7aLaiv/libc.a(tolower_.o)
 .debug_aranges
                0x00000ee8       0x38 C:/GCC4/ARM/s002/lib/armv7aLaiv/libc.a(citrus_ctype.o)
 .debug_aranges
                0x00000f20       0xe8 C:/GCC4/ARM/s002/lib/armv7aLaiv/libc.a(citrus_none.o)
 .debug_aranges
                0x00001008      0x120 C:/GCC4/ARM/s002/lib/armv7aLaiv/libc.a(citrus_mskanji.o)
 .debug_aranges
                0x00001128      0x120 C:/GCC4/ARM/s002/lib/armv7aLaiv/libc.a(citrus_utf8.o)
 .debug_aranges
                0x00001248       0x28 C:/GCC4/ARM/s002/lib/armv7aLaiv/libc.a(localeconv.o)
 .debug_aranges
                0x00001270       0xb0 C:/GCC4/ARM/s002/lib/armv7aLaiv/libc.a(multibyte_amd1.o)
 .debug_aranges
                0x00001320       0x18 C:/GCC4/ARM/s002/lib/armv7aLaiv/libc.a(__isthreaded.o)
 .debug_aranges
                0x00001338       0x20 C:/GCC4/ARM/s002/lib/armv7aLaiv/libc.a(dtoa.o)
 .debug_aranges
                0x00001358       0x20 C:/GCC4/ARM/s002/lib/armv7aLaiv/libc.a(ldtoa.o)
 .debug_aranges
                0x00001378       0x28 C:/GCC4/ARM/s002/lib/armv7aLaiv/libc.a(hdtoa.o)
 .debug_aranges
                0x000013a0       0x38 C:/GCC4/ARM/s002/lib/armv7aLaiv/libc.a(dmisc.o)
 .debug_aranges
                0x000013d8       0x88 C:/GCC4/ARM/s002/lib/armv7aLaiv/libc.a(misc.o)
 .debug_aranges
                0x00001460      0x108 C:/GCC4/ARM/s002/lib/armv7aLaiv/libc.a(softfloat.o)
 .debug_aranges
                0x00001568       0x20 C:/GCC4/ARM/s002/lib/armv7aLaiv/libc.a(__aeabi_dcmpeq.o)
 .debug_aranges
                0x00001588       0x20 C:/GCC4/ARM/s002/lib/armv7aLaiv/libc.a(__aeabi_dcmpge.o)
 .debug_aranges
                0x000015a8       0x20 C:/GCC4/ARM/s002/lib/armv7aLaiv/libc.a(__aeabi_dcmpgt.o)
 .debug_aranges
                0x000015c8       0x20 C:/GCC4/ARM/s002/lib/armv7aLaiv/libc.a(__aeabi_dcmplt.o)
 .debug_aranges
                0x000015e8       0x60 C:/GCC4/ARM/s002/lib/armv7aLaiv/libc.a(rb.o)
 .debug_aranges
                0x00001648       0x28 C:/GCC4/ARM/s002/lib/armv7aLaiv/libc.a(fflush.o)
 .debug_aranges
                0x00001670       0x50 C:/GCC4/ARM/s002/lib/armv7aLaiv/libc.a(flockfile.o)
 .debug_aranges
                0x000016c0       0x20 C:/GCC4/ARM/s002/lib/armv7aLaiv/libc.a(fvwrite.o)
 .debug_aranges
                0x000016e0       0x20 C:/GCC4/ARM/s002/lib/armv7aLaiv/libc.a(fwalk.o)
 .debug_aranges
                0x00001700       0x20 C:/GCC4/ARM/s002/lib/armv7aLaiv/libc.a(creat.o)
 .debug_aranges
                0x00001720       0x20 C:/GCC4/ARM/s002/lib/armv7aLaiv/libc.a(fpclassifyd_ieee754.o)
 .debug_aranges
                0x00001740       0x20 C:/GCC4/ARM/s002/lib/armv7aLaiv/libc.a(strcasecmp.o)
 .debug_aranges
                0x00001760       0x18 C:/GCC4/ARM/s002/lib/armv7aLaiv/libc.a(gdtoa_locks.o)
 .debug_aranges
                0x00001778       0x20 C:/GCC4/ARM/s002/lib/armv7aLaiv/libgcc.a(_divsi3.o)
 .debug_aranges
                0x00001798       0x20 C:/GCC4/ARM/s002/lib/armv7aLaiv/libgcc.a(_arm_addsubdf3.o)
 .debug_aranges
                0x000017b8       0x20 C:/GCC4/ARM/s002/lib/armv7aLaiv/libgcc.a(_aeabi_ldivmod.o)

.debug_pubnames
                0x00000000     0xccab
 *(.debug_pubnames)
 .debug_pubnames
                0x00000000      0x890 C:/Users/admin/Documents/SOLID-IDE/Projects/lwip_server/Debug_tasan/exeClang_SOLID/lwip_server/lwip_server_all.o
 .debug_pubnames
                0x00000890       0x89 C:/ProgramData/KMC/SOLID/SDK/2.0/solid-os/core/lib/armv7aLaiv/CT_\libsolid_cs.a(solid_cs_main.o)
 .debug_pubnames
                0x00000919       0x2b C:/ProgramData/KMC/SOLID/SDK/2.0/solid-os/core/lib/armv7aLaiv/CT_\libsolid_cs.a(kmc_trace_mem_dummy.o)
 .debug_pubnames
                0x00000944       0x64 C:/ProgramData/KMC/SOLID/SDK/2.0/solid-os/core/lib/armv7aLaiv/CT_\libsolid_cs.a(solid_cs_event.o)
 .debug_pubnames
                0x000009a8       0x7f C:/ProgramData/KMC/SOLID/SDK/2.0/solid-os/core/lib/armv7aLaiv/CT_\libsolid_cs.a(solid_debugger.o)
 .debug_pubnames
                0x00000a27      0x656 C:/ProgramData/KMC/SOLID/SDK/2.0/solid-os/core/lib/armv7aLaiv/CT_\libsolid_cs.a(solid_dmac.o)
 .debug_pubnames
                0x0000107d      0x157 C:/ProgramData/KMC/SOLID/SDK/2.0/solid-os/core/lib/armv7aLaiv/CT_\libsolid_cs.a(solid_exception.o)
 .debug_pubnames
                0x000011d4      0x4b7 C:/ProgramData/KMC/SOLID/SDK/2.0/solid-os/core/lib/armv7aLaiv/CT_\libsolid_cs.a(solid_fs_base.o)
 .debug_pubnames
                0x0000168b       0xdb C:/ProgramData/KMC/SOLID/SDK/2.0/solid-os/core/lib/armv7aLaiv/CT_\libsolid_cs.a(solid_fs_mem.o)
 .debug_pubnames
                0x00001766      0x129 C:/ProgramData/KMC/SOLID/SDK/2.0/solid-os/core/lib/armv7aLaiv/CT_\libsolid_cs.a(solid_fs_vlink.o)
 .debug_pubnames
                0x0000188f      0xa5e C:/ProgramData/KMC/SOLID/SDK/2.0/solid-os/core/lib/armv7aLaiv/CT_\libsolid_cs.a(solid_intc.o)
 .debug_pubnames
                0x000022ed      0x301 C:/ProgramData/KMC/SOLID/SDK/2.0/solid-os/core/lib/armv7aLaiv/CT_\libsolid_cs.a(solid_iores.o)
 .debug_pubnames
                0x000025ee     0x107c C:/ProgramData/KMC/SOLID/SDK/2.0/solid-os/core/lib/armv7aLaiv/CT_\libsolid_cs.a(solid_loader.o)
 .debug_pubnames
                0x0000366a       0x41 C:/ProgramData/KMC/SOLID/SDK/2.0/solid-os/core/lib/armv7aLaiv/CT_\libsolid_cs.a(solid_loader_fixed.o)
 .debug_pubnames
                0x000036ab      0x139 C:/ProgramData/KMC/SOLID/SDK/2.0/solid-os/core/lib/armv7aLaiv/CT_\libsolid_cs.a(solid_log.o)
 .debug_pubnames
                0x000037e4      0x12e C:/ProgramData/KMC/SOLID/SDK/2.0/solid-os/core/lib/armv7aLaiv/CT_\libsolid_cs.a(solid_malloc.o)
 .debug_pubnames
                0x00003912      0xbc9 C:/ProgramData/KMC/SOLID/SDK/2.0/solid-os/core/lib/armv7aLaiv/CT_\libsolid_cs.a(solid_mem.o)
 .debug_pubnames
                0x000044db      0x2b1 C:/ProgramData/KMC/SOLID/SDK/2.0/solid-os/core/lib/armv7aLaiv/CT_\libsolid_cs.a(solid_mem_cache.o)
 .debug_pubnames
                0x0000478c       0xf2 C:/ProgramData/KMC/SOLID/SDK/2.0/solid-os/core/lib/armv7aLaiv/CT_\libsolid_cs.a(solid_mutex.o)
 .debug_pubnames
                0x0000487e       0x52 C:/ProgramData/KMC/SOLID/SDK/2.0/solid-os/core/lib/armv7aLaiv/CT_\libsolid_cs.a(solid_rtc.o)
 .debug_pubnames
                0x000048d0      0x5aa C:/ProgramData/KMC/SOLID/SDK/2.0/solid-os/core/lib/armv7aLaiv/CT_\libsolid_cs.a(solid_timer.o)
 .debug_pubnames
                0x00004e7a      0x136 C:/ProgramData/KMC/SOLID/SDK/2.0/solid-os/core/lib/armv7aLaiv/CT_\libsolid_cs.a(solid_vector.o)
 .debug_pubnames
                0x00004fb0      0x121 C:/ProgramData/KMC/SOLID/SDK/2.0/solid-os/core/lib/armv7aLaiv/CT_\libsolid_cs.a(solid_vlink.o)
 .debug_pubnames
                0x000050d1      0x7b1 C:/ProgramData/KMC/SOLID/SDK/2.0/solid-os/core/lib/armv7aLaiv/CT_\libsolid_cs.a(tasan.o)
 .debug_pubnames
                0x00005882       0x6d C:/ProgramData/KMC/SOLID/SDK/2.0/solid-os/core/lib/armv7aLaiv/CT_\libsolid_cs.a(tasan_interceptors.o)
 .debug_pubnames
                0x000058ef      0x24b C:/ProgramData/KMC/SOLID/SDK/2.0/solid-os/core/lib/armv7aLaiv/CT_\libsolid_cs.a(solid_mem_mmu.o)
 .debug_pubnames
                0x00005b3a      0x198 C:/ProgramData/KMC/SOLID/SDK/2.0/solid-os/core/lib/armv7aLaiv/CT_\libsolid_cs.a(kmc_evttracker_core.o)
 .debug_pubnames
                0x00005cd2      0x3f0 C:/ProgramData/KMC/SOLID/SDK/2.0/solid-os/core/lib/armv7aLaiv/CT_\libsolid_cs.a(dlmalloc.o)
 .debug_pubnames
                0x000060c2       0x49 C:/ProgramData/KMC/SOLID/SDK/2.0/solid-os/core/lib/armv7aLaiv/CT_\libsolid_cs.a(solid_asan.o)
 .debug_pubnames
                0x0000610b       0x21 C:/ProgramData/KMC/SOLID/SDK/2.0/solid-os/core/lib/armv7aLaiv/CT_\libsolid_cs.a(solid_cs_args.o)
 .debug_pubnames
                0x0000612c      0x346 C:/ProgramData/KMC/SOLID/SDK/2.0/solid-os/net/lwIP/lib/armv7aLaiv/CT_\libnet.a(sys_arch.o)
 .debug_pubnames
                0x00006472      0x297 C:/ProgramData/KMC/SOLID/SDK/2.0/solid-os/net/lwIP/lib/armv7aLaiv/CT_\libnet.a(sockets.o)
 .debug_pubnames
                0x00006709      0x174 C:/ProgramData/KMC/SOLID/SDK/2.0/solid-os/net/lwIP/lib/armv7aLaiv/CT_\libnet.a(tcpip.o)
 .debug_pubnames
                0x0000687d       0x72 C:/ProgramData/KMC/SOLID/SDK/2.0/solid-os/net/lwIP/lib/armv7aLaiv/CT_\libnet.a(def.o)
 .debug_pubnames
                0x000068ef       0x20 C:/ProgramData/KMC/SOLID/SDK/2.0/solid-os/net/lwIP/lib/armv7aLaiv/CT_\libnet.a(init.o)
 .debug_pubnames
                0x0000690f       0x6f C:/ProgramData/KMC/SOLID/SDK/2.0/solid-os/net/lwIP/lib/armv7aLaiv/CT_\libnet.a(ip4.o)
 .debug_pubnames
                0x0000697e       0xbd C:/ProgramData/KMC/SOLID/SDK/2.0/solid-os/net/lwIP/lib/armv7aLaiv/CT_\libnet.a(ip4_addr.o)
 .debug_pubnames
                0x00006a3b      0x182 C:/ProgramData/KMC/SOLID/SDK/2.0/solid-os/net/lwIP/lib/armv7aLaiv/CT_\libnet.a(ip4_frag.o)
 .debug_pubnames
                0x00006bbd       0x9f C:/ProgramData/KMC/SOLID/SDK/2.0/solid-os/net/lwIP/lib/armv7aLaiv/CT_\libnet.a(mem.o)
 .debug_pubnames
                0x00006c5c      0x606 C:/ProgramData/KMC/SOLID/SDK/2.0/solid-os/net/lwIP/lib/armv7aLaiv/CT_\libnet.a(memp.o)
 .debug_pubnames
                0x00007262      0x17b C:/ProgramData/KMC/SOLID/SDK/2.0/solid-os/net/lwIP/lib/armv7aLaiv/CT_\libnet.a(netif.o)
 .debug_pubnames
                0x000073dd      0x22e C:/ProgramData/KMC/SOLID/SDK/2.0/solid-os/net/lwIP/lib/armv7aLaiv/CT_\libnet.a(pbuf.o)
 .debug_pubnames
                0x0000760b       0x30 C:/ProgramData/KMC/SOLID/SDK/2.0/solid-os/net/lwIP/lib/armv7aLaiv/CT_\libnet.a(stats.o)
 .debug_pubnames
                0x0000763b      0x46e C:/ProgramData/KMC/SOLID/SDK/2.0/solid-os/net/lwIP/lib/armv7aLaiv/CT_\libnet.a(tcp.o)
 .debug_pubnames
                0x00007aa9      0x18b C:/ProgramData/KMC/SOLID/SDK/2.0/solid-os/net/lwIP/lib/armv7aLaiv/CT_\libnet.a(tcp_in.o)
 .debug_pubnames
                0x00007c34      0x16f C:/ProgramData/KMC/SOLID/SDK/2.0/solid-os/net/lwIP/lib/armv7aLaiv/CT_\libnet.a(tcp_out.o)
 .debug_pubnames
                0x00007da3      0x145 C:/ProgramData/KMC/SOLID/SDK/2.0/solid-os/net/lwIP/lib/armv7aLaiv/CT_\libnet.a(timeouts.o)
 .debug_pubnames
                0x00007ee8      0x140 C:/ProgramData/KMC/SOLID/SDK/2.0/solid-os/net/lwIP/lib/armv7aLaiv/CT_\libnet.a(udp.o)
 .debug_pubnames
                0x00008028       0x56 C:/ProgramData/KMC/SOLID/SDK/2.0/solid-os/net/lwIP/lib/armv7aLaiv/CT_\libnet.a(ethernet.o)
 .debug_pubnames
                0x0000807e      0x247 C:/ProgramData/KMC/SOLID/SDK/2.0/solid-os/net/lwIP/lib/armv7aLaiv/CT_\libnet.a(solid_net_if.o)
 .debug_pubnames
                0x000082c5       0x3b C:/ProgramData/KMC/SOLID/SDK/2.0/solid-os/net/lwIP/lib/armv7aLaiv/CT_\libnet.a(solid_net_registerapi.o)
 .debug_pubnames
                0x00008300      0x207 C:/ProgramData/KMC/SOLID/SDK/2.0/solid-os/net/lwIP/lib/armv7aLaiv/CT_\libnet.a(impl_net_stack.o)
 .debug_pubnames
                0x00008507       0x8f C:/ProgramData/KMC/SOLID/SDK/2.0/solid-os/net/lwIP/lib/armv7aLaiv/CT_\libnet.a(impl_net_stack_errno.o)
 .debug_pubnames
                0x00008596       0x4e C:/ProgramData/KMC/SOLID/SDK/2.0/solid-os/net/lwIP/lib/armv7aLaiv/CT_\libnet.a(ethernetif.o)
 .debug_pubnames
                0x000085e4      0x1bd C:/ProgramData/KMC/SOLID/SDK/2.0/solid-os/net/lwIP/lib/armv7aLaiv/CT_\libnet.a(api_lib.o)
 .debug_pubnames
                0x000087a1      0x291 C:/ProgramData/KMC/SOLID/SDK/2.0/solid-os/net/lwIP/lib/armv7aLaiv/CT_\libnet.a(api_msg.o)
 .debug_pubnames
                0x00008a32       0x59 C:/ProgramData/KMC/SOLID/SDK/2.0/solid-os/net/lwIP/lib/armv7aLaiv/CT_\libnet.a(err.o)
 .debug_pubnames
                0x00008a8b       0xa5 C:/ProgramData/KMC/SOLID/SDK/2.0/solid-os/net/lwIP/lib/armv7aLaiv/CT_\libnet.a(netbuf.o)
 .debug_pubnames
                0x00008b30       0xcb C:/ProgramData/KMC/SOLID/SDK/2.0/solid-os/net/lwIP/lib/armv7aLaiv/CT_\libnet.a(netdb.o)
 .debug_pubnames
                0x00008bfb      0x1f0 C:/ProgramData/KMC/SOLID/SDK/2.0/solid-os/net/lwIP/lib/armv7aLaiv/CT_\libnet.a(dns.o)
 .debug_pubnames
                0x00008deb       0xf6 C:/ProgramData/KMC/SOLID/SDK/2.0/solid-os/net/lwIP/lib/armv7aLaiv/CT_\libnet.a(inet_chksum.o)
 .debug_pubnames
                0x00008ee1       0x1e C:/ProgramData/KMC/SOLID/SDK/2.0/solid-os/net/lwIP/lib/armv7aLaiv/CT_\libnet.a(ip.o)
 .debug_pubnames
                0x00008eff      0x350 C:/ProgramData/KMC/SOLID/SDK/2.0/solid-os/net/lwIP/lib/armv7aLaiv/CT_\libnet.a(dhcp.o)
 .debug_pubnames
                0x0000924f      0x199 C:/ProgramData/KMC/SOLID/SDK/2.0/solid-os/net/lwIP/lib/armv7aLaiv/CT_\libnet.a(etharp.o)
 .debug_pubnames
                0x000093e8       0x65 C:/ProgramData/KMC/SOLID/SDK/2.0/solid-os/net/lwIP/lib/armv7aLaiv/CT_\libnet.a(icmp.o)
 .debug_pubnames
                0x0000944d      0x24a C:/ProgramData/KMC/SOLID/SDK/2.0/solid-os/rtos/toppers_asp3/lib/armv7aLaiv/CT__\libkernel.a(dataqueue.o)
 .debug_pubnames
                0x00009697      0x196 C:/ProgramData/KMC/SOLID/SDK/2.0/solid-os/rtos/toppers_asp3/lib/armv7aLaiv/CT__\libkernel.a(interrupt.o)
 .debug_pubnames
                0x0000982d       0x36 C:/ProgramData/KMC/SOLID/SDK/2.0/solid-os/rtos/toppers_asp3/lib/armv7aLaiv/CT__\libkernel.a(vasyslog.o)
 .debug_pubnames
                0x00009863      0x162 C:/ProgramData/KMC/SOLID/SDK/2.0/solid-os/rtos/toppers_asp3/lib/armv7aLaiv/CT__\libkernel.a(semaphore.o)
 .debug_pubnames
                0x000099c5      0x139 C:/ProgramData/KMC/SOLID/SDK/2.0/solid-os/rtos/toppers_asp3/lib/armv7aLaiv/CT__\libkernel.a(startup.o)
 .debug_pubnames
                0x00009afe      0x123 C:/ProgramData/KMC/SOLID/SDK/2.0/solid-os/rtos/toppers_asp3/lib/armv7aLaiv/CT__\libkernel.a(sys_manage.o)
 .debug_pubnames
                0x00009c21      0x32a C:/ProgramData/KMC/SOLID/SDK/2.0/solid-os/rtos/toppers_asp3/lib/armv7aLaiv/CT__\libkernel.a(task.o)
 .debug_pubnames
                0x00009f4b       0x8e C:/ProgramData/KMC/SOLID/SDK/2.0/solid-os/rtos/toppers_asp3/lib/armv7aLaiv/CT__\libkernel.a(taskhook.o)
 .debug_pubnames
                0x00009fd9      0x106 C:/ProgramData/KMC/SOLID/SDK/2.0/solid-os/rtos/toppers_asp3/lib/armv7aLaiv/CT__\libkernel.a(task_manage.o)
 .debug_pubnames
                0x0000a0df      0x307 C:/ProgramData/KMC/SOLID/SDK/2.0/solid-os/rtos/toppers_asp3/lib/armv7aLaiv/CT__\libkernel.a(time_event.o)
 .debug_pubnames
                0x0000a3e6      0x233 C:/ProgramData/KMC/SOLID/SDK/2.0/solid-os/rtos/toppers_asp3/lib/armv7aLaiv/CT__\libkernel.a(wait.o)
 .debug_pubnames
                0x0000a619       0x3d C:/ProgramData/KMC/SOLID/SDK/2.0/solid-os/rtos/toppers_asp3/lib/armv7aLaiv/CT__\libkernel.a(solid_rtos_registerapi.o)
 .debug_pubnames
                0x0000a656       0x40 C:/ProgramData/KMC/SOLID/SDK/2.0/solid-os/rtos/toppers_asp3/lib/armv7aLaiv/CT__\libkernel.a(target_fput_log.o)
 .debug_pubnames
                0x0000a696      0x210 C:/ProgramData/KMC/SOLID/SDK/2.0/solid-os/rtos/toppers_asp3/lib/armv7aLaiv/CT__\libkernel.a(target_intc_impl.o)
 .debug_pubnames
                0x0000a8a6      0x10e C:/ProgramData/KMC/SOLID/SDK/2.0/solid-os/rtos/toppers_asp3/lib/armv7aLaiv/CT__\libkernel.a(target_timer_impl.o)
 .debug_pubnames
                0x0000a9b4       0xd8 C:/ProgramData/KMC/SOLID/SDK/2.0/solid-os/rtos/toppers_asp3/lib/armv7aLaiv/CT__\libkernel.a(kmc_evttracker_rtos.o)
 .debug_pubnames
                0x0000aa8c      0x195 C:/ProgramData/KMC/SOLID/SDK/2.0/solid-os/rtos/toppers_asp3/lib/armv7aLaiv/CT__\libkernel.a(rtos_prof.o)
 .debug_pubnames
                0x0000ac21       0xb4 C:/ProgramData/KMC/SOLID/SDK/2.0/solid-os/rtos/toppers_asp3/lib/armv7aLaiv/CT__\libkernel.a(kernel_cfg_intl.o)
 .debug_pubnames
                0x0000acd5       0xf9 C:/ProgramData/KMC/SOLID/SDK/2.0/solid-os/rtos/toppers_asp3/lib/armv7aLaiv/CT__\libkernel.a(alarm.o)
 .debug_pubnames
                0x0000adce      0x121 C:/ProgramData/KMC/SOLID/SDK/2.0/solid-os/rtos/toppers_asp3/lib/armv7aLaiv/CT__\libkernel.a(core_kernel_impl.o)
 .debug_pubnames
                0x0000aeef       0xe1 C:/ProgramData/KMC/SOLID/SDK/2.0/solid-os/rtos/toppers_asp3/lib/armv7aLaiv/CT__\libkernel.a(cyclic.o)
 .debug_pubnames
                0x0000afd0      0x184 C:/ProgramData/KMC/SOLID/SDK/2.0/solid-os/rtos/toppers_asp3/lib/armv7aLaiv/CT__\libkernel.a(eventflag.o)
 .debug_pubnames
                0x0000b154       0xab C:/ProgramData/KMC/SOLID/SDK/2.0/solid-os/rtos/toppers_asp3/lib/armv7aLaiv/CT__\libkernel.a(exception.o)
 .debug_pubnames
                0x0000b1ff      0x17b C:/ProgramData/KMC/SOLID/SDK/2.0/solid-os/rtos/toppers_asp3/lib/armv7aLaiv/CT__\libkernel.a(mempfix.o)
 .debug_pubnames
                0x0000b37a      0x171 C:/ProgramData/KMC/SOLID/SDK/2.0/solid-os/rtos/toppers_asp3/lib/armv7aLaiv/CT__\libkernel.a(tSysLog.o)
 .debug_pubnames
                0x0000b4eb      0x279 C:/ProgramData/KMC/SOLID/SDK/2.0/solid-os/rtos/toppers_asp3/lib/armv7aLaiv/CT__\libkernel.a(mutex.o)
 .debug_pubnames
                0x0000b764      0x20d C:/ProgramData/KMC/SOLID/SDK/2.0/solid-os/rtos/toppers_asp3/lib/armv7aLaiv/CT__\libkernel.a(pridataq.o)
 .debug_pubnames
                0x0000b971       0x93 C:/ProgramData/KMC/SOLID/SDK/2.0/solid-os/rtos/toppers_asp3/lib/armv7aLaiv/CT__\libkernel.a(task_refer.o)
 .debug_pubnames
                0x0000ba04      0x176 C:/ProgramData/KMC/SOLID/SDK/2.0/solid-os/rtos/toppers_asp3/lib/armv7aLaiv/CT__\libkernel.a(task_sync.o)
 .debug_pubnames
                0x0000bb7a      0x116 C:/ProgramData/KMC/SOLID/SDK/2.0/solid-os/rtos/toppers_asp3/lib/armv7aLaiv/CT__\libkernel.a(task_term.o)
 .debug_pubnames
                0x0000bc90      0x110 C:/ProgramData/KMC/SOLID/SDK/2.0/solid-os/rtos/toppers_asp3/lib/armv7aLaiv/CT__\libkernel.a(time_manage.o)
 .debug_pubnames
                0x0000bda0       0x75 C:/ProgramData/KMC/SOLID/SDK/2.0/solid-os/rtos/toppers_asp3/lib/armv7aLaiv/CT__\libkernel.a(log_output.o)
 .debug_pubnames
                0x0000be15       0x48 C:/Users/admin/Documents/SOLID-IDE/Projects/lwip_server/Debug_tasan/exeClang_SOLID/\libbsp.a(impl_cs_event.o)
 .debug_pubnames
                0x0000be5d      0x112 C:/Users/admin/Documents/SOLID-IDE/Projects/lwip_server/Debug_tasan/exeClang_SOLID/\libbsp.a(impl_dmac.o)
 .debug_pubnames
                0x0000bf6f       0x36 C:/Users/admin/Documents/SOLID-IDE/Projects/lwip_server/Debug_tasan/exeClang_SOLID/\libbsp.a(impl_iores.o)
 .debug_pubnames
                0x0000bfa5       0x48 C:/Users/admin/Documents/SOLID-IDE/Projects/lwip_server/Debug_tasan/exeClang_SOLID/\libbsp.a(impl_log.o)
 .debug_pubnames
                0x0000bfed      0x48c C:/Users/admin/Documents/SOLID-IDE/Projects/lwip_server/Debug_tasan/exeClang_SOLID/\libbsp.a(impl_net_dev_ether.o)
 .debug_pubnames
                0x0000c479       0xc0 C:/Users/admin/Documents/SOLID-IDE/Projects/lwip_server/Debug_tasan/exeClang_SOLID/\libbsp.a(impl_net_dev_get_macaddr.o)
 .debug_pubnames
                0x0000c539       0x45 C:/Users/admin/Documents/SOLID-IDE/Projects/lwip_server/Debug_tasan/exeClang_SOLID/\libbsp.a(impl_net_dev_getconfig.o)
 .debug_pubnames
                0x0000c57e       0x4f C:/Users/admin/Documents/SOLID-IDE/Projects/lwip_server/Debug_tasan/exeClang_SOLID/\libbsp.a(impl_rtc.o)
 .debug_pubnames
                0x0000c5cd      0x137 C:/Users/admin/Documents/SOLID-IDE/Projects/lwip_server/Debug_tasan/exeClang_SOLID/\libbsp.a(impl_timer.o)
 .debug_pubnames
                0x0000c704      0x142 C:/Users/admin/Documents/SOLID-IDE/Projects/lwip_server/Debug_tasan/exeClang_SOLID/\libbsp.a(rtc.o)
 .debug_pubnames
                0x0000c846       0x27 C:/Users/admin/Documents/SOLID-IDE/Projects/lwip_server/Debug_tasan/exeClang_SOLID/\libbsp.a(rtc_userdef.o)
 .debug_pubnames
                0x0000c86d      0x3a7 C:/Users/admin/Documents/SOLID-IDE/Projects/lwip_server/Debug_tasan/exeClang_SOLID/\libbsp.a(bsp_globals.o)
 .debug_pubnames
                0x0000cc14       0x97 C:/Users/admin/Documents/SOLID-IDE/Projects/lwip_server/Debug_tasan/exeClang_SOLID/\libbsp.a(rza_io_regrw.o)

.debug_info     0x00000000    0x6314d
 *(.debug_info)
 .debug_info    0x00000000     0x182f C:/Users/admin/Documents/SOLID-IDE/Projects/lwip_server/Debug_tasan/exeClang_SOLID/lwip_server/lwip_server_all.o
 .debug_info    0x0000182f      0x277 C:/ProgramData/KMC/SOLID/SDK/2.0/solid-os/core/lib/armv7aLaiv/CT_\libsolid_cs.a(solid_cs_asm.o)
 .debug_info    0x00001aa6      0x162 C:/ProgramData/KMC/SOLID/SDK/2.0/solid-os/core/lib/armv7aLaiv/CT_\libsolid_cs.a(solid_cs_main.o)
 .debug_info    0x00001c08       0x3b C:/ProgramData/KMC/SOLID/SDK/2.0/solid-os/core/lib/armv7aLaiv/CT_\libsolid_cs.a(kmc_trace_mem_dummy.o)
 .debug_info    0x00001c43      0x2ae C:/ProgramData/KMC/SOLID/SDK/2.0/solid-os/core/lib/armv7aLaiv/CT_\libsolid_cs.a(solid_cs_event.o)
 .debug_info    0x00001ef1      0x164 C:/ProgramData/KMC/SOLID/SDK/2.0/solid-os/core/lib/armv7aLaiv/CT_\libsolid_cs.a(solid_debugger.o)
 .debug_info    0x00002055     0x115a C:/ProgramData/KMC/SOLID/SDK/2.0/solid-os/core/lib/armv7aLaiv/CT_\libsolid_cs.a(solid_dmac.o)
 .debug_info    0x000031af      0x275 C:/ProgramData/KMC/SOLID/SDK/2.0/solid-os/core/lib/armv7aLaiv/CT_\libsolid_cs.a(solid_exception.o)
 .debug_info    0x00003424     0x171c C:/ProgramData/KMC/SOLID/SDK/2.0/solid-os/core/lib/armv7aLaiv/CT_\libsolid_cs.a(solid_fs_base.o)
 .debug_info    0x00004b40      0xd53 C:/ProgramData/KMC/SOLID/SDK/2.0/solid-os/core/lib/armv7aLaiv/CT_\libsolid_cs.a(solid_fs_mem.o)
 .debug_info    0x00005893      0xe44 C:/ProgramData/KMC/SOLID/SDK/2.0/solid-os/core/lib/armv7aLaiv/CT_\libsolid_cs.a(solid_fs_vlink.o)
 .debug_info    0x000066d7     0x1896 C:/ProgramData/KMC/SOLID/SDK/2.0/solid-os/core/lib/armv7aLaiv/CT_\libsolid_cs.a(solid_intc.o)
 .debug_info    0x00007f6d      0xab6 C:/ProgramData/KMC/SOLID/SDK/2.0/solid-os/core/lib/armv7aLaiv/CT_\libsolid_cs.a(solid_iores.o)
 .debug_info    0x00008a23     0x319d C:/ProgramData/KMC/SOLID/SDK/2.0/solid-os/core/lib/armv7aLaiv/CT_\libsolid_cs.a(solid_loader.o)
 .debug_info    0x0000bbc0       0xbc C:/ProgramData/KMC/SOLID/SDK/2.0/solid-os/core/lib/armv7aLaiv/CT_\libsolid_cs.a(solid_loader_fixed.o)
 .debug_info    0x0000bc7c      0x342 C:/ProgramData/KMC/SOLID/SDK/2.0/solid-os/core/lib/armv7aLaiv/CT_\libsolid_cs.a(solid_log.o)
 .debug_info    0x0000bfbe      0x4e8 C:/ProgramData/KMC/SOLID/SDK/2.0/solid-os/core/lib/armv7aLaiv/CT_\libsolid_cs.a(solid_malloc.o)
 .debug_info    0x0000c4a6     0x295c C:/ProgramData/KMC/SOLID/SDK/2.0/solid-os/core/lib/armv7aLaiv/CT_\libsolid_cs.a(solid_mem.o)
 .debug_info    0x0000ee02      0xd0b C:/ProgramData/KMC/SOLID/SDK/2.0/solid-os/core/lib/armv7aLaiv/CT_\libsolid_cs.a(solid_mem_cache.o)
 .debug_info    0x0000fb0d      0x82c C:/ProgramData/KMC/SOLID/SDK/2.0/solid-os/core/lib/armv7aLaiv/CT_\libsolid_cs.a(solid_mutex.o)
 .debug_info    0x00010339      0x127 C:/ProgramData/KMC/SOLID/SDK/2.0/solid-os/core/lib/armv7aLaiv/CT_\libsolid_cs.a(solid_rtc.o)
 .debug_info    0x00010460      0xd3a C:/ProgramData/KMC/SOLID/SDK/2.0/solid-os/core/lib/armv7aLaiv/CT_\libsolid_cs.a(solid_timer.o)
 .debug_info    0x0001119a      0x3a3 C:/ProgramData/KMC/SOLID/SDK/2.0/solid-os/core/lib/armv7aLaiv/CT_\libsolid_cs.a(solid_vector.o)
 .debug_info    0x0001153d      0x1cb C:/ProgramData/KMC/SOLID/SDK/2.0/solid-os/core/lib/armv7aLaiv/CT_\libsolid_cs.a(solid_vlink.o)
 .debug_info    0x00011708     0x195e C:/ProgramData/KMC/SOLID/SDK/2.0/solid-os/core/lib/armv7aLaiv/CT_\libsolid_cs.a(tasan.o)
 .debug_info    0x00013066      0x1b8 C:/ProgramData/KMC/SOLID/SDK/2.0/solid-os/core/lib/armv7aLaiv/CT_\libsolid_cs.a(tasan_interceptors.o)
 .debug_info    0x0001321e     0x141a C:/ProgramData/KMC/SOLID/SDK/2.0/solid-os/core/lib/armv7aLaiv/CT_\libsolid_cs.a(solid_mem_mmu.o)
 .debug_info    0x00014638      0x437 C:/ProgramData/KMC/SOLID/SDK/2.0/solid-os/core/lib/armv7aLaiv/CT_\libsolid_cs.a(kmc_evttracker_core.o)
 .debug_info    0x00014a6f     0x339f C:/ProgramData/KMC/SOLID/SDK/2.0/solid-os/core/lib/armv7aLaiv/CT_\libsolid_cs.a(dlmalloc.o)
 .debug_info    0x00017e0e      0x132 C:/ProgramData/KMC/SOLID/SDK/2.0/solid-os/core/lib/armv7aLaiv/CT_\libsolid_cs.a(solid_asan.o)
 .debug_info    0x00017f40       0xc7 C:/ProgramData/KMC/SOLID/SDK/2.0/solid-os/core/lib/armv7aLaiv/CT_\libsolid_cs.a(solid_cs_args.o)
 .debug_info    0x00018007      0xb73 C:/ProgramData/KMC/SOLID/SDK/2.0/solid-os/net/lwIP/lib/armv7aLaiv/CT_\libnet.a(sys_arch.o)
 .debug_info    0x00018b7a     0x223d C:/ProgramData/KMC/SOLID/SDK/2.0/solid-os/net/lwIP/lib/armv7aLaiv/CT_\libnet.a(sockets.o)
 .debug_info    0x0001adb7      0x84c C:/ProgramData/KMC/SOLID/SDK/2.0/solid-os/net/lwIP/lib/armv7aLaiv/CT_\libnet.a(tcpip.o)
 .debug_info    0x0001b603      0x2d8 C:/ProgramData/KMC/SOLID/SDK/2.0/solid-os/net/lwIP/lib/armv7aLaiv/CT_\libnet.a(def.o)
 .debug_info    0x0001b8db       0x53 C:/ProgramData/KMC/SOLID/SDK/2.0/solid-os/net/lwIP/lib/armv7aLaiv/CT_\libnet.a(init.o)
 .debug_info    0x0001b92e      0x754 C:/ProgramData/KMC/SOLID/SDK/2.0/solid-os/net/lwIP/lib/armv7aLaiv/CT_\libnet.a(ip4.o)
 .debug_info    0x0001c082      0x57b C:/ProgramData/KMC/SOLID/SDK/2.0/solid-os/net/lwIP/lib/armv7aLaiv/CT_\libnet.a(ip4_addr.o)
 .debug_info    0x0001c5fd      0xa8e C:/ProgramData/KMC/SOLID/SDK/2.0/solid-os/net/lwIP/lib/armv7aLaiv/CT_\libnet.a(ip4_frag.o)
 .debug_info    0x0001d08b      0x3ea C:/ProgramData/KMC/SOLID/SDK/2.0/solid-os/net/lwIP/lib/armv7aLaiv/CT_\libnet.a(mem.o)
 .debug_info    0x0001d475      0x840 C:/ProgramData/KMC/SOLID/SDK/2.0/solid-os/net/lwIP/lib/armv7aLaiv/CT_\libnet.a(memp.o)
 .debug_info    0x0001dcb5      0x6fe C:/ProgramData/KMC/SOLID/SDK/2.0/solid-os/net/lwIP/lib/armv7aLaiv/CT_\libnet.a(netif.o)
 .debug_info    0x0001e3b3     0x1379 C:/ProgramData/KMC/SOLID/SDK/2.0/solid-os/net/lwIP/lib/armv7aLaiv/CT_\libnet.a(pbuf.o)
 .debug_info    0x0001f72c      0x269 C:/ProgramData/KMC/SOLID/SDK/2.0/solid-os/net/lwIP/lib/armv7aLaiv/CT_\libnet.a(stats.o)
 .debug_info    0x0001f995     0x17d3 C:/ProgramData/KMC/SOLID/SDK/2.0/solid-os/net/lwIP/lib/armv7aLaiv/CT_\libnet.a(tcp.o)
 .debug_info    0x00021168      0xe2d C:/ProgramData/KMC/SOLID/SDK/2.0/solid-os/net/lwIP/lib/armv7aLaiv/CT_\libnet.a(tcp_in.o)
 .debug_info    0x00021f95     0x12dd C:/ProgramData/KMC/SOLID/SDK/2.0/solid-os/net/lwIP/lib/armv7aLaiv/CT_\libnet.a(tcp_out.o)
 .debug_info    0x00023272      0x422 C:/ProgramData/KMC/SOLID/SDK/2.0/solid-os/net/lwIP/lib/armv7aLaiv/CT_\libnet.a(timeouts.o)
 .debug_info    0x00023694      0xa83 C:/ProgramData/KMC/SOLID/SDK/2.0/solid-os/net/lwIP/lib/armv7aLaiv/CT_\libnet.a(udp.o)
 .debug_info    0x00024117      0x4ca C:/ProgramData/KMC/SOLID/SDK/2.0/solid-os/net/lwIP/lib/armv7aLaiv/CT_\libnet.a(ethernet.o)
 .debug_info    0x000245e1      0x6b4 C:/ProgramData/KMC/SOLID/SDK/2.0/solid-os/net/lwIP/lib/armv7aLaiv/CT_\libnet.a(solid_net_if.o)
 .debug_info    0x00024c95       0xb9 C:/ProgramData/KMC/SOLID/SDK/2.0/solid-os/net/lwIP/lib/armv7aLaiv/CT_\libnet.a(solid_net_registerapi.o)
 .debug_info    0x00024d4e      0xac8 C:/ProgramData/KMC/SOLID/SDK/2.0/solid-os/net/lwIP/lib/armv7aLaiv/CT_\libnet.a(impl_net_stack.o)
 .debug_info    0x00025816      0x106 C:/ProgramData/KMC/SOLID/SDK/2.0/solid-os/net/lwIP/lib/armv7aLaiv/CT_\libnet.a(impl_net_stack_errno.o)
 .debug_info    0x0002591c      0x4be C:/ProgramData/KMC/SOLID/SDK/2.0/solid-os/net/lwIP/lib/armv7aLaiv/CT_\libnet.a(ethernetif.o)
 .debug_info    0x00025dda     0x12eb C:/ProgramData/KMC/SOLID/SDK/2.0/solid-os/net/lwIP/lib/armv7aLaiv/CT_\libnet.a(api_lib.o)
 .debug_info    0x000270c5     0x1699 C:/ProgramData/KMC/SOLID/SDK/2.0/solid-os/net/lwIP/lib/armv7aLaiv/CT_\libnet.a(api_msg.o)
 .debug_info    0x0002875e       0xfa C:/ProgramData/KMC/SOLID/SDK/2.0/solid-os/net/lwIP/lib/armv7aLaiv/CT_\libnet.a(err.o)
 .debug_info    0x00028858      0x44d C:/ProgramData/KMC/SOLID/SDK/2.0/solid-os/net/lwIP/lib/armv7aLaiv/CT_\libnet.a(netbuf.o)
 .debug_info    0x00028ca5      0x6b0 C:/ProgramData/KMC/SOLID/SDK/2.0/solid-os/net/lwIP/lib/armv7aLaiv/CT_\libnet.a(netdb.o)
 .debug_info    0x00029355      0xc47 C:/ProgramData/KMC/SOLID/SDK/2.0/solid-os/net/lwIP/lib/armv7aLaiv/CT_\libnet.a(dns.o)
 .debug_info    0x00029f9c      0x555 C:/ProgramData/KMC/SOLID/SDK/2.0/solid-os/net/lwIP/lib/armv7aLaiv/CT_\libnet.a(inet_chksum.o)
 .debug_info    0x0002a4f1      0x3d6 C:/ProgramData/KMC/SOLID/SDK/2.0/solid-os/net/lwIP/lib/armv7aLaiv/CT_\libnet.a(ip.o)
 .debug_info    0x0002a8c7     0x12b2 C:/ProgramData/KMC/SOLID/SDK/2.0/solid-os/net/lwIP/lib/armv7aLaiv/CT_\libnet.a(dhcp.o)
 .debug_info    0x0002bb79      0xc20 C:/ProgramData/KMC/SOLID/SDK/2.0/solid-os/net/lwIP/lib/armv7aLaiv/CT_\libnet.a(etharp.o)
 .debug_info    0x0002c799      0x6a0 C:/ProgramData/KMC/SOLID/SDK/2.0/solid-os/net/lwIP/lib/armv7aLaiv/CT_\libnet.a(icmp.o)
 .debug_info    0x0002ce39      0xd12 C:/ProgramData/KMC/SOLID/SDK/2.0/solid-os/rtos/toppers_asp3/lib/armv7aLaiv/CT__\libkernel.a(dataqueue.o)
 .debug_info    0x0002db4b      0x694 C:/ProgramData/KMC/SOLID/SDK/2.0/solid-os/rtos/toppers_asp3/lib/armv7aLaiv/CT__\libkernel.a(interrupt.o)
 .debug_info    0x0002e1df      0x190 C:/ProgramData/KMC/SOLID/SDK/2.0/solid-os/rtos/toppers_asp3/lib/armv7aLaiv/CT__\libkernel.a(vasyslog.o)
 .debug_info    0x0002e36f      0x92e C:/ProgramData/KMC/SOLID/SDK/2.0/solid-os/rtos/toppers_asp3/lib/armv7aLaiv/CT__\libkernel.a(semaphore.o)
 .debug_info    0x0002ec9d      0x2bd C:/ProgramData/KMC/SOLID/SDK/2.0/solid-os/rtos/toppers_asp3/lib/armv7aLaiv/CT__\libkernel.a(startup.o)
 .debug_info    0x0002ef5a      0x71b C:/ProgramData/KMC/SOLID/SDK/2.0/solid-os/rtos/toppers_asp3/lib/armv7aLaiv/CT__\libkernel.a(sys_manage.o)
 .debug_info    0x0002f675      0xa2b C:/ProgramData/KMC/SOLID/SDK/2.0/solid-os/rtos/toppers_asp3/lib/armv7aLaiv/CT__\libkernel.a(task.o)
 .debug_info    0x000300a0      0x40e C:/ProgramData/KMC/SOLID/SDK/2.0/solid-os/rtos/toppers_asp3/lib/armv7aLaiv/CT__\libkernel.a(taskhook.o)
 .debug_info    0x000304ae      0x720 C:/ProgramData/KMC/SOLID/SDK/2.0/solid-os/rtos/toppers_asp3/lib/armv7aLaiv/CT__\libkernel.a(task_manage.o)
 .debug_info    0x00030bce      0x699 C:/ProgramData/KMC/SOLID/SDK/2.0/solid-os/rtos/toppers_asp3/lib/armv7aLaiv/CT__\libkernel.a(time_event.o)
 .debug_info    0x00031267      0x85d C:/ProgramData/KMC/SOLID/SDK/2.0/solid-os/rtos/toppers_asp3/lib/armv7aLaiv/CT__\libkernel.a(wait.o)
 .debug_info    0x00031ac4       0xb9 C:/ProgramData/KMC/SOLID/SDK/2.0/solid-os/rtos/toppers_asp3/lib/armv7aLaiv/CT__\libkernel.a(solid_rtos_registerapi.o)
 .debug_info    0x00031b7d      0x126 C:/ProgramData/KMC/SOLID/SDK/2.0/solid-os/rtos/toppers_asp3/lib/armv7aLaiv/CT__\libkernel.a(target_fput_log.o)
 .debug_info    0x00031ca3      0x556 C:/ProgramData/KMC/SOLID/SDK/2.0/solid-os/rtos/toppers_asp3/lib/armv7aLaiv/CT__\libkernel.a(target_intc_impl.o)
 .debug_info    0x000321f9      0x2d6 C:/ProgramData/KMC/SOLID/SDK/2.0/solid-os/rtos/toppers_asp3/lib/armv7aLaiv/CT__\libkernel.a(target_timer_impl.o)
 .debug_info    0x000324cf      0x936 C:/ProgramData/KMC/SOLID/SDK/2.0/solid-os/rtos/toppers_asp3/lib/armv7aLaiv/CT__\libkernel.a(kmc_evttracker_rtos.o)
 .debug_info    0x00032e05      0x8a3 C:/ProgramData/KMC/SOLID/SDK/2.0/solid-os/rtos/toppers_asp3/lib/armv7aLaiv/CT__\libkernel.a(rtos_prof.o)
 .debug_info    0x000336a8      0x295 C:/ProgramData/KMC/SOLID/SDK/2.0/solid-os/rtos/toppers_asp3/lib/armv7aLaiv/CT__\libkernel.a(core_support.o)
 .debug_info    0x0003393d      0x10c C:/ProgramData/KMC/SOLID/SDK/2.0/solid-os/rtos/toppers_asp3/lib/armv7aLaiv/CT__\libkernel.a(kernel_cfg_intl.o)
 .debug_info    0x00033a49      0x6a6 C:/ProgramData/KMC/SOLID/SDK/2.0/solid-os/rtos/toppers_asp3/lib/armv7aLaiv/CT__\libkernel.a(alarm.o)
 .debug_info    0x000340ef      0x430 C:/ProgramData/KMC/SOLID/SDK/2.0/solid-os/rtos/toppers_asp3/lib/armv7aLaiv/CT__\libkernel.a(core_kernel_impl.o)
 .debug_info    0x0003451f      0x3f4 C:/ProgramData/KMC/SOLID/SDK/2.0/solid-os/rtos/toppers_asp3/lib/armv7aLaiv/CT__\libkernel.a(cyclic.o)
 .debug_info    0x00034913      0xaa6 C:/ProgramData/KMC/SOLID/SDK/2.0/solid-os/rtos/toppers_asp3/lib/armv7aLaiv/CT__\libkernel.a(eventflag.o)
 .debug_info    0x000353b9      0x214 C:/ProgramData/KMC/SOLID/SDK/2.0/solid-os/rtos/toppers_asp3/lib/armv7aLaiv/CT__\libkernel.a(exception.o)
 .debug_info    0x000355cd      0xa5a C:/ProgramData/KMC/SOLID/SDK/2.0/solid-os/rtos/toppers_asp3/lib/armv7aLaiv/CT__\libkernel.a(mempfix.o)
 .debug_info    0x00036027      0x3e7 C:/ProgramData/KMC/SOLID/SDK/2.0/solid-os/rtos/toppers_asp3/lib/armv7aLaiv/CT__\libkernel.a(tSysLog.o)
 .debug_info    0x0003640e      0xb97 C:/ProgramData/KMC/SOLID/SDK/2.0/solid-os/rtos/toppers_asp3/lib/armv7aLaiv/CT__\libkernel.a(mutex.o)
 .debug_info    0x00036fa5      0xd8b C:/ProgramData/KMC/SOLID/SDK/2.0/solid-os/rtos/toppers_asp3/lib/armv7aLaiv/CT__\libkernel.a(pridataq.o)
 .debug_info    0x00037d30      0xb43 C:/ProgramData/KMC/SOLID/SDK/2.0/solid-os/rtos/toppers_asp3/lib/armv7aLaiv/CT__\libkernel.a(task_refer.o)
 .debug_info    0x00038873      0x7e4 C:/ProgramData/KMC/SOLID/SDK/2.0/solid-os/rtos/toppers_asp3/lib/armv7aLaiv/CT__\libkernel.a(task_sync.o)
 .debug_info    0x00039057      0x5bd C:/ProgramData/KMC/SOLID/SDK/2.0/solid-os/rtos/toppers_asp3/lib/armv7aLaiv/CT__\libkernel.a(task_term.o)
 .debug_info    0x00039614      0x2c4 C:/ProgramData/KMC/SOLID/SDK/2.0/solid-os/rtos/toppers_asp3/lib/armv7aLaiv/CT__\libkernel.a(time_manage.o)
 .debug_info    0x000398d8      0x2f2 C:/ProgramData/KMC/SOLID/SDK/2.0/solid-os/rtos/toppers_asp3/lib/armv7aLaiv/CT__\libkernel.a(log_output.o)
 .debug_info    0x00039bca      0x151 C:/Users/admin/Documents/SOLID-IDE/Projects/lwip_server/Debug_tasan/exeClang_SOLID/\libbsp.a(impl_cs_event.o)
 .debug_info    0x00039d1b      0x65a C:/Users/admin/Documents/SOLID-IDE/Projects/lwip_server/Debug_tasan/exeClang_SOLID/\libbsp.a(impl_dmac.o)
 .debug_info    0x0003a375      0x10b C:/Users/admin/Documents/SOLID-IDE/Projects/lwip_server/Debug_tasan/exeClang_SOLID/\libbsp.a(impl_iores.o)
 .debug_info    0x0003a480      0x155 C:/Users/admin/Documents/SOLID-IDE/Projects/lwip_server/Debug_tasan/exeClang_SOLID/\libbsp.a(impl_log.o)
 .debug_info    0x0003a5d5      0xf2a C:/Users/admin/Documents/SOLID-IDE/Projects/lwip_server/Debug_tasan/exeClang_SOLID/\libbsp.a(impl_net_dev_ether.o)
 .debug_info    0x0003b4ff      0x44f C:/Users/admin/Documents/SOLID-IDE/Projects/lwip_server/Debug_tasan/exeClang_SOLID/\libbsp.a(impl_net_dev_get_macaddr.o)
 .debug_info    0x0003b94e       0xf3 C:/Users/admin/Documents/SOLID-IDE/Projects/lwip_server/Debug_tasan/exeClang_SOLID/\libbsp.a(impl_net_dev_getconfig.o)
 .debug_info    0x0003ba41      0x265 C:/Users/admin/Documents/SOLID-IDE/Projects/lwip_server/Debug_tasan/exeClang_SOLID/\libbsp.a(impl_rtc.o)
 .debug_info    0x0003bca6      0x257 C:/Users/admin/Documents/SOLID-IDE/Projects/lwip_server/Debug_tasan/exeClang_SOLID/\libbsp.a(impl_timer.o)
 .debug_info    0x0003befd      0x70c C:/Users/admin/Documents/SOLID-IDE/Projects/lwip_server/Debug_tasan/exeClang_SOLID/\libbsp.a(rtc.o)
 .debug_info    0x0003c609      0x63b C:/Users/admin/Documents/SOLID-IDE/Projects/lwip_server/Debug_tasan/exeClang_SOLID/\libbsp.a(rtc_userdef.o)
 .debug_info    0x0003cc44      0x4a3 C:/Users/admin/Documents/SOLID-IDE/Projects/lwip_server/Debug_tasan/exeClang_SOLID/\libbsp.a(bsp_globals.o)
 .debug_info    0x0003d0e7      0x30b C:/Users/admin/Documents/SOLID-IDE/Projects/lwip_server/Debug_tasan/exeClang_SOLID/\libbsp.a(rza_io_regrw.o)
 .debug_info    0x0003d3f2      0xc73 C:/GCC4/ARM/s002/lib/armv7aLaiv\libstdc++.a(class_type_info.o)
 .debug_info    0x0003e065      0x425 C:/GCC4/ARM/s002/lib/armv7aLaiv\libstdc++.a(new_handler.o)
 .debug_info    0x0003e48a      0x3a2 C:/GCC4/ARM/s002/lib/armv7aLaiv\libstdc++.a(del_ops.o)
 .debug_info    0x0003e82c      0xac5 C:/GCC4/ARM/s002/lib/armv7aLaiv\libstdc++.a(si_class_type_info.o)
 .debug_info    0x0003f2f1      0x8e7 C:/GCC4/ARM/s002/lib/armv7aLaiv\libstdc++.a(del_op.o)
 .debug_info    0x0003fbd8      0x816 C:/GCC4/ARM/s002/lib/armv7aLaiv\libstdc++.a(tinfo.o)
 .debug_info    0x000403ee       0xec C:/GCC4/ARM/s002/lib/armv7aLaiv/libgcc.a(_udivsi3.o)
 .debug_info    0x000404da       0xec C:/GCC4/ARM/s002/lib/armv7aLaiv/libgcc.a(_dvmd_tls.o)
 .debug_info    0x000405c6       0xe8 C:/GCC4/ARM/s002/lib/armv7aLaiv/libgcc.a(_aeabi_uldivmod.o)
 .debug_info    0x000406ae      0xc82 C:/GCC4/ARM/s002/lib/armv7aLaiv/libgcc.a(_udivmoddi4.o)
 .debug_info    0x00041330     0x15ff C:/GCC4/ARM/s002/lib/armv7aLaiv/libgcc.a(unwind-arm.o)
 .debug_info    0x0004292f       0xec C:/GCC4/ARM/s002/lib/armv7aLaiv/libgcc.a(libunwind.o)
 .debug_info    0x00042a1b      0x5c3 C:/GCC4/ARM/s002/lib/armv7aLaiv/libgcc.a(pr-support.o)
 .debug_info    0x00042fde      0x424 C:/GCC4/ARM/s002/lib/armv7aLaiv/libc.a(_m_init.o)
 .debug_info    0x00043402      0x181 C:/GCC4/ARM/s002/lib/armv7aLaiv/libc.a(abort.o)
 .debug_info    0x00043583       0xe6 C:/GCC4/ARM/s002/lib/armv7aLaiv/libc.a(errno.o)
 .debug_info    0x00043669       0xc9 C:/GCC4/ARM/s002/lib/armv7aLaiv/libc.a(atoi.o)
 .debug_info    0x00043732       0xf6 C:/GCC4/ARM/s002/lib/armv7aLaiv/libc.a(rand.o)
 .debug_info    0x00043828      0x51b C:/GCC4/ARM/s002/lib/armv7aLaiv/libc.a(strtol.o)
 .debug_info    0x00043d43      0x513 C:/GCC4/ARM/s002/lib/armv7aLaiv/libc.a(strtoul.o)
 .debug_info    0x00044256      0x3ed C:/GCC4/ARM/s002/lib/armv7aLaiv/libc.a(atexit.o)
 .debug_info    0x00044643       0xc2 C:/GCC4/ARM/s002/lib/armv7aLaiv/libc.a(memcmp.o)
 .debug_info    0x00044705       0xc6 C:/GCC4/ARM/s002/lib/armv7aLaiv/libc.a(memcpy.o)
 .debug_info    0x000447cb       0xc3 C:/GCC4/ARM/s002/lib/armv7aLaiv/libc.a(memmove.o)
 .debug_info    0x0004488e       0xc2 C:/GCC4/ARM/s002/lib/armv7aLaiv/libc.a(memset.o)
 .debug_info    0x00044950       0xc6 C:/GCC4/ARM/s002/lib/armv7aLaiv/libc.a(strcpy.o)
 .debug_info    0x00044a16       0xc6 C:/GCC4/ARM/s002/lib/armv7aLaiv/libc.a(strncpy.o)
 .debug_info    0x00044adc       0xc2 C:/GCC4/ARM/s002/lib/armv7aLaiv/libc.a(strcmp.o)
 .debug_info    0x00044b9e       0xc3 C:/GCC4/ARM/s002/lib/armv7aLaiv/libc.a(strncmp.o)
 .debug_info    0x00044c61       0xc6 C:/GCC4/ARM/s002/lib/armv7aLaiv/libc.a(strlen.o)
 .debug_info    0x00044d27      0xd7d C:/GCC4/ARM/s002/lib/armv7aLaiv/libc.a(isctype.o)
 .debug_info    0x00045aa4      0xac4 C:/GCC4/ARM/s002/lib/armv7aLaiv/libc.a(global_locale.o)
 .debug_info    0x00046568      0xb24 C:/GCC4/ARM/s002/lib/armv7aLaiv/libc.a(runetable.o)
 .debug_info    0x0004708c       0xaa C:/GCC4/ARM/s002/lib/armv7aLaiv/libc.a(thread-stub-init.o)
 .debug_info    0x00047136      0xa24 C:/GCC4/ARM/s002/lib/armv7aLaiv/libc.a(thread-stub.o)
 .debug_info    0x00047b5a       0x64 C:/GCC4/ARM/s002/lib/armv7aLaiv/libc.a(ssp_init.o)
 .debug_info    0x00047bbe      0x8cc C:/GCC4/ARM/s002/lib/armv7aLaiv/libc.a(findfp.o)
 .debug_info    0x0004848a      0x3c3 C:/GCC4/ARM/s002/lib/armv7aLaiv/libc.a(fprintf.o)
 .debug_info    0x0004884d      0x4ef C:/GCC4/ARM/s002/lib/armv7aLaiv/libc.a(stdio.o)
 .debug_info    0x00048d3c     0x1f5e C:/GCC4/ARM/s002/lib/armv7aLaiv/libc.a(vfprintf.o)
 .debug_info    0x0004ac9a      0xa72 C:/GCC4/ARM/s002/lib/armv7aLaiv/libc.a(vsnprintf.o)
 .debug_info    0x0004b70c      0x5a6 C:/GCC4/ARM/s002/lib/armv7aLaiv/libc.a(wsetup.o)
 .debug_info    0x0004bcb2      0x535 C:/GCC4/ARM/s002/lib/armv7aLaiv/libc.a(makebuf.o)
 .debug_info    0x0004c1e7      0x1ed C:/GCC4/ARM/s002/lib/armv7aLaiv/libc.a(close.o)
 .debug_info    0x0004c3d4      0x31f C:/GCC4/ARM/s002/lib/armv7aLaiv/libc.a(fstat.o)
 .debug_info    0x0004c6f3      0x190 C:/GCC4/ARM/s002/lib/armv7aLaiv/libc.a(lseek.o)
 .debug_info    0x0004c883      0x25f C:/GCC4/ARM/s002/lib/armv7aLaiv/libc.a(open.o)
 .debug_info    0x0004cae2     0x1158 C:/GCC4/ARM/s002/lib/armv7aLaiv/libc.a(osemu.o)
 .debug_info    0x0004dc3a      0x441 C:/GCC4/ARM/s002/lib/armv7aLaiv/libc.a(perror.o)
 .debug_info    0x0004e07b      0x217 C:/GCC4/ARM/s002/lib/armv7aLaiv/libc.a(read.o)
 .debug_info    0x0004e292      0x2cd C:/GCC4/ARM/s002/lib/armv7aLaiv/libc.a(u2dname.o)
 .debug_info    0x0004e55f      0x35a C:/GCC4/ARM/s002/lib/armv7aLaiv/libc.a(utime.o)
 .debug_info    0x0004e8b9      0x21f C:/GCC4/ARM/s002/lib/armv7aLaiv/libc.a(write.o)
 .debug_info    0x0004ead8      0x7d3 C:/GCC4/ARM/s002/lib/armv7aLaiv/libc.a(_env.o)
 .debug_info    0x0004f2ab      0x417 C:/GCC4/ARM/s002/lib/armv7aLaiv/libc.a(exit.o)
 .debug_info    0x0004f6c2       0xf6 C:/GCC4/ARM/s002/lib/armv7aLaiv/libc.a(signal.o)
 .debug_info    0x0004f7b8      0x471 C:/GCC4/ARM/s002/lib/armv7aLaiv/libc.a(localtime.o)
 .debug_info    0x0004fc29      0x101 C:/GCC4/ARM/s002/lib/armv7aLaiv/libc.a(lldiv.o)
 .debug_info    0x0004fd2a       0xec C:/GCC4/ARM/s002/lib/armv7aLaiv/libc.a(memchr.o)
 .debug_info    0x0004fe16       0xc6 C:/GCC4/ARM/s002/lib/armv7aLaiv/libc.a(strnlen.o)
 .debug_info    0x0004fedc      0x121 C:/GCC4/ARM/s002/lib/armv7aLaiv/libc.a(strcspn.o)
 .debug_info    0x0004fffd      0x175 C:/GCC4/ARM/s002/lib/armv7aLaiv/libc.a(strncasecmp.o)
 .debug_info    0x00050172       0xf8 C:/GCC4/ARM/s002/lib/armv7aLaiv/libc.a(strdup.o)
 .debug_info    0x0005026a      0x340 C:/GCC4/ARM/s002/lib/armv7aLaiv/libc.a(ctype_.o)
 .debug_info    0x000505aa      0x340 C:/GCC4/ARM/s002/lib/armv7aLaiv/libc.a(toupper_.o)
 .debug_info    0x000508ea      0x340 C:/GCC4/ARM/s002/lib/armv7aLaiv/libc.a(tolower_.o)
 .debug_info    0x00050c2a      0xaef C:/GCC4/ARM/s002/lib/armv7aLaiv/libc.a(citrus_ctype.o)
 .debug_info    0x00051719     0x1a5f C:/GCC4/ARM/s002/lib/armv7aLaiv/libc.a(citrus_none.o)
 .debug_info    0x00053178     0x2cfa C:/GCC4/ARM/s002/lib/armv7aLaiv/libc.a(citrus_mskanji.o)
 .debug_info    0x00055e72     0x2c6e C:/GCC4/ARM/s002/lib/armv7aLaiv/libc.a(citrus_utf8.o)
 .debug_info    0x00058ae0      0x3cf C:/GCC4/ARM/s002/lib/armv7aLaiv/libc.a(localeconv.o)
 .debug_info    0x00058eaf     0x212e C:/GCC4/ARM/s002/lib/armv7aLaiv/libc.a(multibyte_amd1.o)
 .debug_info    0x0005afdd       0x33 C:/GCC4/ARM/s002/lib/armv7aLaiv/libc.a(__isthreaded.o)
 .debug_info    0x0005b010      0x5fe C:/GCC4/ARM/s002/lib/armv7aLaiv/libc.a(dtoa.o)
 .debug_info    0x0005b60e      0x2c4 C:/GCC4/ARM/s002/lib/armv7aLaiv/libc.a(ldtoa.o)
 .debug_info    0x0005b8d2      0x4d6 C:/GCC4/ARM/s002/lib/armv7aLaiv/libc.a(hdtoa.o)
 .debug_info    0x0005bda8      0x495 C:/GCC4/ARM/s002/lib/armv7aLaiv/libc.a(dmisc.o)
 .debug_info    0x0005c23d      0xb9c C:/GCC4/ARM/s002/lib/armv7aLaiv/libc.a(misc.o)
 .debug_info    0x0005cdd9     0x37b1 C:/GCC4/ARM/s002/lib/armv7aLaiv/libc.a(softfloat.o)
 .debug_info    0x0006058a      0x124 C:/GCC4/ARM/s002/lib/armv7aLaiv/libc.a(__aeabi_dcmpeq.o)
 .debug_info    0x000606ae      0x124 C:/GCC4/ARM/s002/lib/armv7aLaiv/libc.a(__aeabi_dcmpge.o)
 .debug_info    0x000607d2      0x124 C:/GCC4/ARM/s002/lib/armv7aLaiv/libc.a(__aeabi_dcmpgt.o)
 .debug_info    0x000608f6      0x124 C:/GCC4/ARM/s002/lib/armv7aLaiv/libc.a(__aeabi_dcmplt.o)
 .debug_info    0x00060a1a      0x999 C:/GCC4/ARM/s002/lib/armv7aLaiv/libc.a(rb.o)
 .debug_info    0x000613b3      0x4c7 C:/GCC4/ARM/s002/lib/armv7aLaiv/libc.a(fflush.o)
 .debug_info    0x0006187a      0x729 C:/GCC4/ARM/s002/lib/armv7aLaiv/libc.a(flockfile.o)
 .debug_info    0x00061fa3      0x463 C:/GCC4/ARM/s002/lib/armv7aLaiv/libc.a(fvwrite.o)
 .debug_info    0x00062406      0x3ac C:/GCC4/ARM/s002/lib/armv7aLaiv/libc.a(fwalk.o)
 .debug_info    0x000627b2      0x1bf C:/GCC4/ARM/s002/lib/armv7aLaiv/libc.a(creat.o)
 .debug_info    0x00062971      0x178 C:/GCC4/ARM/s002/lib/armv7aLaiv/libc.a(fpclassifyd_ieee754.o)
 .debug_info    0x00062ae9      0x15f C:/GCC4/ARM/s002/lib/armv7aLaiv/libc.a(strcasecmp.o)
 .debug_info    0x00062c48      0x244 C:/GCC4/ARM/s002/lib/armv7aLaiv/libc.a(gdtoa_locks.o)
 .debug_info    0x00062e8c       0xec C:/GCC4/ARM/s002/lib/armv7aLaiv/libgcc.a(_divsi3.o)
 .debug_info    0x00062f78       0xed C:/GCC4/ARM/s002/lib/armv7aLaiv/libgcc.a(_arm_addsubdf3.o)
 .debug_info    0x00063065       0xe8 C:/GCC4/ARM/s002/lib/armv7aLaiv/libgcc.a(_aeabi_ldivmod.o)

.debug_abbrev   0x00000000    0x10eef
 *(.debug_abbrev)
 .debug_abbrev  0x00000000      0x2e0 C:/Users/admin/Documents/SOLID-IDE/Projects/lwip_server/Debug_tasan/exeClang_SOLID/lwip_server/lwip_server_all.o
 .debug_abbrev  0x000002e0       0x26 C:/ProgramData/KMC/SOLID/SDK/2.0/solid-os/core/lib/armv7aLaiv/CT_\libsolid_cs.a(solid_cs_asm.o)
 .debug_abbrev  0x00000306       0xa8 C:/ProgramData/KMC/SOLID/SDK/2.0/solid-os/core/lib/armv7aLaiv/CT_\libsolid_cs.a(solid_cs_main.o)
 .debug_abbrev  0x000003ae       0x2c C:/ProgramData/KMC/SOLID/SDK/2.0/solid-os/core/lib/armv7aLaiv/CT_\libsolid_cs.a(kmc_trace_mem_dummy.o)
 .debug_abbrev  0x000003da       0xe7 C:/ProgramData/KMC/SOLID/SDK/2.0/solid-os/core/lib/armv7aLaiv/CT_\libsolid_cs.a(solid_cs_event.o)
 .debug_abbrev  0x000004c1       0xb4 C:/ProgramData/KMC/SOLID/SDK/2.0/solid-os/core/lib/armv7aLaiv/CT_\libsolid_cs.a(solid_debugger.o)
 .debug_abbrev  0x00000575      0x370 C:/ProgramData/KMC/SOLID/SDK/2.0/solid-os/core/lib/armv7aLaiv/CT_\libsolid_cs.a(solid_dmac.o)
 .debug_abbrev  0x000008e5       0xe6 C:/ProgramData/KMC/SOLID/SDK/2.0/solid-os/core/lib/armv7aLaiv/CT_\libsolid_cs.a(solid_exception.o)
 .debug_abbrev  0x000009cb      0x2d6 C:/ProgramData/KMC/SOLID/SDK/2.0/solid-os/core/lib/armv7aLaiv/CT_\libsolid_cs.a(solid_fs_base.o)
 .debug_abbrev  0x00000ca1      0x1c0 C:/ProgramData/KMC/SOLID/SDK/2.0/solid-os/core/lib/armv7aLaiv/CT_\libsolid_cs.a(solid_fs_mem.o)
 .debug_abbrev  0x00000e61      0x1c0 C:/ProgramData/KMC/SOLID/SDK/2.0/solid-os/core/lib/armv7aLaiv/CT_\libsolid_cs.a(solid_fs_vlink.o)
 .debug_abbrev  0x00001021      0x242 C:/ProgramData/KMC/SOLID/SDK/2.0/solid-os/core/lib/armv7aLaiv/CT_\libsolid_cs.a(solid_intc.o)
 .debug_abbrev  0x00001263      0x2ca C:/ProgramData/KMC/SOLID/SDK/2.0/solid-os/core/lib/armv7aLaiv/CT_\libsolid_cs.a(solid_iores.o)
 .debug_abbrev  0x0000152d      0x3bf C:/ProgramData/KMC/SOLID/SDK/2.0/solid-os/core/lib/armv7aLaiv/CT_\libsolid_cs.a(solid_loader.o)
 .debug_abbrev  0x000018ec       0xa8 C:/ProgramData/KMC/SOLID/SDK/2.0/solid-os/core/lib/armv7aLaiv/CT_\libsolid_cs.a(solid_loader_fixed.o)
 .debug_abbrev  0x00001994      0x12d C:/ProgramData/KMC/SOLID/SDK/2.0/solid-os/core/lib/armv7aLaiv/CT_\libsolid_cs.a(solid_log.o)
 .debug_abbrev  0x00001ac1       0xdd C:/ProgramData/KMC/SOLID/SDK/2.0/solid-os/core/lib/armv7aLaiv/CT_\libsolid_cs.a(solid_malloc.o)
 .debug_abbrev  0x00001b9e      0x37d C:/ProgramData/KMC/SOLID/SDK/2.0/solid-os/core/lib/armv7aLaiv/CT_\libsolid_cs.a(solid_mem.o)
 .debug_abbrev  0x00001f1b      0x1ac C:/ProgramData/KMC/SOLID/SDK/2.0/solid-os/core/lib/armv7aLaiv/CT_\libsolid_cs.a(solid_mem_cache.o)
 .debug_abbrev  0x000020c7      0x186 C:/ProgramData/KMC/SOLID/SDK/2.0/solid-os/core/lib/armv7aLaiv/CT_\libsolid_cs.a(solid_mutex.o)
 .debug_abbrev  0x0000224d       0x8a C:/ProgramData/KMC/SOLID/SDK/2.0/solid-os/core/lib/armv7aLaiv/CT_\libsolid_cs.a(solid_rtc.o)
 .debug_abbrev  0x000022d7      0x25c C:/ProgramData/KMC/SOLID/SDK/2.0/solid-os/core/lib/armv7aLaiv/CT_\libsolid_cs.a(solid_timer.o)
 .debug_abbrev  0x00002533      0x150 C:/ProgramData/KMC/SOLID/SDK/2.0/solid-os/core/lib/armv7aLaiv/CT_\libsolid_cs.a(solid_vector.o)
 .debug_abbrev  0x00002683      0x12f C:/ProgramData/KMC/SOLID/SDK/2.0/solid-os/core/lib/armv7aLaiv/CT_\libsolid_cs.a(solid_vlink.o)
 .debug_abbrev  0x000027b2      0x24a C:/ProgramData/KMC/SOLID/SDK/2.0/solid-os/core/lib/armv7aLaiv/CT_\libsolid_cs.a(tasan.o)
 .debug_abbrev  0x000029fc       0x7c C:/ProgramData/KMC/SOLID/SDK/2.0/solid-os/core/lib/armv7aLaiv/CT_\libsolid_cs.a(tasan_interceptors.o)
 .debug_abbrev  0x00002a78      0x239 C:/ProgramData/KMC/SOLID/SDK/2.0/solid-os/core/lib/armv7aLaiv/CT_\libsolid_cs.a(solid_mem_mmu.o)
 .debug_abbrev  0x00002cb1      0x134 C:/ProgramData/KMC/SOLID/SDK/2.0/solid-os/core/lib/armv7aLaiv/CT_\libsolid_cs.a(kmc_evttracker_core.o)
 .debug_abbrev  0x00002de5      0x153 C:/ProgramData/KMC/SOLID/SDK/2.0/solid-os/core/lib/armv7aLaiv/CT_\libsolid_cs.a(dlmalloc.o)
 .debug_abbrev  0x00002f38       0xc3 C:/ProgramData/KMC/SOLID/SDK/2.0/solid-os/core/lib/armv7aLaiv/CT_\libsolid_cs.a(solid_asan.o)
 .debug_abbrev  0x00002ffb       0x73 C:/ProgramData/KMC/SOLID/SDK/2.0/solid-os/core/lib/armv7aLaiv/CT_\libsolid_cs.a(solid_cs_args.o)
 .debug_abbrev  0x0000306e      0x1b7 C:/ProgramData/KMC/SOLID/SDK/2.0/solid-os/net/lwIP/lib/armv7aLaiv/CT_\libnet.a(sys_arch.o)
 .debug_abbrev  0x00003225      0x191 C:/ProgramData/KMC/SOLID/SDK/2.0/solid-os/net/lwIP/lib/armv7aLaiv/CT_\libnet.a(sockets.o)
 .debug_abbrev  0x000033b6      0x1a4 C:/ProgramData/KMC/SOLID/SDK/2.0/solid-os/net/lwIP/lib/armv7aLaiv/CT_\libnet.a(tcpip.o)
 .debug_abbrev  0x0000355a       0x9d C:/ProgramData/KMC/SOLID/SDK/2.0/solid-os/net/lwIP/lib/armv7aLaiv/CT_\libnet.a(def.o)
 .debug_abbrev  0x000035f7       0x46 C:/ProgramData/KMC/SOLID/SDK/2.0/solid-os/net/lwIP/lib/armv7aLaiv/CT_\libnet.a(init.o)
 .debug_abbrev  0x0000363d      0x142 C:/ProgramData/KMC/SOLID/SDK/2.0/solid-os/net/lwIP/lib/armv7aLaiv/CT_\libnet.a(ip4.o)
 .debug_abbrev  0x0000377f      0x129 C:/ProgramData/KMC/SOLID/SDK/2.0/solid-os/net/lwIP/lib/armv7aLaiv/CT_\libnet.a(ip4_addr.o)
 .debug_abbrev  0x000038a8      0x192 C:/ProgramData/KMC/SOLID/SDK/2.0/solid-os/net/lwIP/lib/armv7aLaiv/CT_\libnet.a(ip4_frag.o)
 .debug_abbrev  0x00003a3a      0x119 C:/ProgramData/KMC/SOLID/SDK/2.0/solid-os/net/lwIP/lib/armv7aLaiv/CT_\libnet.a(mem.o)
 .debug_abbrev  0x00003b53      0x164 C:/ProgramData/KMC/SOLID/SDK/2.0/solid-os/net/lwIP/lib/armv7aLaiv/CT_\libnet.a(memp.o)
 .debug_abbrev  0x00003cb7      0x174 C:/ProgramData/KMC/SOLID/SDK/2.0/solid-os/net/lwIP/lib/armv7aLaiv/CT_\libnet.a(netif.o)
 .debug_abbrev  0x00003e2b      0x17f C:/ProgramData/KMC/SOLID/SDK/2.0/solid-os/net/lwIP/lib/armv7aLaiv/CT_\libnet.a(pbuf.o)
 .debug_abbrev  0x00003faa       0xb6 C:/ProgramData/KMC/SOLID/SDK/2.0/solid-os/net/lwIP/lib/armv7aLaiv/CT_\libnet.a(stats.o)
 .debug_abbrev  0x00004060      0x1e1 C:/ProgramData/KMC/SOLID/SDK/2.0/solid-os/net/lwIP/lib/armv7aLaiv/CT_\libnet.a(tcp.o)
 .debug_abbrev  0x00004241      0x177 C:/ProgramData/KMC/SOLID/SDK/2.0/solid-os/net/lwIP/lib/armv7aLaiv/CT_\libnet.a(tcp_in.o)
 .debug_abbrev  0x000043b8      0x18a C:/ProgramData/KMC/SOLID/SDK/2.0/solid-os/net/lwIP/lib/armv7aLaiv/CT_\libnet.a(tcp_out.o)
 .debug_abbrev  0x00004542      0x1a3 C:/ProgramData/KMC/SOLID/SDK/2.0/solid-os/net/lwIP/lib/armv7aLaiv/CT_\libnet.a(timeouts.o)
 .debug_abbrev  0x000046e5      0x190 C:/ProgramData/KMC/SOLID/SDK/2.0/solid-os/net/lwIP/lib/armv7aLaiv/CT_\libnet.a(udp.o)
 .debug_abbrev  0x00004875      0x12e C:/ProgramData/KMC/SOLID/SDK/2.0/solid-os/net/lwIP/lib/armv7aLaiv/CT_\libnet.a(ethernet.o)
 .debug_abbrev  0x000049a3      0x1fb C:/ProgramData/KMC/SOLID/SDK/2.0/solid-os/net/lwIP/lib/armv7aLaiv/CT_\libnet.a(solid_net_if.o)
 .debug_abbrev  0x00004b9e       0xa7 C:/ProgramData/KMC/SOLID/SDK/2.0/solid-os/net/lwIP/lib/armv7aLaiv/CT_\libnet.a(solid_net_registerapi.o)
 .debug_abbrev  0x00004c45      0x1f3 C:/ProgramData/KMC/SOLID/SDK/2.0/solid-os/net/lwIP/lib/armv7aLaiv/CT_\libnet.a(impl_net_stack.o)
 .debug_abbrev  0x00004e38       0xda C:/ProgramData/KMC/SOLID/SDK/2.0/solid-os/net/lwIP/lib/armv7aLaiv/CT_\libnet.a(impl_net_stack_errno.o)
 .debug_abbrev  0x00004f12      0x14f C:/ProgramData/KMC/SOLID/SDK/2.0/solid-os/net/lwIP/lib/armv7aLaiv/CT_\libnet.a(ethernetif.o)
 .debug_abbrev  0x00005061      0x173 C:/ProgramData/KMC/SOLID/SDK/2.0/solid-os/net/lwIP/lib/armv7aLaiv/CT_\libnet.a(api_lib.o)
 .debug_abbrev  0x000051d4      0x1af C:/ProgramData/KMC/SOLID/SDK/2.0/solid-os/net/lwIP/lib/armv7aLaiv/CT_\libnet.a(api_msg.o)
 .debug_abbrev  0x00005383       0x8d C:/ProgramData/KMC/SOLID/SDK/2.0/solid-os/net/lwIP/lib/armv7aLaiv/CT_\libnet.a(err.o)
 .debug_abbrev  0x00005410       0xba C:/ProgramData/KMC/SOLID/SDK/2.0/solid-os/net/lwIP/lib/armv7aLaiv/CT_\libnet.a(netbuf.o)
 .debug_abbrev  0x000054ca      0x14b C:/ProgramData/KMC/SOLID/SDK/2.0/solid-os/net/lwIP/lib/armv7aLaiv/CT_\libnet.a(netdb.o)
 .debug_abbrev  0x00005615      0x182 C:/ProgramData/KMC/SOLID/SDK/2.0/solid-os/net/lwIP/lib/armv7aLaiv/CT_\libnet.a(dns.o)
 .debug_abbrev  0x00005797       0xe2 C:/ProgramData/KMC/SOLID/SDK/2.0/solid-os/net/lwIP/lib/armv7aLaiv/CT_\libnet.a(inet_chksum.o)
 .debug_abbrev  0x00005879       0xac C:/ProgramData/KMC/SOLID/SDK/2.0/solid-os/net/lwIP/lib/armv7aLaiv/CT_\libnet.a(ip.o)
 .debug_abbrev  0x00005925      0x19f C:/ProgramData/KMC/SOLID/SDK/2.0/solid-os/net/lwIP/lib/armv7aLaiv/CT_\libnet.a(dhcp.o)
 .debug_abbrev  0x00005ac4      0x17d C:/ProgramData/KMC/SOLID/SDK/2.0/solid-os/net/lwIP/lib/armv7aLaiv/CT_\libnet.a(etharp.o)
 .debug_abbrev  0x00005c41      0x142 C:/ProgramData/KMC/SOLID/SDK/2.0/solid-os/net/lwIP/lib/armv7aLaiv/CT_\libnet.a(icmp.o)
 .debug_abbrev  0x00005d83      0x1bf C:/ProgramData/KMC/SOLID/SDK/2.0/solid-os/rtos/toppers_asp3/lib/armv7aLaiv/CT__\libkernel.a(dataqueue.o)
 .debug_abbrev  0x00005f42      0x185 C:/ProgramData/KMC/SOLID/SDK/2.0/solid-os/rtos/toppers_asp3/lib/armv7aLaiv/CT__\libkernel.a(interrupt.o)
 .debug_abbrev  0x000060c7       0xd1 C:/ProgramData/KMC/SOLID/SDK/2.0/solid-os/rtos/toppers_asp3/lib/armv7aLaiv/CT__\libkernel.a(vasyslog.o)
 .debug_abbrev  0x00006198      0x1aa C:/ProgramData/KMC/SOLID/SDK/2.0/solid-os/rtos/toppers_asp3/lib/armv7aLaiv/CT__\libkernel.a(semaphore.o)
 .debug_abbrev  0x00006342      0x123 C:/ProgramData/KMC/SOLID/SDK/2.0/solid-os/rtos/toppers_asp3/lib/armv7aLaiv/CT__\libkernel.a(startup.o)
 .debug_abbrev  0x00006465      0x173 C:/ProgramData/KMC/SOLID/SDK/2.0/solid-os/rtos/toppers_asp3/lib/armv7aLaiv/CT__\libkernel.a(sys_manage.o)
 .debug_abbrev  0x000065d8      0x1ec C:/ProgramData/KMC/SOLID/SDK/2.0/solid-os/rtos/toppers_asp3/lib/armv7aLaiv/CT__\libkernel.a(task.o)
 .debug_abbrev  0x000067c4      0x10a C:/ProgramData/KMC/SOLID/SDK/2.0/solid-os/rtos/toppers_asp3/lib/armv7aLaiv/CT__\libkernel.a(taskhook.o)
 .debug_abbrev  0x000068ce      0x195 C:/ProgramData/KMC/SOLID/SDK/2.0/solid-os/rtos/toppers_asp3/lib/armv7aLaiv/CT__\libkernel.a(task_manage.o)
 .debug_abbrev  0x00006a63      0x1d9 C:/ProgramData/KMC/SOLID/SDK/2.0/solid-os/rtos/toppers_asp3/lib/armv7aLaiv/CT__\libkernel.a(time_event.o)
 .debug_abbrev  0x00006c3c      0x182 C:/ProgramData/KMC/SOLID/SDK/2.0/solid-os/rtos/toppers_asp3/lib/armv7aLaiv/CT__\libkernel.a(wait.o)
 .debug_abbrev  0x00006dbe       0xa7 C:/ProgramData/KMC/SOLID/SDK/2.0/solid-os/rtos/toppers_asp3/lib/armv7aLaiv/CT__\libkernel.a(solid_rtos_registerapi.o)
 .debug_abbrev  0x00006e65       0xad C:/ProgramData/KMC/SOLID/SDK/2.0/solid-os/rtos/toppers_asp3/lib/armv7aLaiv/CT__\libkernel.a(target_fput_log.o)
 .debug_abbrev  0x00006f12      0x16a C:/ProgramData/KMC/SOLID/SDK/2.0/solid-os/rtos/toppers_asp3/lib/armv7aLaiv/CT__\libkernel.a(target_intc_impl.o)
 .debug_abbrev  0x0000707c      0x121 C:/ProgramData/KMC/SOLID/SDK/2.0/solid-os/rtos/toppers_asp3/lib/armv7aLaiv/CT__\libkernel.a(target_timer_impl.o)
 .debug_abbrev  0x0000719d      0x140 C:/ProgramData/KMC/SOLID/SDK/2.0/solid-os/rtos/toppers_asp3/lib/armv7aLaiv/CT__\libkernel.a(kmc_evttracker_rtos.o)
 .debug_abbrev  0x000072dd      0x194 C:/ProgramData/KMC/SOLID/SDK/2.0/solid-os/rtos/toppers_asp3/lib/armv7aLaiv/CT__\libkernel.a(rtos_prof.o)
 .debug_abbrev  0x00007471       0x28 C:/ProgramData/KMC/SOLID/SDK/2.0/solid-os/rtos/toppers_asp3/lib/armv7aLaiv/CT__\libkernel.a(core_support.o)
 .debug_abbrev  0x00007499       0xc4 C:/ProgramData/KMC/SOLID/SDK/2.0/solid-os/rtos/toppers_asp3/lib/armv7aLaiv/CT__\libkernel.a(kernel_cfg_intl.o)
 .debug_abbrev  0x0000755d      0x176 C:/ProgramData/KMC/SOLID/SDK/2.0/solid-os/rtos/toppers_asp3/lib/armv7aLaiv/CT__\libkernel.a(alarm.o)
 .debug_abbrev  0x000076d3      0x14f C:/ProgramData/KMC/SOLID/SDK/2.0/solid-os/rtos/toppers_asp3/lib/armv7aLaiv/CT__\libkernel.a(core_kernel_impl.o)
 .debug_abbrev  0x00007822      0x14d C:/ProgramData/KMC/SOLID/SDK/2.0/solid-os/rtos/toppers_asp3/lib/armv7aLaiv/CT__\libkernel.a(cyclic.o)
 .debug_abbrev  0x0000796f      0x1c1 C:/ProgramData/KMC/SOLID/SDK/2.0/solid-os/rtos/toppers_asp3/lib/armv7aLaiv/CT__\libkernel.a(eventflag.o)
 .debug_abbrev  0x00007b30       0xd8 C:/ProgramData/KMC/SOLID/SDK/2.0/solid-os/rtos/toppers_asp3/lib/armv7aLaiv/CT__\libkernel.a(exception.o)
 .debug_abbrev  0x00007c08      0x1b3 C:/ProgramData/KMC/SOLID/SDK/2.0/solid-os/rtos/toppers_asp3/lib/armv7aLaiv/CT__\libkernel.a(mempfix.o)
 .debug_abbrev  0x00007dbb       0xfa C:/ProgramData/KMC/SOLID/SDK/2.0/solid-os/rtos/toppers_asp3/lib/armv7aLaiv/CT__\libkernel.a(tSysLog.o)
 .debug_abbrev  0x00007eb5      0x1d6 C:/ProgramData/KMC/SOLID/SDK/2.0/solid-os/rtos/toppers_asp3/lib/armv7aLaiv/CT__\libkernel.a(mutex.o)
 .debug_abbrev  0x0000808b      0x1bf C:/ProgramData/KMC/SOLID/SDK/2.0/solid-os/rtos/toppers_asp3/lib/armv7aLaiv/CT__\libkernel.a(pridataq.o)
 .debug_abbrev  0x0000824a      0x13e C:/ProgramData/KMC/SOLID/SDK/2.0/solid-os/rtos/toppers_asp3/lib/armv7aLaiv/CT__\libkernel.a(task_refer.o)
 .debug_abbrev  0x00008388      0x1ac C:/ProgramData/KMC/SOLID/SDK/2.0/solid-os/rtos/toppers_asp3/lib/armv7aLaiv/CT__\libkernel.a(task_sync.o)
 .debug_abbrev  0x00008534      0x186 C:/ProgramData/KMC/SOLID/SDK/2.0/solid-os/rtos/toppers_asp3/lib/armv7aLaiv/CT__\libkernel.a(task_term.o)
 .debug_abbrev  0x000086ba       0xbb C:/ProgramData/KMC/SOLID/SDK/2.0/solid-os/rtos/toppers_asp3/lib/armv7aLaiv/CT__\libkernel.a(time_manage.o)
 .debug_abbrev  0x00008775       0xd5 C:/ProgramData/KMC/SOLID/SDK/2.0/solid-os/rtos/toppers_asp3/lib/armv7aLaiv/CT__\libkernel.a(log_output.o)
 .debug_abbrev  0x0000884a       0xd0 C:/Users/admin/Documents/SOLID-IDE/Projects/lwip_server/Debug_tasan/exeClang_SOLID/\libbsp.a(impl_cs_event.o)
 .debug_abbrev  0x0000891a      0x132 C:/Users/admin/Documents/SOLID-IDE/Projects/lwip_server/Debug_tasan/exeClang_SOLID/\libbsp.a(impl_dmac.o)
 .debug_abbrev  0x00008a4c       0xa7 C:/Users/admin/Documents/SOLID-IDE/Projects/lwip_server/Debug_tasan/exeClang_SOLID/\libbsp.a(impl_iores.o)
 .debug_abbrev  0x00008af3       0xb3 C:/Users/admin/Documents/SOLID-IDE/Projects/lwip_server/Debug_tasan/exeClang_SOLID/\libbsp.a(impl_log.o)
 .debug_abbrev  0x00008ba6      0x278 C:/Users/admin/Documents/SOLID-IDE/Projects/lwip_server/Debug_tasan/exeClang_SOLID/\libbsp.a(impl_net_dev_ether.o)
 .debug_abbrev  0x00008e1e      0x177 C:/Users/admin/Documents/SOLID-IDE/Projects/lwip_server/Debug_tasan/exeClang_SOLID/\libbsp.a(impl_net_dev_get_macaddr.o)
 .debug_abbrev  0x00008f95       0x81 C:/Users/admin/Documents/SOLID-IDE/Projects/lwip_server/Debug_tasan/exeClang_SOLID/\libbsp.a(impl_net_dev_getconfig.o)
 .debug_abbrev  0x00009016       0xa1 C:/Users/admin/Documents/SOLID-IDE/Projects/lwip_server/Debug_tasan/exeClang_SOLID/\libbsp.a(impl_rtc.o)
 .debug_abbrev  0x000090b7       0xde C:/Users/admin/Documents/SOLID-IDE/Projects/lwip_server/Debug_tasan/exeClang_SOLID/\libbsp.a(impl_timer.o)
 .debug_abbrev  0x00009195      0x15f C:/Users/admin/Documents/SOLID-IDE/Projects/lwip_server/Debug_tasan/exeClang_SOLID/\libbsp.a(rtc.o)
 .debug_abbrev  0x000092f4       0xd5 C:/Users/admin/Documents/SOLID-IDE/Projects/lwip_server/Debug_tasan/exeClang_SOLID/\libbsp.a(rtc_userdef.o)
 .debug_abbrev  0x000093c9       0x71 C:/Users/admin/Documents/SOLID-IDE/Projects/lwip_server/Debug_tasan/exeClang_SOLID/\libbsp.a(bsp_globals.o)
 .debug_abbrev  0x0000943a       0x96 C:/Users/admin/Documents/SOLID-IDE/Projects/lwip_server/Debug_tasan/exeClang_SOLID/\libbsp.a(rza_io_regrw.o)
 .debug_abbrev  0x000094d0      0x4a4 C:/GCC4/ARM/s002/lib/armv7aLaiv\libstdc++.a(class_type_info.o)
 .debug_abbrev  0x00009974      0x269 C:/GCC4/ARM/s002/lib/armv7aLaiv\libstdc++.a(new_handler.o)
 .debug_abbrev  0x00009bdd      0x206 C:/GCC4/ARM/s002/lib/armv7aLaiv\libstdc++.a(del_ops.o)
 .debug_abbrev  0x00009de3      0x3e1 C:/GCC4/ARM/s002/lib/armv7aLaiv\libstdc++.a(si_class_type_info.o)
 .debug_abbrev  0x0000a1c4      0x2b4 C:/GCC4/ARM/s002/lib/armv7aLaiv\libstdc++.a(del_op.o)
 .debug_abbrev  0x0000a478      0x351 C:/GCC4/ARM/s002/lib/armv7aLaiv\libstdc++.a(tinfo.o)
 .debug_abbrev  0x0000a7c9       0x14 C:/GCC4/ARM/s002/lib/armv7aLaiv/libgcc.a(_udivsi3.o)
 .debug_abbrev  0x0000a7dd       0x14 C:/GCC4/ARM/s002/lib/armv7aLaiv/libgcc.a(_dvmd_tls.o)
 .debug_abbrev  0x0000a7f1       0x14 C:/GCC4/ARM/s002/lib/armv7aLaiv/libgcc.a(_aeabi_uldivmod.o)
 .debug_abbrev  0x0000a805      0x193 C:/GCC4/ARM/s002/lib/armv7aLaiv/libgcc.a(_udivmoddi4.o)
 .debug_abbrev  0x0000a998      0x367 C:/GCC4/ARM/s002/lib/armv7aLaiv/libgcc.a(unwind-arm.o)
 .debug_abbrev  0x0000acff       0x14 C:/GCC4/ARM/s002/lib/armv7aLaiv/libgcc.a(libunwind.o)
 .debug_abbrev  0x0000ad13      0x23d C:/GCC4/ARM/s002/lib/armv7aLaiv/libgcc.a(pr-support.o)
 .debug_abbrev  0x0000af50      0x141 C:/GCC4/ARM/s002/lib/armv7aLaiv/libc.a(_m_init.o)
 .debug_abbrev  0x0000b091       0xd4 C:/GCC4/ARM/s002/lib/armv7aLaiv/libc.a(abort.o)
 .debug_abbrev  0x0000b165       0x6c C:/GCC4/ARM/s002/lib/armv7aLaiv/libc.a(errno.o)
 .debug_abbrev  0x0000b1d1       0x80 C:/GCC4/ARM/s002/lib/armv7aLaiv/libc.a(atoi.o)
 .debug_abbrev  0x0000b251       0xa1 C:/GCC4/ARM/s002/lib/armv7aLaiv/libc.a(rand.o)
 .debug_abbrev  0x0000b2f2      0x167 C:/GCC4/ARM/s002/lib/armv7aLaiv/libc.a(strtol.o)
 .debug_abbrev  0x0000b459      0x165 C:/GCC4/ARM/s002/lib/armv7aLaiv/libc.a(strtoul.o)
 .debug_abbrev  0x0000b5be      0x1bc C:/GCC4/ARM/s002/lib/armv7aLaiv/libc.a(atexit.o)
 .debug_abbrev  0x0000b77a       0x14 C:/GCC4/ARM/s002/lib/armv7aLaiv/libc.a(memcmp.o)
 .debug_abbrev  0x0000b78e       0x14 C:/GCC4/ARM/s002/lib/armv7aLaiv/libc.a(memcpy.o)
 .debug_abbrev  0x0000b7a2       0x14 C:/GCC4/ARM/s002/lib/armv7aLaiv/libc.a(memmove.o)
 .debug_abbrev  0x0000b7b6       0x14 C:/GCC4/ARM/s002/lib/armv7aLaiv/libc.a(memset.o)
 .debug_abbrev  0x0000b7ca       0x14 C:/GCC4/ARM/s002/lib/armv7aLaiv/libc.a(strcpy.o)
 .debug_abbrev  0x0000b7de       0x14 C:/GCC4/ARM/s002/lib/armv7aLaiv/libc.a(strncpy.o)
 .debug_abbrev  0x0000b7f2       0x14 C:/GCC4/ARM/s002/lib/armv7aLaiv/libc.a(strcmp.o)
 .debug_abbrev  0x0000b806       0x14 C:/GCC4/ARM/s002/lib/armv7aLaiv/libc.a(strncmp.o)
 .debug_abbrev  0x0000b81a       0x14 C:/GCC4/ARM/s002/lib/armv7aLaiv/libc.a(strlen.o)
 .debug_abbrev  0x0000b82e      0x150 C:/GCC4/ARM/s002/lib/armv7aLaiv/libc.a(isctype.o)
 .debug_abbrev  0x0000b97e      0x123 C:/GCC4/ARM/s002/lib/armv7aLaiv/libc.a(global_locale.o)
 .debug_abbrev  0x0000baa1      0x114 C:/GCC4/ARM/s002/lib/armv7aLaiv/libc.a(runetable.o)
 .debug_abbrev  0x0000bbb5       0x5f C:/GCC4/ARM/s002/lib/armv7aLaiv/libc.a(thread-stub-init.o)
 .debug_abbrev  0x0000bc14      0x1f9 C:/GCC4/ARM/s002/lib/armv7aLaiv/libc.a(thread-stub.o)
 .debug_abbrev  0x0000be0d       0x62 C:/GCC4/ARM/s002/lib/armv7aLaiv/libc.a(ssp_init.o)
 .debug_abbrev  0x0000be6f      0x21e C:/GCC4/ARM/s002/lib/armv7aLaiv/libc.a(findfp.o)
 .debug_abbrev  0x0000c08d      0x13a C:/GCC4/ARM/s002/lib/armv7aLaiv/libc.a(fprintf.o)
 .debug_abbrev  0x0000c1c7      0x142 C:/GCC4/ARM/s002/lib/armv7aLaiv/libc.a(stdio.o)
 .debug_abbrev  0x0000c309      0x395 C:/GCC4/ARM/s002/lib/armv7aLaiv/libc.a(vfprintf.o)
 .debug_abbrev  0x0000c69e      0x1f0 C:/GCC4/ARM/s002/lib/armv7aLaiv/libc.a(vsnprintf.o)
 .debug_abbrev  0x0000c88e      0x125 C:/GCC4/ARM/s002/lib/armv7aLaiv/libc.a(wsetup.o)
 .debug_abbrev  0x0000c9b3      0x140 C:/GCC4/ARM/s002/lib/armv7aLaiv/libc.a(makebuf.o)
 .debug_abbrev  0x0000caf3       0xe9 C:/GCC4/ARM/s002/lib/armv7aLaiv/libc.a(close.o)
 .debug_abbrev  0x0000cbdc      0x116 C:/GCC4/ARM/s002/lib/armv7aLaiv/libc.a(fstat.o)
 .debug_abbrev  0x0000ccf2       0xc1 C:/GCC4/ARM/s002/lib/armv7aLaiv/libc.a(lseek.o)
 .debug_abbrev  0x0000cdb3      0x104 C:/GCC4/ARM/s002/lib/armv7aLaiv/libc.a(open.o)
 .debug_abbrev  0x0000ceb7      0x330 C:/GCC4/ARM/s002/lib/armv7aLaiv/libc.a(osemu.o)
 .debug_abbrev  0x0000d1e7      0x175 C:/GCC4/ARM/s002/lib/armv7aLaiv/libc.a(perror.o)
 .debug_abbrev  0x0000d35c      0x109 C:/GCC4/ARM/s002/lib/armv7aLaiv/libc.a(read.o)
 .debug_abbrev  0x0000d465      0x132 C:/GCC4/ARM/s002/lib/armv7aLaiv/libc.a(u2dname.o)
 .debug_abbrev  0x0000d597      0x13b C:/GCC4/ARM/s002/lib/armv7aLaiv/libc.a(utime.o)
 .debug_abbrev  0x0000d6d2      0x113 C:/GCC4/ARM/s002/lib/armv7aLaiv/libc.a(write.o)
 .debug_abbrev  0x0000d7e5      0x258 C:/GCC4/ARM/s002/lib/armv7aLaiv/libc.a(_env.o)
 .debug_abbrev  0x0000da3d      0x131 C:/GCC4/ARM/s002/lib/armv7aLaiv/libc.a(exit.o)
 .debug_abbrev  0x0000db6e       0xad C:/GCC4/ARM/s002/lib/armv7aLaiv/libc.a(signal.o)
 .debug_abbrev  0x0000dc1b      0x1b1 C:/GCC4/ARM/s002/lib/armv7aLaiv/libc.a(localtime.o)
 .debug_abbrev  0x0000ddcc       0xc4 C:/GCC4/ARM/s002/lib/armv7aLaiv/libc.a(lldiv.o)
 .debug_abbrev  0x0000de90       0x8f C:/GCC4/ARM/s002/lib/armv7aLaiv/libc.a(memchr.o)
 .debug_abbrev  0x0000df1f       0x14 C:/GCC4/ARM/s002/lib/armv7aLaiv/libc.a(strnlen.o)
 .debug_abbrev  0x0000df33       0xb3 C:/GCC4/ARM/s002/lib/armv7aLaiv/libc.a(strcspn.o)
 .debug_abbrev  0x0000dfe6       0xa0 C:/GCC4/ARM/s002/lib/armv7aLaiv/libc.a(strncasecmp.o)
 .debug_abbrev  0x0000e086       0x9e C:/GCC4/ARM/s002/lib/armv7aLaiv/libc.a(strdup.o)
 .debug_abbrev  0x0000e124       0xbf C:/GCC4/ARM/s002/lib/armv7aLaiv/libc.a(ctype_.o)
 .debug_abbrev  0x0000e1e3       0xbf C:/GCC4/ARM/s002/lib/armv7aLaiv/libc.a(toupper_.o)
 .debug_abbrev  0x0000e2a2       0xbf C:/GCC4/ARM/s002/lib/armv7aLaiv/libc.a(tolower_.o)
 .debug_abbrev  0x0000e361      0x195 C:/GCC4/ARM/s002/lib/armv7aLaiv/libc.a(citrus_ctype.o)
 .debug_abbrev  0x0000e4f6      0x2ff C:/GCC4/ARM/s002/lib/armv7aLaiv/libc.a(citrus_none.o)
 .debug_abbrev  0x0000e7f5      0x43d C:/GCC4/ARM/s002/lib/armv7aLaiv/libc.a(citrus_mskanji.o)
 .debug_abbrev  0x0000ec32      0x45d C:/GCC4/ARM/s002/lib/armv7aLaiv/libc.a(citrus_utf8.o)
 .debug_abbrev  0x0000f08f      0x13c C:/GCC4/ARM/s002/lib/armv7aLaiv/libc.a(localeconv.o)
 .debug_abbrev  0x0000f1cb      0x28b C:/GCC4/ARM/s002/lib/armv7aLaiv/libc.a(multibyte_amd1.o)
 .debug_abbrev  0x0000f456       0x2a C:/GCC4/ARM/s002/lib/armv7aLaiv/libc.a(__isthreaded.o)
 .debug_abbrev  0x0000f480      0x1f1 C:/GCC4/ARM/s002/lib/armv7aLaiv/libc.a(dtoa.o)
 .debug_abbrev  0x0000f671      0x13a C:/GCC4/ARM/s002/lib/armv7aLaiv/libc.a(ldtoa.o)
 .debug_abbrev  0x0000f7ab      0x284 C:/GCC4/ARM/s002/lib/armv7aLaiv/libc.a(hdtoa.o)
 .debug_abbrev  0x0000fa2f      0x17e C:/GCC4/ARM/s002/lib/armv7aLaiv/libc.a(dmisc.o)
 .debug_abbrev  0x0000fbad      0x2a7 C:/GCC4/ARM/s002/lib/armv7aLaiv/libc.a(misc.o)
 .debug_abbrev  0x0000fe54      0x350 C:/GCC4/ARM/s002/lib/armv7aLaiv/libc.a(softfloat.o)
 .debug_abbrev  0x000101a4       0x8b C:/GCC4/ARM/s002/lib/armv7aLaiv/libc.a(__aeabi_dcmpeq.o)
 .debug_abbrev  0x0001022f       0x8b C:/GCC4/ARM/s002/lib/armv7aLaiv/libc.a(__aeabi_dcmpge.o)
 .debug_abbrev  0x000102ba       0x8b C:/GCC4/ARM/s002/lib/armv7aLaiv/libc.a(__aeabi_dcmpgt.o)
 .debug_abbrev  0x00010345       0x8b C:/GCC4/ARM/s002/lib/armv7aLaiv/libc.a(__aeabi_dcmplt.o)
 .debug_abbrev  0x000103d0      0x274 C:/GCC4/ARM/s002/lib/armv7aLaiv/libc.a(rb.o)
 .debug_abbrev  0x00010644      0x158 C:/GCC4/ARM/s002/lib/armv7aLaiv/libc.a(fflush.o)
 .debug_abbrev  0x0001079c      0x1d7 C:/GCC4/ARM/s002/lib/armv7aLaiv/libc.a(flockfile.o)
 .debug_abbrev  0x00010973      0x111 C:/GCC4/ARM/s002/lib/armv7aLaiv/libc.a(fvwrite.o)
 .debug_abbrev  0x00010a84       0xec C:/GCC4/ARM/s002/lib/armv7aLaiv/libc.a(fwalk.o)
 .debug_abbrev  0x00010b70       0xe9 C:/GCC4/ARM/s002/lib/armv7aLaiv/libc.a(creat.o)
 .debug_abbrev  0x00010c59       0xde C:/GCC4/ARM/s002/lib/armv7aLaiv/libc.a(fpclassifyd_ieee754.o)
 .debug_abbrev  0x00010d37       0x8e C:/GCC4/ARM/s002/lib/armv7aLaiv/libc.a(strcasecmp.o)
 .debug_abbrev  0x00010dc5       0xee C:/GCC4/ARM/s002/lib/armv7aLaiv/libc.a(gdtoa_locks.o)
 .debug_abbrev  0x00010eb3       0x14 C:/GCC4/ARM/s002/lib/armv7aLaiv/libgcc.a(_divsi3.o)
 .debug_abbrev  0x00010ec7       0x14 C:/GCC4/ARM/s002/lib/armv7aLaiv/libgcc.a(_arm_addsubdf3.o)
 .debug_abbrev  0x00010edb       0x14 C:/GCC4/ARM/s002/lib/armv7aLaiv/libgcc.a(_aeabi_ldivmod.o)

.debug_line     0x00000000    0x3f826
 *(.debug_line)
 .debug_line    0x00000000      0x708 C:/Users/admin/Documents/SOLID-IDE/Projects/lwip_server/Debug_tasan/exeClang_SOLID/lwip_server/lwip_server_all.o
 .debug_line    0x00000708      0x119 C:/ProgramData/KMC/SOLID/SDK/2.0/solid-os/core/lib/armv7aLaiv/CT_\libsolid_cs.a(solid_cs_asm.o)
 .debug_line    0x00000821      0x16c C:/ProgramData/KMC/SOLID/SDK/2.0/solid-os/core/lib/armv7aLaiv/CT_\libsolid_cs.a(solid_cs_main.o)
 .debug_line    0x0000098d       0x5d C:/ProgramData/KMC/SOLID/SDK/2.0/solid-os/core/lib/armv7aLaiv/CT_\libsolid_cs.a(kmc_trace_mem_dummy.o)
 .debug_line    0x000009ea      0x272 C:/ProgramData/KMC/SOLID/SDK/2.0/solid-os/core/lib/armv7aLaiv/CT_\libsolid_cs.a(solid_cs_event.o)
 .debug_line    0x00000c5c       0xc0 C:/ProgramData/KMC/SOLID/SDK/2.0/solid-os/core/lib/armv7aLaiv/CT_\libsolid_cs.a(solid_debugger.o)
 .debug_line    0x00000d1c      0xc90 C:/ProgramData/KMC/SOLID/SDK/2.0/solid-os/core/lib/armv7aLaiv/CT_\libsolid_cs.a(solid_dmac.o)
 .debug_line    0x000019ac      0x102 C:/ProgramData/KMC/SOLID/SDK/2.0/solid-os/core/lib/armv7aLaiv/CT_\libsolid_cs.a(solid_exception.o)
 .debug_line    0x00001aae      0xfd3 C:/ProgramData/KMC/SOLID/SDK/2.0/solid-os/core/lib/armv7aLaiv/CT_\libsolid_cs.a(solid_fs_base.o)
 .debug_line    0x00002a81      0x367 C:/ProgramData/KMC/SOLID/SDK/2.0/solid-os/core/lib/armv7aLaiv/CT_\libsolid_cs.a(solid_fs_mem.o)
 .debug_line    0x00002de8      0x3ee C:/ProgramData/KMC/SOLID/SDK/2.0/solid-os/core/lib/armv7aLaiv/CT_\libsolid_cs.a(solid_fs_vlink.o)
 .debug_line    0x000031d6      0xe6f C:/ProgramData/KMC/SOLID/SDK/2.0/solid-os/core/lib/armv7aLaiv/CT_\libsolid_cs.a(solid_intc.o)
 .debug_line    0x00004045      0x840 C:/ProgramData/KMC/SOLID/SDK/2.0/solid-os/core/lib/armv7aLaiv/CT_\libsolid_cs.a(solid_iores.o)
 .debug_line    0x00004885     0x1ee4 C:/ProgramData/KMC/SOLID/SDK/2.0/solid-os/core/lib/armv7aLaiv/CT_\libsolid_cs.a(solid_loader.o)
 .debug_line    0x00006769       0x95 C:/ProgramData/KMC/SOLID/SDK/2.0/solid-os/core/lib/armv7aLaiv/CT_\libsolid_cs.a(solid_loader_fixed.o)
 .debug_line    0x000067fe      0x253 C:/ProgramData/KMC/SOLID/SDK/2.0/solid-os/core/lib/armv7aLaiv/CT_\libsolid_cs.a(solid_log.o)
 .debug_line    0x00006a51      0x42c C:/ProgramData/KMC/SOLID/SDK/2.0/solid-os/core/lib/armv7aLaiv/CT_\libsolid_cs.a(solid_malloc.o)
 .debug_line    0x00006e7d     0x1825 C:/ProgramData/KMC/SOLID/SDK/2.0/solid-os/core/lib/armv7aLaiv/CT_\libsolid_cs.a(solid_mem.o)
 .debug_line    0x000086a2      0x9a9 C:/ProgramData/KMC/SOLID/SDK/2.0/solid-os/core/lib/armv7aLaiv/CT_\libsolid_cs.a(solid_mem_cache.o)
 .debug_line    0x0000904b      0x178 C:/ProgramData/KMC/SOLID/SDK/2.0/solid-os/core/lib/armv7aLaiv/CT_\libsolid_cs.a(solid_mutex.o)
 .debug_line    0x000091c3       0xe5 C:/ProgramData/KMC/SOLID/SDK/2.0/solid-os/core/lib/armv7aLaiv/CT_\libsolid_cs.a(solid_rtc.o)
 .debug_line    0x000092a8      0xa2e C:/ProgramData/KMC/SOLID/SDK/2.0/solid-os/core/lib/armv7aLaiv/CT_\libsolid_cs.a(solid_timer.o)
 .debug_line    0x00009cd6      0x3a3 C:/ProgramData/KMC/SOLID/SDK/2.0/solid-os/core/lib/armv7aLaiv/CT_\libsolid_cs.a(solid_vector.o)
 .debug_line    0x0000a079      0x1c0 C:/ProgramData/KMC/SOLID/SDK/2.0/solid-os/core/lib/armv7aLaiv/CT_\libsolid_cs.a(solid_vlink.o)
 .debug_line    0x0000a239     0x145c C:/ProgramData/KMC/SOLID/SDK/2.0/solid-os/core/lib/armv7aLaiv/CT_\libsolid_cs.a(tasan.o)
 .debug_line    0x0000b695      0x1b2 C:/ProgramData/KMC/SOLID/SDK/2.0/solid-os/core/lib/armv7aLaiv/CT_\libsolid_cs.a(tasan_interceptors.o)
 .debug_line    0x0000b847      0xdba C:/ProgramData/KMC/SOLID/SDK/2.0/solid-os/core/lib/armv7aLaiv/CT_\libsolid_cs.a(solid_mem_mmu.o)
 .debug_line    0x0000c601      0x35a C:/ProgramData/KMC/SOLID/SDK/2.0/solid-os/core/lib/armv7aLaiv/CT_\libsolid_cs.a(kmc_evttracker_core.o)
 .debug_line    0x0000c95b     0x2cd2 C:/ProgramData/KMC/SOLID/SDK/2.0/solid-os/core/lib/armv7aLaiv/CT_\libsolid_cs.a(dlmalloc.o)
 .debug_line    0x0000f62d       0xb2 C:/ProgramData/KMC/SOLID/SDK/2.0/solid-os/core/lib/armv7aLaiv/CT_\libsolid_cs.a(solid_asan.o)
 .debug_line    0x0000f6df       0x70 C:/ProgramData/KMC/SOLID/SDK/2.0/solid-os/core/lib/armv7aLaiv/CT_\libsolid_cs.a(solid_cs_args.o)
 .debug_line    0x0000f74f      0x95e C:/ProgramData/KMC/SOLID/SDK/2.0/solid-os/net/lwIP/lib/armv7aLaiv/CT_\libnet.a(sys_arch.o)
 .debug_line    0x000100ad     0x1cad C:/ProgramData/KMC/SOLID/SDK/2.0/solid-os/net/lwIP/lib/armv7aLaiv/CT_\libnet.a(sockets.o)
 .debug_line    0x00011d5a      0x42d C:/ProgramData/KMC/SOLID/SDK/2.0/solid-os/net/lwIP/lib/armv7aLaiv/CT_\libnet.a(tcpip.o)
 .debug_line    0x00012187      0x2ed C:/ProgramData/KMC/SOLID/SDK/2.0/solid-os/net/lwIP/lib/armv7aLaiv/CT_\libnet.a(def.o)
 .debug_line    0x00012474       0x6a C:/ProgramData/KMC/SOLID/SDK/2.0/solid-os/net/lwIP/lib/armv7aLaiv/CT_\libnet.a(init.o)
 .debug_line    0x000124de      0x6cc C:/ProgramData/KMC/SOLID/SDK/2.0/solid-os/net/lwIP/lib/armv7aLaiv/CT_\libnet.a(ip4.o)
 .debug_line    0x00012baa      0x474 C:/ProgramData/KMC/SOLID/SDK/2.0/solid-os/net/lwIP/lib/armv7aLaiv/CT_\libnet.a(ip4_addr.o)
 .debug_line    0x0001301e      0xb5a C:/ProgramData/KMC/SOLID/SDK/2.0/solid-os/net/lwIP/lib/armv7aLaiv/CT_\libnet.a(ip4_frag.o)
 .debug_line    0x00013b78      0x6de C:/ProgramData/KMC/SOLID/SDK/2.0/solid-os/net/lwIP/lib/armv7aLaiv/CT_\libnet.a(mem.o)
 .debug_line    0x00014256      0x37b C:/ProgramData/KMC/SOLID/SDK/2.0/solid-os/net/lwIP/lib/armv7aLaiv/CT_\libnet.a(memp.o)
 .debug_line    0x000145d1      0x536 C:/ProgramData/KMC/SOLID/SDK/2.0/solid-os/net/lwIP/lib/armv7aLaiv/CT_\libnet.a(netif.o)
 .debug_line    0x00014b07     0x10d1 C:/ProgramData/KMC/SOLID/SDK/2.0/solid-os/net/lwIP/lib/armv7aLaiv/CT_\libnet.a(pbuf.o)
 .debug_line    0x00015bd8       0xce C:/ProgramData/KMC/SOLID/SDK/2.0/solid-os/net/lwIP/lib/armv7aLaiv/CT_\libnet.a(stats.o)
 .debug_line    0x00015ca6     0x19b6 C:/ProgramData/KMC/SOLID/SDK/2.0/solid-os/net/lwIP/lib/armv7aLaiv/CT_\libnet.a(tcp.o)
 .debug_line    0x0001765c     0x1bda C:/ProgramData/KMC/SOLID/SDK/2.0/solid-os/net/lwIP/lib/armv7aLaiv/CT_\libnet.a(tcp_in.o)
 .debug_line    0x00019236     0x157b C:/ProgramData/KMC/SOLID/SDK/2.0/solid-os/net/lwIP/lib/armv7aLaiv/CT_\libnet.a(tcp_out.o)
 .debug_line    0x0001a7b1      0x53b C:/ProgramData/KMC/SOLID/SDK/2.0/solid-os/net/lwIP/lib/armv7aLaiv/CT_\libnet.a(timeouts.o)
 .debug_line    0x0001acec      0x9b0 C:/ProgramData/KMC/SOLID/SDK/2.0/solid-os/net/lwIP/lib/armv7aLaiv/CT_\libnet.a(udp.o)
 .debug_line    0x0001b69c      0x2a0 C:/ProgramData/KMC/SOLID/SDK/2.0/solid-os/net/lwIP/lib/armv7aLaiv/CT_\libnet.a(ethernet.o)
 .debug_line    0x0001b93c      0x364 C:/ProgramData/KMC/SOLID/SDK/2.0/solid-os/net/lwIP/lib/armv7aLaiv/CT_\libnet.a(solid_net_if.o)
 .debug_line    0x0001bca0       0x9e C:/ProgramData/KMC/SOLID/SDK/2.0/solid-os/net/lwIP/lib/armv7aLaiv/CT_\libnet.a(solid_net_registerapi.o)
 .debug_line    0x0001bd3e      0x494 C:/ProgramData/KMC/SOLID/SDK/2.0/solid-os/net/lwIP/lib/armv7aLaiv/CT_\libnet.a(impl_net_stack.o)
 .debug_line    0x0001c1d2       0xcf C:/ProgramData/KMC/SOLID/SDK/2.0/solid-os/net/lwIP/lib/armv7aLaiv/CT_\libnet.a(impl_net_stack_errno.o)
 .debug_line    0x0001c2a1      0x2a3 C:/ProgramData/KMC/SOLID/SDK/2.0/solid-os/net/lwIP/lib/armv7aLaiv/CT_\libnet.a(ethernetif.o)
 .debug_line    0x0001c544      0x8a0 C:/ProgramData/KMC/SOLID/SDK/2.0/solid-os/net/lwIP/lib/armv7aLaiv/CT_\libnet.a(api_lib.o)
 .debug_line    0x0001cde4     0x1964 C:/ProgramData/KMC/SOLID/SDK/2.0/solid-os/net/lwIP/lib/armv7aLaiv/CT_\libnet.a(api_msg.o)
 .debug_line    0x0001e748      0x102 C:/ProgramData/KMC/SOLID/SDK/2.0/solid-os/net/lwIP/lib/armv7aLaiv/CT_\libnet.a(err.o)
 .debug_line    0x0001e84a      0x375 C:/ProgramData/KMC/SOLID/SDK/2.0/solid-os/net/lwIP/lib/armv7aLaiv/CT_\libnet.a(netbuf.o)
 .debug_line    0x0001ebbf      0x490 C:/ProgramData/KMC/SOLID/SDK/2.0/solid-os/net/lwIP/lib/armv7aLaiv/CT_\libnet.a(netdb.o)
 .debug_line    0x0001f04f      0xcdb C:/ProgramData/KMC/SOLID/SDK/2.0/solid-os/net/lwIP/lib/armv7aLaiv/CT_\libnet.a(dns.o)
 .debug_line    0x0001fd2a      0x491 C:/ProgramData/KMC/SOLID/SDK/2.0/solid-os/net/lwIP/lib/armv7aLaiv/CT_\libnet.a(inet_chksum.o)
 .debug_line    0x000201bb      0x10f C:/ProgramData/KMC/SOLID/SDK/2.0/solid-os/net/lwIP/lib/armv7aLaiv/CT_\libnet.a(ip.o)
 .debug_line    0x000202ca     0x1bd6 C:/ProgramData/KMC/SOLID/SDK/2.0/solid-os/net/lwIP/lib/armv7aLaiv/CT_\libnet.a(dhcp.o)
 .debug_line    0x00021ea0      0xc98 C:/ProgramData/KMC/SOLID/SDK/2.0/solid-os/net/lwIP/lib/armv7aLaiv/CT_\libnet.a(etharp.o)
 .debug_line    0x00022b38      0x49d C:/ProgramData/KMC/SOLID/SDK/2.0/solid-os/net/lwIP/lib/armv7aLaiv/CT_\libnet.a(icmp.o)
 .debug_line    0x00022fd5      0xb53 C:/ProgramData/KMC/SOLID/SDK/2.0/solid-os/rtos/toppers_asp3/lib/armv7aLaiv/CT__\libkernel.a(dataqueue.o)
 .debug_line    0x00023b28      0x735 C:/ProgramData/KMC/SOLID/SDK/2.0/solid-os/rtos/toppers_asp3/lib/armv7aLaiv/CT__\libkernel.a(interrupt.o)
 .debug_line    0x0002425d      0x2e8 C:/ProgramData/KMC/SOLID/SDK/2.0/solid-os/rtos/toppers_asp3/lib/armv7aLaiv/CT__\libkernel.a(vasyslog.o)
 .debug_line    0x00024545      0x647 C:/ProgramData/KMC/SOLID/SDK/2.0/solid-os/rtos/toppers_asp3/lib/armv7aLaiv/CT__\libkernel.a(semaphore.o)
 .debug_line    0x00024b8c      0x2dc C:/ProgramData/KMC/SOLID/SDK/2.0/solid-os/rtos/toppers_asp3/lib/armv7aLaiv/CT__\libkernel.a(startup.o)
 .debug_line    0x00024e68      0x543 C:/ProgramData/KMC/SOLID/SDK/2.0/solid-os/rtos/toppers_asp3/lib/armv7aLaiv/CT__\libkernel.a(sys_manage.o)
 .debug_line    0x000253ab      0x8f6 C:/ProgramData/KMC/SOLID/SDK/2.0/solid-os/rtos/toppers_asp3/lib/armv7aLaiv/CT__\libkernel.a(task.o)
 .debug_line    0x00025ca1      0x19c C:/ProgramData/KMC/SOLID/SDK/2.0/solid-os/rtos/toppers_asp3/lib/armv7aLaiv/CT__\libkernel.a(taskhook.o)
 .debug_line    0x00025e3d      0x5e8 C:/ProgramData/KMC/SOLID/SDK/2.0/solid-os/rtos/toppers_asp3/lib/armv7aLaiv/CT__\libkernel.a(task_manage.o)
 .debug_line    0x00026425      0x70c C:/ProgramData/KMC/SOLID/SDK/2.0/solid-os/rtos/toppers_asp3/lib/armv7aLaiv/CT__\libkernel.a(time_event.o)
 .debug_line    0x00026b31      0x5dc C:/ProgramData/KMC/SOLID/SDK/2.0/solid-os/rtos/toppers_asp3/lib/armv7aLaiv/CT__\libkernel.a(wait.o)
 .debug_line    0x0002710d       0xbd C:/ProgramData/KMC/SOLID/SDK/2.0/solid-os/rtos/toppers_asp3/lib/armv7aLaiv/CT__\libkernel.a(solid_rtos_registerapi.o)
 .debug_line    0x000271ca       0xf1 C:/ProgramData/KMC/SOLID/SDK/2.0/solid-os/rtos/toppers_asp3/lib/armv7aLaiv/CT__\libkernel.a(target_fput_log.o)
 .debug_line    0x000272bb      0x3b8 C:/ProgramData/KMC/SOLID/SDK/2.0/solid-os/rtos/toppers_asp3/lib/armv7aLaiv/CT__\libkernel.a(target_intc_impl.o)
 .debug_line    0x00027673      0x255 C:/ProgramData/KMC/SOLID/SDK/2.0/solid-os/rtos/toppers_asp3/lib/armv7aLaiv/CT__\libkernel.a(target_timer_impl.o)
 .debug_line    0x000278c8      0x32a C:/ProgramData/KMC/SOLID/SDK/2.0/solid-os/rtos/toppers_asp3/lib/armv7aLaiv/CT__\libkernel.a(kmc_evttracker_rtos.o)
 .debug_line    0x00027bf2      0x559 C:/ProgramData/KMC/SOLID/SDK/2.0/solid-os/rtos/toppers_asp3/lib/armv7aLaiv/CT__\libkernel.a(rtos_prof.o)
 .debug_line    0x0002814b       0xef C:/ProgramData/KMC/SOLID/SDK/2.0/solid-os/rtos/toppers_asp3/lib/armv7aLaiv/CT__\libkernel.a(core_support.o)
 .debug_line    0x0002823a      0x176 C:/ProgramData/KMC/SOLID/SDK/2.0/solid-os/rtos/toppers_asp3/lib/armv7aLaiv/CT__\libkernel.a(kernel_cfg_intl.o)
 .debug_line    0x000283b0      0x4bb C:/ProgramData/KMC/SOLID/SDK/2.0/solid-os/rtos/toppers_asp3/lib/armv7aLaiv/CT__\libkernel.a(alarm.o)
 .debug_line    0x0002886b      0x2e2 C:/ProgramData/KMC/SOLID/SDK/2.0/solid-os/rtos/toppers_asp3/lib/armv7aLaiv/CT__\libkernel.a(core_kernel_impl.o)
 .debug_line    0x00028b4d      0x3c6 C:/ProgramData/KMC/SOLID/SDK/2.0/solid-os/rtos/toppers_asp3/lib/armv7aLaiv/CT__\libkernel.a(cyclic.o)
 .debug_line    0x00028f13      0x7d9 C:/ProgramData/KMC/SOLID/SDK/2.0/solid-os/rtos/toppers_asp3/lib/armv7aLaiv/CT__\libkernel.a(eventflag.o)
 .debug_line    0x000296ec      0x1ec C:/ProgramData/KMC/SOLID/SDK/2.0/solid-os/rtos/toppers_asp3/lib/armv7aLaiv/CT__\libkernel.a(exception.o)
 .debug_line    0x000298d8      0x7ff C:/ProgramData/KMC/SOLID/SDK/2.0/solid-os/rtos/toppers_asp3/lib/armv7aLaiv/CT__\libkernel.a(mempfix.o)
 .debug_line    0x0002a0d7      0x2f6 C:/ProgramData/KMC/SOLID/SDK/2.0/solid-os/rtos/toppers_asp3/lib/armv7aLaiv/CT__\libkernel.a(tSysLog.o)
 .debug_line    0x0002a3cd      0xa9d C:/ProgramData/KMC/SOLID/SDK/2.0/solid-os/rtos/toppers_asp3/lib/armv7aLaiv/CT__\libkernel.a(mutex.o)
 .debug_line    0x0002ae6a      0xb45 C:/ProgramData/KMC/SOLID/SDK/2.0/solid-os/rtos/toppers_asp3/lib/armv7aLaiv/CT__\libkernel.a(pridataq.o)
 .debug_line    0x0002b9af      0x453 C:/ProgramData/KMC/SOLID/SDK/2.0/solid-os/rtos/toppers_asp3/lib/armv7aLaiv/CT__\libkernel.a(task_refer.o)
 .debug_line    0x0002be02      0x79d C:/ProgramData/KMC/SOLID/SDK/2.0/solid-os/rtos/toppers_asp3/lib/armv7aLaiv/CT__\libkernel.a(task_sync.o)
 .debug_line    0x0002c59f      0x49c C:/ProgramData/KMC/SOLID/SDK/2.0/solid-os/rtos/toppers_asp3/lib/armv7aLaiv/CT__\libkernel.a(task_term.o)
 .debug_line    0x0002ca3b      0x330 C:/ProgramData/KMC/SOLID/SDK/2.0/solid-os/rtos/toppers_asp3/lib/armv7aLaiv/CT__\libkernel.a(time_manage.o)
 .debug_line    0x0002cd6b      0x3b8 C:/ProgramData/KMC/SOLID/SDK/2.0/solid-os/rtos/toppers_asp3/lib/armv7aLaiv/CT__\libkernel.a(log_output.o)
 .debug_line    0x0002d123      0x129 C:/Users/admin/Documents/SOLID-IDE/Projects/lwip_server/Debug_tasan/exeClang_SOLID/\libbsp.a(impl_cs_event.o)
 .debug_line    0x0002d24c      0x61c C:/Users/admin/Documents/SOLID-IDE/Projects/lwip_server/Debug_tasan/exeClang_SOLID/\libbsp.a(impl_dmac.o)
 .debug_line    0x0002d868      0x125 C:/Users/admin/Documents/SOLID-IDE/Projects/lwip_server/Debug_tasan/exeClang_SOLID/\libbsp.a(impl_iores.o)
 .debug_line    0x0002d98d      0x1ca C:/Users/admin/Documents/SOLID-IDE/Projects/lwip_server/Debug_tasan/exeClang_SOLID/\libbsp.a(impl_log.o)
 .debug_line    0x0002db57      0xe4a C:/Users/admin/Documents/SOLID-IDE/Projects/lwip_server/Debug_tasan/exeClang_SOLID/\libbsp.a(impl_net_dev_ether.o)
 .debug_line    0x0002e9a1      0x635 C:/Users/admin/Documents/SOLID-IDE/Projects/lwip_server/Debug_tasan/exeClang_SOLID/\libbsp.a(impl_net_dev_get_macaddr.o)
 .debug_line    0x0002efd6      0x111 C:/Users/admin/Documents/SOLID-IDE/Projects/lwip_server/Debug_tasan/exeClang_SOLID/\libbsp.a(impl_net_dev_getconfig.o)
 .debug_line    0x0002f0e7      0x343 C:/Users/admin/Documents/SOLID-IDE/Projects/lwip_server/Debug_tasan/exeClang_SOLID/\libbsp.a(impl_rtc.o)
 .debug_line    0x0002f42a      0x26e C:/Users/admin/Documents/SOLID-IDE/Projects/lwip_server/Debug_tasan/exeClang_SOLID/\libbsp.a(impl_timer.o)
 .debug_line    0x0002f698      0xdc8 C:/Users/admin/Documents/SOLID-IDE/Projects/lwip_server/Debug_tasan/exeClang_SOLID/\libbsp.a(rtc.o)
 .debug_line    0x00030460      0x26e C:/Users/admin/Documents/SOLID-IDE/Projects/lwip_server/Debug_tasan/exeClang_SOLID/\libbsp.a(rtc_userdef.o)
 .debug_line    0x000306ce      0x130 C:/Users/admin/Documents/SOLID-IDE/Projects/lwip_server/Debug_tasan/exeClang_SOLID/\libbsp.a(bsp_globals.o)
 .debug_line    0x000307fe      0x29a C:/Users/admin/Documents/SOLID-IDE/Projects/lwip_server/Debug_tasan/exeClang_SOLID/\libbsp.a(rza_io_regrw.o)
 .debug_line    0x00030a98      0x39f C:/GCC4/ARM/s002/lib/armv7aLaiv\libstdc++.a(class_type_info.o)
 .debug_line    0x00030e37      0x247 C:/GCC4/ARM/s002/lib/armv7aLaiv\libstdc++.a(new_handler.o)
 .debug_line    0x0003107e      0x231 C:/GCC4/ARM/s002/lib/armv7aLaiv\libstdc++.a(del_ops.o)
 .debug_line    0x000312af      0x368 C:/GCC4/ARM/s002/lib/armv7aLaiv\libstdc++.a(si_class_type_info.o)
 .debug_line    0x00031617      0x324 C:/GCC4/ARM/s002/lib/armv7aLaiv\libstdc++.a(del_op.o)
 .debug_line    0x0003193b      0x33b C:/GCC4/ARM/s002/lib/armv7aLaiv\libstdc++.a(tinfo.o)
 .debug_line    0x00031c76       0xbb C:/GCC4/ARM/s002/lib/armv7aLaiv/libgcc.a(_udivsi3.o)
 .debug_line    0x00031d31       0x9e C:/GCC4/ARM/s002/lib/armv7aLaiv/libgcc.a(_dvmd_tls.o)
 .debug_line    0x00031dcf       0x9e C:/GCC4/ARM/s002/lib/armv7aLaiv/libgcc.a(_aeabi_uldivmod.o)
 .debug_line    0x00031e6d      0x319 C:/GCC4/ARM/s002/lib/armv7aLaiv/libgcc.a(_udivmoddi4.o)
 .debug_line    0x00032186      0x7e1 C:/GCC4/ARM/s002/lib/armv7aLaiv/libgcc.a(unwind-arm.o)
 .debug_line    0x00032967       0xeb C:/GCC4/ARM/s002/lib/armv7aLaiv/libgcc.a(libunwind.o)
 .debug_line    0x00032a52      0x263 C:/GCC4/ARM/s002/lib/armv7aLaiv/libgcc.a(pr-support.o)
 .debug_line    0x00032cb5      0x243 C:/GCC4/ARM/s002/lib/armv7aLaiv/libc.a(_m_init.o)
 .debug_line    0x00032ef8      0x137 C:/GCC4/ARM/s002/lib/armv7aLaiv/libc.a(abort.o)
 .debug_line    0x0003302f       0xe3 C:/GCC4/ARM/s002/lib/armv7aLaiv/libc.a(errno.o)
 .debug_line    0x00033112      0x11e C:/GCC4/ARM/s002/lib/armv7aLaiv/libc.a(atoi.o)
 .debug_line    0x00033230      0x131 C:/GCC4/ARM/s002/lib/armv7aLaiv/libc.a(rand.o)
 .debug_line    0x00033361      0x26e C:/GCC4/ARM/s002/lib/armv7aLaiv/libc.a(strtol.o)
 .debug_line    0x000335cf      0x22e C:/GCC4/ARM/s002/lib/armv7aLaiv/libc.a(strtoul.o)
 .debug_line    0x000337fd      0x28e C:/GCC4/ARM/s002/lib/armv7aLaiv/libc.a(atexit.o)
 .debug_line    0x00033a8b       0xbd C:/GCC4/ARM/s002/lib/armv7aLaiv/libc.a(memcmp.o)
 .debug_line    0x00033b48      0x123 C:/GCC4/ARM/s002/lib/armv7aLaiv/libc.a(memcpy.o)
 .debug_line    0x00033c6b      0x1be C:/GCC4/ARM/s002/lib/armv7aLaiv/libc.a(memmove.o)
 .debug_line    0x00033e29       0xdf C:/GCC4/ARM/s002/lib/armv7aLaiv/libc.a(memset.o)
 .debug_line    0x00033f08       0xf2 C:/GCC4/ARM/s002/lib/armv7aLaiv/libc.a(strcpy.o)
 .debug_line    0x00033ffa      0x11e C:/GCC4/ARM/s002/lib/armv7aLaiv/libc.a(strncpy.o)
 .debug_line    0x00034118       0x91 C:/GCC4/ARM/s002/lib/armv7aLaiv/libc.a(strcmp.o)
 .debug_line    0x000341a9       0x99 C:/GCC4/ARM/s002/lib/armv7aLaiv/libc.a(strncmp.o)
 .debug_line    0x00034242       0xa9 C:/GCC4/ARM/s002/lib/armv7aLaiv/libc.a(strlen.o)
 .debug_line    0x000342eb      0x3dc C:/GCC4/ARM/s002/lib/armv7aLaiv/libc.a(isctype.o)
 .debug_line    0x000346c7      0x1b7 C:/GCC4/ARM/s002/lib/armv7aLaiv/libc.a(global_locale.o)
 .debug_line    0x0003487e      0x1fa C:/GCC4/ARM/s002/lib/armv7aLaiv/libc.a(runetable.o)
 .debug_line    0x00034a78       0xa1 C:/GCC4/ARM/s002/lib/armv7aLaiv/libc.a(thread-stub-init.o)
 .debug_line    0x00034b19      0x35a C:/GCC4/ARM/s002/lib/armv7aLaiv/libc.a(thread-stub.o)
 .debug_line    0x00034e73       0x84 C:/GCC4/ARM/s002/lib/armv7aLaiv/libc.a(ssp_init.o)
 .debug_line    0x00034ef7      0x2f3 C:/GCC4/ARM/s002/lib/armv7aLaiv/libc.a(findfp.o)
 .debug_line    0x000351ea      0x174 C:/GCC4/ARM/s002/lib/armv7aLaiv/libc.a(fprintf.o)
 .debug_line    0x0003535e      0x215 C:/GCC4/ARM/s002/lib/armv7aLaiv/libc.a(stdio.o)
 .debug_line    0x00035573      0xff6 C:/GCC4/ARM/s002/lib/armv7aLaiv/libc.a(vfprintf.o)
 .debug_line    0x00036569      0x341 C:/GCC4/ARM/s002/lib/armv7aLaiv/libc.a(vsnprintf.o)
 .debug_line    0x000368aa      0x263 C:/GCC4/ARM/s002/lib/armv7aLaiv/libc.a(wsetup.o)
 .debug_line    0x00036b0d      0x234 C:/GCC4/ARM/s002/lib/armv7aLaiv/libc.a(makebuf.o)
 .debug_line    0x00036d41      0x12d C:/GCC4/ARM/s002/lib/armv7aLaiv/libc.a(close.o)
 .debug_line    0x00036e6e      0x1a1 C:/GCC4/ARM/s002/lib/armv7aLaiv/libc.a(fstat.o)
 .debug_line    0x0003700f      0x152 C:/GCC4/ARM/s002/lib/armv7aLaiv/libc.a(lseek.o)
 .debug_line    0x00037161      0x16e C:/GCC4/ARM/s002/lib/armv7aLaiv/libc.a(open.o)
 .debug_line    0x000372cf      0x9a0 C:/GCC4/ARM/s002/lib/armv7aLaiv/libc.a(osemu.o)
 .debug_line    0x00037c6f      0x185 C:/GCC4/ARM/s002/lib/armv7aLaiv/libc.a(perror.o)
 .debug_line    0x00037df4      0x11f C:/GCC4/ARM/s002/lib/armv7aLaiv/libc.a(read.o)
 .debug_line    0x00037f13      0x1e2 C:/GCC4/ARM/s002/lib/armv7aLaiv/libc.a(u2dname.o)
 .debug_line    0x000380f5      0x199 C:/GCC4/ARM/s002/lib/armv7aLaiv/libc.a(utime.o)
 .debug_line    0x0003828e      0x12d C:/GCC4/ARM/s002/lib/armv7aLaiv/libc.a(write.o)
 .debug_line    0x000383bb      0x3af C:/GCC4/ARM/s002/lib/armv7aLaiv/libc.a(_env.o)
 .debug_line    0x0003876a      0x17f C:/GCC4/ARM/s002/lib/armv7aLaiv/libc.a(exit.o)
 .debug_line    0x000388e9       0xd8 C:/GCC4/ARM/s002/lib/armv7aLaiv/libc.a(signal.o)
 .debug_line    0x000389c1      0x225 C:/GCC4/ARM/s002/lib/armv7aLaiv/libc.a(localtime.o)
 .debug_line    0x00038be6      0x12b C:/GCC4/ARM/s002/lib/armv7aLaiv/libc.a(lldiv.o)
 .debug_line    0x00038d11       0xd3 C:/GCC4/ARM/s002/lib/armv7aLaiv/libc.a(memchr.o)
 .debug_line    0x00038de4       0xb5 C:/GCC4/ARM/s002/lib/armv7aLaiv/libc.a(strnlen.o)
 .debug_line    0x00038e99      0x148 C:/GCC4/ARM/s002/lib/armv7aLaiv/libc.a(strcspn.o)
 .debug_line    0x00038fe1      0x132 C:/GCC4/ARM/s002/lib/armv7aLaiv/libc.a(strncasecmp.o)
 .debug_line    0x00039113      0x131 C:/GCC4/ARM/s002/lib/armv7aLaiv/libc.a(strdup.o)
 .debug_line    0x00039244       0xe0 C:/GCC4/ARM/s002/lib/armv7aLaiv/libc.a(ctype_.o)
 .debug_line    0x00039324       0xe0 C:/GCC4/ARM/s002/lib/armv7aLaiv/libc.a(toupper_.o)
 .debug_line    0x00039404       0xe0 C:/GCC4/ARM/s002/lib/armv7aLaiv/libc.a(tolower_.o)
 .debug_line    0x000394e4      0x22e C:/GCC4/ARM/s002/lib/armv7aLaiv/libc.a(citrus_ctype.o)
 .debug_line    0x00039712      0x582 C:/GCC4/ARM/s002/lib/armv7aLaiv/libc.a(citrus_none.o)
 .debug_line    0x00039c94      0x9f4 C:/GCC4/ARM/s002/lib/armv7aLaiv/libc.a(citrus_mskanji.o)
 .debug_line    0x0003a688      0x9f9 C:/GCC4/ARM/s002/lib/armv7aLaiv/libc.a(citrus_utf8.o)
 .debug_line    0x0003b081      0x16a C:/GCC4/ARM/s002/lib/armv7aLaiv/libc.a(localeconv.o)
 .debug_line    0x0003b1eb      0x5b8 C:/GCC4/ARM/s002/lib/armv7aLaiv/libc.a(multibyte_amd1.o)
 .debug_line    0x0003b7a3       0x7c C:/GCC4/ARM/s002/lib/armv7aLaiv/libc.a(__isthreaded.o)
 .debug_line    0x0003b81f      0x586 C:/GCC4/ARM/s002/lib/armv7aLaiv/libc.a(dtoa.o)
 .debug_line    0x0003bda5      0x20c C:/GCC4/ARM/s002/lib/armv7aLaiv/libc.a(ldtoa.o)
 .debug_line    0x0003bfb1      0x2b4 C:/GCC4/ARM/s002/lib/armv7aLaiv/libc.a(hdtoa.o)
 .debug_line    0x0003c265      0x2bb C:/GCC4/ARM/s002/lib/armv7aLaiv/libc.a(dmisc.o)
 .debug_line    0x0003c520      0x547 C:/GCC4/ARM/s002/lib/armv7aLaiv/libc.a(misc.o)
 .debug_line    0x0003ca67     0x12ee C:/GCC4/ARM/s002/lib/armv7aLaiv/libc.a(softfloat.o)
 .debug_line    0x0003dd55      0x14a C:/GCC4/ARM/s002/lib/armv7aLaiv/libc.a(__aeabi_dcmpeq.o)
 .debug_line    0x0003de9f      0x150 C:/GCC4/ARM/s002/lib/armv7aLaiv/libc.a(__aeabi_dcmpge.o)
 .debug_line    0x0003dfef      0x150 C:/GCC4/ARM/s002/lib/armv7aLaiv/libc.a(__aeabi_dcmpgt.o)
 .debug_line    0x0003e13f      0x14a C:/GCC4/ARM/s002/lib/armv7aLaiv/libc.a(__aeabi_dcmplt.o)
 .debug_line    0x0003e289      0x385 C:/GCC4/ARM/s002/lib/armv7aLaiv/libc.a(rb.o)
 .debug_line    0x0003e60e      0x269 C:/GCC4/ARM/s002/lib/armv7aLaiv/libc.a(fflush.o)
 .debug_line    0x0003e877      0x2ea C:/GCC4/ARM/s002/lib/armv7aLaiv/libc.a(flockfile.o)
 .debug_line    0x0003eb61      0x282 C:/GCC4/ARM/s002/lib/armv7aLaiv/libc.a(fvwrite.o)
 .debug_line    0x0003ede3      0x1bf C:/GCC4/ARM/s002/lib/armv7aLaiv/libc.a(fwalk.o)
 .debug_line    0x0003efa2      0x144 C:/GCC4/ARM/s002/lib/armv7aLaiv/libc.a(creat.o)
 .debug_line    0x0003f0e6      0x147 C:/GCC4/ARM/s002/lib/armv7aLaiv/libc.a(fpclassifyd_ieee754.o)
 .debug_line    0x0003f22d       0xdf C:/GCC4/ARM/s002/lib/armv7aLaiv/libc.a(strcasecmp.o)
 .debug_line    0x0003f30c      0x1f9 C:/GCC4/ARM/s002/lib/armv7aLaiv/libc.a(gdtoa_locks.o)
 .debug_line    0x0003f505       0xc7 C:/GCC4/ARM/s002/lib/armv7aLaiv/libgcc.a(_divsi3.o)
 .debug_line    0x0003f5cc      0x19e C:/GCC4/ARM/s002/lib/armv7aLaiv/libgcc.a(_arm_addsubdf3.o)
 .debug_line    0x0003f76a       0xbc C:/GCC4/ARM/s002/lib/armv7aLaiv/libgcc.a(_aeabi_ldivmod.o)

.debug_frame    0x00000000     0xeea0
 *(.debug_frame)
 .debug_frame   0x00000000      0x150 C:/Users/admin/Documents/SOLID-IDE/Projects/lwip_server/Debug_tasan/exeClang_SOLID/lwip_server/lwip_server_all.o
 .debug_frame   0x00000150       0x84 C:/ProgramData/KMC/SOLID/SDK/2.0/solid-os/core/lib/armv7aLaiv/CT_\libsolid_cs.a(solid_cs_main.o)
 .debug_frame   0x000001d4       0x20 C:/ProgramData/KMC/SOLID/SDK/2.0/solid-os/core/lib/armv7aLaiv/CT_\libsolid_cs.a(kmc_trace_mem_dummy.o)
 .debug_frame   0x000001f4       0x4c C:/ProgramData/KMC/SOLID/SDK/2.0/solid-os/core/lib/armv7aLaiv/CT_\libsolid_cs.a(solid_cs_event.o)
 .debug_frame   0x00000240       0x68 C:/ProgramData/KMC/SOLID/SDK/2.0/solid-os/core/lib/armv7aLaiv/CT_\libsolid_cs.a(solid_debugger.o)
 .debug_frame   0x000002a8      0x4a0 C:/ProgramData/KMC/SOLID/SDK/2.0/solid-os/core/lib/armv7aLaiv/CT_\libsolid_cs.a(solid_dmac.o)
 .debug_frame   0x00000748       0xc4 C:/ProgramData/KMC/SOLID/SDK/2.0/solid-os/core/lib/armv7aLaiv/CT_\libsolid_cs.a(solid_exception.o)
 .debug_frame   0x0000080c      0x460 C:/ProgramData/KMC/SOLID/SDK/2.0/solid-os/core/lib/armv7aLaiv/CT_\libsolid_cs.a(solid_fs_base.o)
 .debug_frame   0x00000c6c      0x110 C:/ProgramData/KMC/SOLID/SDK/2.0/solid-os/core/lib/armv7aLaiv/CT_\libsolid_cs.a(solid_fs_mem.o)
 .debug_frame   0x00000d7c      0x17c C:/ProgramData/KMC/SOLID/SDK/2.0/solid-os/core/lib/armv7aLaiv/CT_\libsolid_cs.a(solid_fs_vlink.o)
 .debug_frame   0x00000ef8      0x67c C:/ProgramData/KMC/SOLID/SDK/2.0/solid-os/core/lib/armv7aLaiv/CT_\libsolid_cs.a(solid_intc.o)
 .debug_frame   0x00001574      0x24c C:/ProgramData/KMC/SOLID/SDK/2.0/solid-os/core/lib/armv7aLaiv/CT_\libsolid_cs.a(solid_iores.o)
 .debug_frame   0x000017c0      0xb1c C:/ProgramData/KMC/SOLID/SDK/2.0/solid-os/core/lib/armv7aLaiv/CT_\libsolid_cs.a(solid_loader.o)
 .debug_frame   0x000022dc       0x2c C:/ProgramData/KMC/SOLID/SDK/2.0/solid-os/core/lib/armv7aLaiv/CT_\libsolid_cs.a(solid_loader_fixed.o)
 .debug_frame   0x00002308      0x13c C:/ProgramData/KMC/SOLID/SDK/2.0/solid-os/core/lib/armv7aLaiv/CT_\libsolid_cs.a(solid_log.o)
 .debug_frame   0x00002444      0x180 C:/ProgramData/KMC/SOLID/SDK/2.0/solid-os/core/lib/armv7aLaiv/CT_\libsolid_cs.a(solid_malloc.o)
 .debug_frame   0x000025c4      0x8f4 C:/ProgramData/KMC/SOLID/SDK/2.0/solid-os/core/lib/armv7aLaiv/CT_\libsolid_cs.a(solid_mem.o)
 .debug_frame   0x00002eb8      0x2b8 C:/ProgramData/KMC/SOLID/SDK/2.0/solid-os/core/lib/armv7aLaiv/CT_\libsolid_cs.a(solid_mem_cache.o)
 .debug_frame   0x00003170       0xb8 C:/ProgramData/KMC/SOLID/SDK/2.0/solid-os/core/lib/armv7aLaiv/CT_\libsolid_cs.a(solid_mutex.o)
 .debug_frame   0x00003228       0x64 C:/ProgramData/KMC/SOLID/SDK/2.0/solid-os/core/lib/armv7aLaiv/CT_\libsolid_cs.a(solid_rtc.o)
 .debug_frame   0x0000328c      0x430 C:/ProgramData/KMC/SOLID/SDK/2.0/solid-os/core/lib/armv7aLaiv/CT_\libsolid_cs.a(solid_timer.o)
 .debug_frame   0x000036bc       0xe8 C:/ProgramData/KMC/SOLID/SDK/2.0/solid-os/core/lib/armv7aLaiv/CT_\libsolid_cs.a(solid_vector.o)
 .debug_frame   0x000037a4       0xfc C:/ProgramData/KMC/SOLID/SDK/2.0/solid-os/core/lib/armv7aLaiv/CT_\libsolid_cs.a(solid_vlink.o)
 .debug_frame   0x000038a0      0x660 C:/ProgramData/KMC/SOLID/SDK/2.0/solid-os/core/lib/armv7aLaiv/CT_\libsolid_cs.a(tasan.o)
 .debug_frame   0x00003f00       0x9c C:/ProgramData/KMC/SOLID/SDK/2.0/solid-os/core/lib/armv7aLaiv/CT_\libsolid_cs.a(tasan_interceptors.o)
 .debug_frame   0x00003f9c      0x220 C:/ProgramData/KMC/SOLID/SDK/2.0/solid-os/core/lib/armv7aLaiv/CT_\libsolid_cs.a(solid_mem_mmu.o)
 .debug_frame   0x000041bc      0x104 C:/ProgramData/KMC/SOLID/SDK/2.0/solid-os/core/lib/armv7aLaiv/CT_\libsolid_cs.a(kmc_evttracker_core.o)
 .debug_frame   0x000042c0      0x500 C:/ProgramData/KMC/SOLID/SDK/2.0/solid-os/core/lib/armv7aLaiv/CT_\libsolid_cs.a(dlmalloc.o)
 .debug_frame   0x000047c0       0x44 C:/ProgramData/KMC/SOLID/SDK/2.0/solid-os/core/lib/armv7aLaiv/CT_\libsolid_cs.a(solid_asan.o)
 .debug_frame   0x00004804      0x25c C:/ProgramData/KMC/SOLID/SDK/2.0/solid-os/net/lwIP/lib/armv7aLaiv/CT_\libnet.a(sys_arch.o)
 .debug_frame   0x00004a60      0x3c4 C:/ProgramData/KMC/SOLID/SDK/2.0/solid-os/net/lwIP/lib/armv7aLaiv/CT_\libnet.a(sockets.o)
 .debug_frame   0x00004e24      0x17c C:/ProgramData/KMC/SOLID/SDK/2.0/solid-os/net/lwIP/lib/armv7aLaiv/CT_\libnet.a(tcpip.o)
 .debug_frame   0x00004fa0       0xa0 C:/ProgramData/KMC/SOLID/SDK/2.0/solid-os/net/lwIP/lib/armv7aLaiv/CT_\libnet.a(def.o)
 .debug_frame   0x00005040       0x2c C:/ProgramData/KMC/SOLID/SDK/2.0/solid-os/net/lwIP/lib/armv7aLaiv/CT_\libnet.a(init.o)
 .debug_frame   0x0000506c       0xac C:/ProgramData/KMC/SOLID/SDK/2.0/solid-os/net/lwIP/lib/armv7aLaiv/CT_\libnet.a(ip4.o)
 .debug_frame   0x00005118       0xb0 C:/ProgramData/KMC/SOLID/SDK/2.0/solid-os/net/lwIP/lib/armv7aLaiv/CT_\libnet.a(ip4_addr.o)
 .debug_frame   0x000051c8      0x140 C:/ProgramData/KMC/SOLID/SDK/2.0/solid-os/net/lwIP/lib/armv7aLaiv/CT_\libnet.a(ip4_frag.o)
 .debug_frame   0x00005308       0xb0 C:/ProgramData/KMC/SOLID/SDK/2.0/solid-os/net/lwIP/lib/armv7aLaiv/CT_\libnet.a(mem.o)
 .debug_frame   0x000053b8       0xe8 C:/ProgramData/KMC/SOLID/SDK/2.0/solid-os/net/lwIP/lib/armv7aLaiv/CT_\libnet.a(memp.o)
 .debug_frame   0x000054a0      0x1a0 C:/ProgramData/KMC/SOLID/SDK/2.0/solid-os/net/lwIP/lib/armv7aLaiv/CT_\libnet.a(netif.o)
 .debug_frame   0x00005640      0x33c C:/ProgramData/KMC/SOLID/SDK/2.0/solid-os/net/lwIP/lib/armv7aLaiv/CT_\libnet.a(pbuf.o)
 .debug_frame   0x0000597c       0x20 C:/ProgramData/KMC/SOLID/SDK/2.0/solid-os/net/lwIP/lib/armv7aLaiv/CT_\libnet.a(stats.o)
 .debug_frame   0x0000599c      0x4b4 C:/ProgramData/KMC/SOLID/SDK/2.0/solid-os/net/lwIP/lib/armv7aLaiv/CT_\libnet.a(tcp.o)
 .debug_frame   0x00005e50       0xf8 C:/ProgramData/KMC/SOLID/SDK/2.0/solid-os/net/lwIP/lib/armv7aLaiv/CT_\libnet.a(tcp_in.o)
 .debug_frame   0x00005f48      0x1f8 C:/ProgramData/KMC/SOLID/SDK/2.0/solid-os/net/lwIP/lib/armv7aLaiv/CT_\libnet.a(tcp_out.o)
 .debug_frame   0x00006140      0x120 C:/ProgramData/KMC/SOLID/SDK/2.0/solid-os/net/lwIP/lib/armv7aLaiv/CT_\libnet.a(timeouts.o)
 .debug_frame   0x00006260      0x1bc C:/ProgramData/KMC/SOLID/SDK/2.0/solid-os/net/lwIP/lib/armv7aLaiv/CT_\libnet.a(udp.o)
 .debug_frame   0x0000641c       0x4c C:/ProgramData/KMC/SOLID/SDK/2.0/solid-os/net/lwIP/lib/armv7aLaiv/CT_\libnet.a(ethernet.o)
 .debug_frame   0x00006468      0x1b4 C:/ProgramData/KMC/SOLID/SDK/2.0/solid-os/net/lwIP/lib/armv7aLaiv/CT_\libnet.a(solid_net_if.o)
 .debug_frame   0x0000661c       0x2c C:/ProgramData/KMC/SOLID/SDK/2.0/solid-os/net/lwIP/lib/armv7aLaiv/CT_\libnet.a(solid_net_registerapi.o)
 .debug_frame   0x00006648      0x19c C:/ProgramData/KMC/SOLID/SDK/2.0/solid-os/net/lwIP/lib/armv7aLaiv/CT_\libnet.a(impl_net_stack.o)
 .debug_frame   0x000067e4       0x24 C:/ProgramData/KMC/SOLID/SDK/2.0/solid-os/net/lwIP/lib/armv7aLaiv/CT_\libnet.a(impl_net_stack_errno.o)
 .debug_frame   0x00006808       0x64 C:/ProgramData/KMC/SOLID/SDK/2.0/solid-os/net/lwIP/lib/armv7aLaiv/CT_\libnet.a(ethernetif.o)
 .debug_frame   0x0000686c      0x234 C:/ProgramData/KMC/SOLID/SDK/2.0/solid-os/net/lwIP/lib/armv7aLaiv/CT_\libnet.a(api_lib.o)
 .debug_frame   0x00006aa0      0x30c C:/ProgramData/KMC/SOLID/SDK/2.0/solid-os/net/lwIP/lib/armv7aLaiv/CT_\libnet.a(api_msg.o)
 .debug_frame   0x00006dac       0x38 C:/ProgramData/KMC/SOLID/SDK/2.0/solid-os/net/lwIP/lib/armv7aLaiv/CT_\libnet.a(err.o)
 .debug_frame   0x00006de4       0xfc C:/ProgramData/KMC/SOLID/SDK/2.0/solid-os/net/lwIP/lib/armv7aLaiv/CT_\libnet.a(netbuf.o)
 .debug_frame   0x00006ee0       0x8c C:/ProgramData/KMC/SOLID/SDK/2.0/solid-os/net/lwIP/lib/armv7aLaiv/CT_\libnet.a(netdb.o)
 .debug_frame   0x00006f6c      0x218 C:/ProgramData/KMC/SOLID/SDK/2.0/solid-os/net/lwIP/lib/armv7aLaiv/CT_\libnet.a(dns.o)
 .debug_frame   0x00007184      0x130 C:/ProgramData/KMC/SOLID/SDK/2.0/solid-os/net/lwIP/lib/armv7aLaiv/CT_\libnet.a(inet_chksum.o)
 .debug_frame   0x000072b4      0x3f0 C:/ProgramData/KMC/SOLID/SDK/2.0/solid-os/net/lwIP/lib/armv7aLaiv/CT_\libnet.a(dhcp.o)
 .debug_frame   0x000076a4      0x1f0 C:/ProgramData/KMC/SOLID/SDK/2.0/solid-os/net/lwIP/lib/armv7aLaiv/CT_\libnet.a(etharp.o)
 .debug_frame   0x00007894       0x80 C:/ProgramData/KMC/SOLID/SDK/2.0/solid-os/net/lwIP/lib/armv7aLaiv/CT_\libnet.a(icmp.o)
 .debug_frame   0x00007914      0x30c C:/ProgramData/KMC/SOLID/SDK/2.0/solid-os/rtos/toppers_asp3/lib/armv7aLaiv/CT__\libkernel.a(dataqueue.o)
 .debug_frame   0x00007c20      0x1e8 C:/ProgramData/KMC/SOLID/SDK/2.0/solid-os/rtos/toppers_asp3/lib/armv7aLaiv/CT__\libkernel.a(interrupt.o)
 .debug_frame   0x00007e08       0x44 C:/ProgramData/KMC/SOLID/SDK/2.0/solid-os/rtos/toppers_asp3/lib/armv7aLaiv/CT__\libkernel.a(vasyslog.o)
 .debug_frame   0x00007e4c      0x1f8 C:/ProgramData/KMC/SOLID/SDK/2.0/solid-os/rtos/toppers_asp3/lib/armv7aLaiv/CT__\libkernel.a(semaphore.o)
 .debug_frame   0x00008044      0x14c C:/ProgramData/KMC/SOLID/SDK/2.0/solid-os/rtos/toppers_asp3/lib/armv7aLaiv/CT__\libkernel.a(startup.o)
 .debug_frame   0x00008190      0x1f8 C:/ProgramData/KMC/SOLID/SDK/2.0/solid-os/rtos/toppers_asp3/lib/armv7aLaiv/CT__\libkernel.a(sys_manage.o)
 .debug_frame   0x00008388      0x2cc C:/ProgramData/KMC/SOLID/SDK/2.0/solid-os/rtos/toppers_asp3/lib/armv7aLaiv/CT__\libkernel.a(task.o)
 .debug_frame   0x00008654       0x24 C:/ProgramData/KMC/SOLID/SDK/2.0/solid-os/rtos/toppers_asp3/lib/armv7aLaiv/CT__\libkernel.a(taskhook.o)
 .debug_frame   0x00008678      0x190 C:/ProgramData/KMC/SOLID/SDK/2.0/solid-os/rtos/toppers_asp3/lib/armv7aLaiv/CT__\libkernel.a(task_manage.o)
 .debug_frame   0x00008808      0x24c C:/ProgramData/KMC/SOLID/SDK/2.0/solid-os/rtos/toppers_asp3/lib/armv7aLaiv/CT__\libkernel.a(time_event.o)
 .debug_frame   0x00008a54      0x284 C:/ProgramData/KMC/SOLID/SDK/2.0/solid-os/rtos/toppers_asp3/lib/armv7aLaiv/CT__\libkernel.a(wait.o)
 .debug_frame   0x00008cd8       0x2c C:/ProgramData/KMC/SOLID/SDK/2.0/solid-os/rtos/toppers_asp3/lib/armv7aLaiv/CT__\libkernel.a(solid_rtos_registerapi.o)
 .debug_frame   0x00008d04       0x48 C:/ProgramData/KMC/SOLID/SDK/2.0/solid-os/rtos/toppers_asp3/lib/armv7aLaiv/CT__\libkernel.a(target_fput_log.o)
 .debug_frame   0x00008d4c      0x19c C:/ProgramData/KMC/SOLID/SDK/2.0/solid-os/rtos/toppers_asp3/lib/armv7aLaiv/CT__\libkernel.a(target_intc_impl.o)
 .debug_frame   0x00008ee8       0xf0 C:/ProgramData/KMC/SOLID/SDK/2.0/solid-os/rtos/toppers_asp3/lib/armv7aLaiv/CT__\libkernel.a(target_timer_impl.o)
 .debug_frame   0x00008fd8       0xcc C:/ProgramData/KMC/SOLID/SDK/2.0/solid-os/rtos/toppers_asp3/lib/armv7aLaiv/CT__\libkernel.a(kmc_evttracker_rtos.o)
 .debug_frame   0x000090a4      0x158 C:/ProgramData/KMC/SOLID/SDK/2.0/solid-os/rtos/toppers_asp3/lib/armv7aLaiv/CT__\libkernel.a(rtos_prof.o)
 .debug_frame   0x000091fc       0x4c C:/ProgramData/KMC/SOLID/SDK/2.0/solid-os/rtos/toppers_asp3/lib/armv7aLaiv/CT__\libkernel.a(kernel_cfg_intl.o)
 .debug_frame   0x00009248      0x13c C:/ProgramData/KMC/SOLID/SDK/2.0/solid-os/rtos/toppers_asp3/lib/armv7aLaiv/CT__\libkernel.a(alarm.o)
 .debug_frame   0x00009384      0x134 C:/ProgramData/KMC/SOLID/SDK/2.0/solid-os/rtos/toppers_asp3/lib/armv7aLaiv/CT__\libkernel.a(core_kernel_impl.o)
 .debug_frame   0x000094b8      0x128 C:/ProgramData/KMC/SOLID/SDK/2.0/solid-os/rtos/toppers_asp3/lib/armv7aLaiv/CT__\libkernel.a(cyclic.o)
 .debug_frame   0x000095e0      0x238 C:/ProgramData/KMC/SOLID/SDK/2.0/solid-os/rtos/toppers_asp3/lib/armv7aLaiv/CT__\libkernel.a(eventflag.o)
 .debug_frame   0x00009818       0xa8 C:/ProgramData/KMC/SOLID/SDK/2.0/solid-os/rtos/toppers_asp3/lib/armv7aLaiv/CT__\libkernel.a(exception.o)
 .debug_frame   0x000098c0      0x20c C:/ProgramData/KMC/SOLID/SDK/2.0/solid-os/rtos/toppers_asp3/lib/armv7aLaiv/CT__\libkernel.a(mempfix.o)
 .debug_frame   0x00009acc      0x12c C:/ProgramData/KMC/SOLID/SDK/2.0/solid-os/rtos/toppers_asp3/lib/armv7aLaiv/CT__\libkernel.a(tSysLog.o)
 .debug_frame   0x00009bf8      0x304 C:/ProgramData/KMC/SOLID/SDK/2.0/solid-os/rtos/toppers_asp3/lib/armv7aLaiv/CT__\libkernel.a(mutex.o)
 .debug_frame   0x00009efc      0x2d8 C:/ProgramData/KMC/SOLID/SDK/2.0/solid-os/rtos/toppers_asp3/lib/armv7aLaiv/CT__\libkernel.a(pridataq.o)
 .debug_frame   0x0000a1d4       0xb8 C:/ProgramData/KMC/SOLID/SDK/2.0/solid-os/rtos/toppers_asp3/lib/armv7aLaiv/CT__\libkernel.a(task_refer.o)
 .debug_frame   0x0000a28c      0x230 C:/ProgramData/KMC/SOLID/SDK/2.0/solid-os/rtos/toppers_asp3/lib/armv7aLaiv/CT__\libkernel.a(task_sync.o)
 .debug_frame   0x0000a4bc      0x188 C:/ProgramData/KMC/SOLID/SDK/2.0/solid-os/rtos/toppers_asp3/lib/armv7aLaiv/CT__\libkernel.a(task_term.o)
 .debug_frame   0x0000a644      0x16c C:/ProgramData/KMC/SOLID/SDK/2.0/solid-os/rtos/toppers_asp3/lib/armv7aLaiv/CT__\libkernel.a(time_manage.o)
 .debug_frame   0x0000a7b0       0x88 C:/ProgramData/KMC/SOLID/SDK/2.0/solid-os/rtos/toppers_asp3/lib/armv7aLaiv/CT__\libkernel.a(log_output.o)
 .debug_frame   0x0000a838       0x44 C:/Users/admin/Documents/SOLID-IDE/Projects/lwip_server/Debug_tasan/exeClang_SOLID/\libbsp.a(impl_cs_event.o)
 .debug_frame   0x0000a87c      0x134 C:/Users/admin/Documents/SOLID-IDE/Projects/lwip_server/Debug_tasan/exeClang_SOLID/\libbsp.a(impl_dmac.o)
 .debug_frame   0x0000a9b0       0x5c C:/Users/admin/Documents/SOLID-IDE/Projects/lwip_server/Debug_tasan/exeClang_SOLID/\libbsp.a(impl_iores.o)
 .debug_frame   0x0000aa0c       0x78 C:/Users/admin/Documents/SOLID-IDE/Projects/lwip_server/Debug_tasan/exeClang_SOLID/\libbsp.a(impl_log.o)
 .debug_frame   0x0000aa84      0x428 C:/Users/admin/Documents/SOLID-IDE/Projects/lwip_server/Debug_tasan/exeClang_SOLID/\libbsp.a(impl_net_dev_ether.o)
 .debug_frame   0x0000aeac       0xf8 C:/Users/admin/Documents/SOLID-IDE/Projects/lwip_server/Debug_tasan/exeClang_SOLID/\libbsp.a(impl_net_dev_get_macaddr.o)
 .debug_frame   0x0000afa4       0x50 C:/Users/admin/Documents/SOLID-IDE/Projects/lwip_server/Debug_tasan/exeClang_SOLID/\libbsp.a(impl_net_dev_getconfig.o)
 .debug_frame   0x0000aff4       0x94 C:/Users/admin/Documents/SOLID-IDE/Projects/lwip_server/Debug_tasan/exeClang_SOLID/\libbsp.a(impl_rtc.o)
 .debug_frame   0x0000b088      0x14c C:/Users/admin/Documents/SOLID-IDE/Projects/lwip_server/Debug_tasan/exeClang_SOLID/\libbsp.a(impl_timer.o)
 .debug_frame   0x0000b1d4      0x1d0 C:/Users/admin/Documents/SOLID-IDE/Projects/lwip_server/Debug_tasan/exeClang_SOLID/\libbsp.a(rtc.o)
 .debug_frame   0x0000b3a4       0x44 C:/Users/admin/Documents/SOLID-IDE/Projects/lwip_server/Debug_tasan/exeClang_SOLID/\libbsp.a(rtc_userdef.o)
 .debug_frame   0x0000b3e8       0x5c C:/Users/admin/Documents/SOLID-IDE/Projects/lwip_server/Debug_tasan/exeClang_SOLID/\libbsp.a(bsp_globals.o)
 .debug_frame   0x0000b444      0x10c C:/Users/admin/Documents/SOLID-IDE/Projects/lwip_server/Debug_tasan/exeClang_SOLID/\libbsp.a(rza_io_regrw.o)
 .debug_frame   0x0000b550       0xe4 C:/GCC4/ARM/s002/lib/armv7aLaiv\libstdc++.a(class_type_info.o)
 .debug_frame   0x0000b634       0x30 C:/GCC4/ARM/s002/lib/armv7aLaiv\libstdc++.a(new_handler.o)
 .debug_frame   0x0000b664       0x20 C:/GCC4/ARM/s002/lib/armv7aLaiv\libstdc++.a(del_ops.o)
 .debug_frame   0x0000b684       0xe4 C:/GCC4/ARM/s002/lib/armv7aLaiv\libstdc++.a(si_class_type_info.o)
 .debug_frame   0x0000b768       0x20 C:/GCC4/ARM/s002/lib/armv7aLaiv\libstdc++.a(del_op.o)
 .debug_frame   0x0000b788       0x84 C:/GCC4/ARM/s002/lib/armv7aLaiv\libstdc++.a(tinfo.o)
 .debug_frame   0x0000b80c       0x20 C:/GCC4/ARM/s002/lib/armv7aLaiv/libgcc.a(_udivsi3.o)
 .debug_frame   0x0000b82c       0x2c C:/GCC4/ARM/s002/lib/armv7aLaiv/libgcc.a(_aeabi_uldivmod.o)
 .debug_frame   0x0000b858       0x34 C:/GCC4/ARM/s002/lib/armv7aLaiv/libgcc.a(_udivmoddi4.o)
 .debug_frame   0x0000b88c      0x2d0 C:/GCC4/ARM/s002/lib/armv7aLaiv/libgcc.a(unwind-arm.o)
 .debug_frame   0x0000bb5c       0xf4 C:/GCC4/ARM/s002/lib/armv7aLaiv/libgcc.a(pr-support.o)
 .debug_frame   0x0000bc50      0x164 C:/GCC4/ARM/s002/lib/armv7aLaiv/libc.a(_m_init.o)
 .debug_frame   0x0000bdb4       0x40 C:/GCC4/ARM/s002/lib/armv7aLaiv/libc.a(abort.o)
 .debug_frame   0x0000bdf4       0x30 C:/GCC4/ARM/s002/lib/armv7aLaiv/libc.a(errno.o)
 .debug_frame   0x0000be24       0x20 C:/GCC4/ARM/s002/lib/armv7aLaiv/libc.a(atoi.o)
 .debug_frame   0x0000be44       0x30 C:/GCC4/ARM/s002/lib/armv7aLaiv/libc.a(rand.o)
 .debug_frame   0x0000be74       0x68 C:/GCC4/ARM/s002/lib/armv7aLaiv/libc.a(strtol.o)
 .debug_frame   0x0000bedc       0x68 C:/GCC4/ARM/s002/lib/armv7aLaiv/libc.a(strtoul.o)
 .debug_frame   0x0000bf44       0x84 C:/GCC4/ARM/s002/lib/armv7aLaiv/libc.a(atexit.o)
 .debug_frame   0x0000bfc8      0x1f0 C:/GCC4/ARM/s002/lib/armv7aLaiv/libc.a(isctype.o)
 .debug_frame   0x0000c1b8       0x38 C:/GCC4/ARM/s002/lib/armv7aLaiv/libc.a(thread-stub-init.o)
 .debug_frame   0x0000c1f0      0x1fc C:/GCC4/ARM/s002/lib/armv7aLaiv/libc.a(thread-stub.o)
 .debug_frame   0x0000c3ec       0x20 C:/GCC4/ARM/s002/lib/armv7aLaiv/libc.a(ssp_init.o)
 .debug_frame   0x0000c40c       0x80 C:/GCC4/ARM/s002/lib/armv7aLaiv/libc.a(findfp.o)
 .debug_frame   0x0000c48c       0x6c C:/GCC4/ARM/s002/lib/armv7aLaiv/libc.a(fprintf.o)
 .debug_frame   0x0000c4f8       0x88 C:/GCC4/ARM/s002/lib/armv7aLaiv/libc.a(stdio.o)
 .debug_frame   0x0000c580      0x120 C:/GCC4/ARM/s002/lib/armv7aLaiv/libc.a(vfprintf.o)
 .debug_frame   0x0000c6a0       0xac C:/GCC4/ARM/s002/lib/armv7aLaiv/libc.a(vsnprintf.o)
 .debug_frame   0x0000c74c       0x28 C:/GCC4/ARM/s002/lib/armv7aLaiv/libc.a(wsetup.o)
 .debug_frame   0x0000c774       0x6c C:/GCC4/ARM/s002/lib/armv7aLaiv/libc.a(makebuf.o)
 .debug_frame   0x0000c7e0       0x58 C:/GCC4/ARM/s002/lib/armv7aLaiv/libc.a(close.o)
 .debug_frame   0x0000c838       0x44 C:/GCC4/ARM/s002/lib/armv7aLaiv/libc.a(fstat.o)
 .debug_frame   0x0000c87c       0x28 C:/GCC4/ARM/s002/lib/armv7aLaiv/libc.a(lseek.o)
 .debug_frame   0x0000c8a4       0x50 C:/GCC4/ARM/s002/lib/armv7aLaiv/libc.a(open.o)
 .debug_frame   0x0000c8f4      0x5dc C:/GCC4/ARM/s002/lib/armv7aLaiv/libc.a(osemu.o)
 .debug_frame   0x0000ced0       0x64 C:/GCC4/ARM/s002/lib/armv7aLaiv/libc.a(perror.o)
 .debug_frame   0x0000cf34       0x2c C:/GCC4/ARM/s002/lib/armv7aLaiv/libc.a(read.o)
 .debug_frame   0x0000cf60       0x48 C:/GCC4/ARM/s002/lib/armv7aLaiv/libc.a(u2dname.o)
 .debug_frame   0x0000cfa8       0x54 C:/GCC4/ARM/s002/lib/armv7aLaiv/libc.a(utime.o)
 .debug_frame   0x0000cffc       0x50 C:/GCC4/ARM/s002/lib/armv7aLaiv/libc.a(write.o)
 .debug_frame   0x0000d04c      0x188 C:/GCC4/ARM/s002/lib/armv7aLaiv/libc.a(_env.o)
 .debug_frame   0x0000d1d4       0x58 C:/GCC4/ARM/s002/lib/armv7aLaiv/libc.a(exit.o)
 .debug_frame   0x0000d22c       0x30 C:/GCC4/ARM/s002/lib/armv7aLaiv/libc.a(signal.o)
 .debug_frame   0x0000d25c       0x94 C:/GCC4/ARM/s002/lib/armv7aLaiv/libc.a(localtime.o)
 .debug_frame   0x0000d2f0       0x30 C:/GCC4/ARM/s002/lib/armv7aLaiv/libc.a(lldiv.o)
 .debug_frame   0x0000d320       0x20 C:/GCC4/ARM/s002/lib/armv7aLaiv/libc.a(memchr.o)
 .debug_frame   0x0000d340       0x4c C:/GCC4/ARM/s002/lib/armv7aLaiv/libc.a(strcspn.o)
 .debug_frame   0x0000d38c       0x38 C:/GCC4/ARM/s002/lib/armv7aLaiv/libc.a(strncasecmp.o)
 .debug_frame   0x0000d3c4       0x2c C:/GCC4/ARM/s002/lib/armv7aLaiv/libc.a(strdup.o)
 .debug_frame   0x0000d3f0       0x74 C:/GCC4/ARM/s002/lib/armv7aLaiv/libc.a(citrus_ctype.o)
 .debug_frame   0x0000d464      0x208 C:/GCC4/ARM/s002/lib/armv7aLaiv/libc.a(citrus_none.o)
 .debug_frame   0x0000d66c      0x438 C:/GCC4/ARM/s002/lib/armv7aLaiv/libc.a(citrus_mskanji.o)
 .debug_frame   0x0000daa4      0x450 C:/GCC4/ARM/s002/lib/armv7aLaiv/libc.a(citrus_utf8.o)
 .debug_frame   0x0000def4       0x30 C:/GCC4/ARM/s002/lib/armv7aLaiv/libc.a(localeconv.o)
 .debug_frame   0x0000df24      0x254 C:/GCC4/ARM/s002/lib/armv7aLaiv/libc.a(multibyte_amd1.o)
 .debug_frame   0x0000e178       0x50 C:/GCC4/ARM/s002/lib/armv7aLaiv/libc.a(dtoa.o)
 .debug_frame   0x0000e1c8       0x30 C:/GCC4/ARM/s002/lib/armv7aLaiv/libc.a(ldtoa.o)
 .debug_frame   0x0000e1f8       0x84 C:/GCC4/ARM/s002/lib/armv7aLaiv/libc.a(hdtoa.o)
 .debug_frame   0x0000e27c       0x80 C:/GCC4/ARM/s002/lib/armv7aLaiv/libc.a(dmisc.o)
 .debug_frame   0x0000e2fc      0x1d0 C:/GCC4/ARM/s002/lib/armv7aLaiv/libc.a(misc.o)
 .debug_frame   0x0000e4cc      0x4ec C:/GCC4/ARM/s002/lib/armv7aLaiv/libc.a(softfloat.o)
 .debug_frame   0x0000e9b8       0x20 C:/GCC4/ARM/s002/lib/armv7aLaiv/libc.a(__aeabi_dcmpeq.o)
 .debug_frame   0x0000e9d8       0x30 C:/GCC4/ARM/s002/lib/armv7aLaiv/libc.a(__aeabi_dcmpge.o)
 .debug_frame   0x0000ea08       0x30 C:/GCC4/ARM/s002/lib/armv7aLaiv/libc.a(__aeabi_dcmpgt.o)
 .debug_frame   0x0000ea38       0x20 C:/GCC4/ARM/s002/lib/armv7aLaiv/libc.a(__aeabi_dcmplt.o)
 .debug_frame   0x0000ea58      0x138 C:/GCC4/ARM/s002/lib/armv7aLaiv/libc.a(rb.o)
 .debug_frame   0x0000eb90       0x50 C:/GCC4/ARM/s002/lib/armv7aLaiv/libc.a(fflush.o)
 .debug_frame   0x0000ebe0       0xc8 C:/GCC4/ARM/s002/lib/armv7aLaiv/libc.a(flockfile.o)
 .debug_frame   0x0000eca8       0x38 C:/GCC4/ARM/s002/lib/armv7aLaiv/libc.a(fvwrite.o)
 .debug_frame   0x0000ece0       0x30 C:/GCC4/ARM/s002/lib/armv7aLaiv/libc.a(fwalk.o)
 .debug_frame   0x0000ed10       0x38 C:/GCC4/ARM/s002/lib/armv7aLaiv/libc.a(creat.o)
 .debug_frame   0x0000ed48       0x20 C:/GCC4/ARM/s002/lib/armv7aLaiv/libc.a(fpclassifyd_ieee754.o)
 .debug_frame   0x0000ed68       0x28 C:/GCC4/ARM/s002/lib/armv7aLaiv/libc.a(strcasecmp.o)
 .debug_frame   0x0000ed90       0x20 C:/GCC4/ARM/s002/lib/armv7aLaiv/libgcc.a(_divsi3.o)
 .debug_frame   0x0000edb0       0xac C:/GCC4/ARM/s002/lib/armv7aLaiv/libgcc.a(_arm_addsubdf3.o)
 .debug_frame   0x0000ee5c       0x44 C:/GCC4/ARM/s002/lib/armv7aLaiv/libgcc.a(_aeabi_ldivmod.o)

.debug_str      0x00000000    0x199d8
 *(.debug_str)
 .debug_str     0x00000000     0x1083 C:/Users/admin/Documents/SOLID-IDE/Projects/lwip_server/Debug_tasan/exeClang_SOLID/lwip_server/lwip_server_all.o
                               0x13a7 (size before relaxing)
 .debug_str     0x00001083      0x14b C:/ProgramData/KMC/SOLID/SDK/2.0/solid-os/core/lib/armv7aLaiv/CT_\libsolid_cs.a(solid_cs_main.o)
                                0x1a5 (size before relaxing)
 .debug_str     0x000011ce       0x41 C:/ProgramData/KMC/SOLID/SDK/2.0/solid-os/core/lib/armv7aLaiv/CT_\libsolid_cs.a(kmc_trace_mem_dummy.o)
                                 0x76 (size before relaxing)
 .debug_str     0x0000120f      0x14b C:/ProgramData/KMC/SOLID/SDK/2.0/solid-os/core/lib/armv7aLaiv/CT_\libsolid_cs.a(solid_cs_event.o)
                                0x2f0 (size before relaxing)
 .debug_str     0x0000135a       0xeb C:/ProgramData/KMC/SOLID/SDK/2.0/solid-os/core/lib/armv7aLaiv/CT_\libsolid_cs.a(solid_debugger.o)
                                0x261 (size before relaxing)
 .debug_str     0x00001445      0xbb0 C:/ProgramData/KMC/SOLID/SDK/2.0/solid-os/core/lib/armv7aLaiv/CT_\libsolid_cs.a(solid_dmac.o)
                                0xd84 (size before relaxing)
 .debug_str     0x00001ff5      0x17d C:/ProgramData/KMC/SOLID/SDK/2.0/solid-os/core/lib/armv7aLaiv/CT_\libsolid_cs.a(solid_exception.o)
                                0x1fb (size before relaxing)
 .debug_str     0x00002172      0x6e1 C:/ProgramData/KMC/SOLID/SDK/2.0/solid-os/core/lib/armv7aLaiv/CT_\libsolid_cs.a(solid_fs_base.o)
                                0x975 (size before relaxing)
 .debug_str     0x00002853      0x17c C:/ProgramData/KMC/SOLID/SDK/2.0/solid-os/core/lib/armv7aLaiv/CT_\libsolid_cs.a(solid_fs_mem.o)
                                0x4a3 (size before relaxing)
 .debug_str     0x000029cf      0x21c C:/ProgramData/KMC/SOLID/SDK/2.0/solid-os/core/lib/armv7aLaiv/CT_\libsolid_cs.a(solid_fs_vlink.o)
                                0x549 (size before relaxing)
 .debug_str     0x00002beb      0xe8c C:/ProgramData/KMC/SOLID/SDK/2.0/solid-os/core/lib/armv7aLaiv/CT_\libsolid_cs.a(solid_intc.o)
                               0x1141 (size before relaxing)
 .debug_str     0x00003a77      0x3f4 C:/ProgramData/KMC/SOLID/SDK/2.0/solid-os/core/lib/armv7aLaiv/CT_\libsolid_cs.a(solid_iores.o)
                                0x7f0 (size before relaxing)
 .debug_str     0x00003e6b     0x1a0e C:/ProgramData/KMC/SOLID/SDK/2.0/solid-os/core/lib/armv7aLaiv/CT_\libsolid_cs.a(solid_loader.o)
                               0x20d4 (size before relaxing)
 .debug_str     0x00005879       0x56 C:/ProgramData/KMC/SOLID/SDK/2.0/solid-os/core/lib/armv7aLaiv/CT_\libsolid_cs.a(solid_loader_fixed.o)
                                 0xdf (size before relaxing)
 .debug_str     0x000058cf      0x114 C:/ProgramData/KMC/SOLID/SDK/2.0/solid-os/core/lib/armv7aLaiv/CT_\libsolid_cs.a(solid_log.o)
                                0x201 (size before relaxing)
 .debug_str     0x000059e3      0x160 C:/ProgramData/KMC/SOLID/SDK/2.0/solid-os/core/lib/armv7aLaiv/CT_\libsolid_cs.a(solid_malloc.o)
                                0x25d (size before relaxing)
 .debug_str     0x00005b43     0x125f C:/ProgramData/KMC/SOLID/SDK/2.0/solid-os/core/lib/armv7aLaiv/CT_\libsolid_cs.a(solid_mem.o)
                               0x16df (size before relaxing)
 .debug_str     0x00006da2      0x219 C:/ProgramData/KMC/SOLID/SDK/2.0/solid-os/core/lib/armv7aLaiv/CT_\libsolid_cs.a(solid_mem_cache.o)
                                0x62f (size before relaxing)
 .debug_str     0x00006fbb       0x88 C:/ProgramData/KMC/SOLID/SDK/2.0/solid-os/core/lib/armv7aLaiv/CT_\libsolid_cs.a(solid_mutex.o)
                                0x348 (size before relaxing)
 .debug_str     0x00007043       0x88 C:/ProgramData/KMC/SOLID/SDK/2.0/solid-os/core/lib/armv7aLaiv/CT_\libsolid_cs.a(solid_rtc.o)
                                 0xca (size before relaxing)
 .debug_str     0x000070cb      0x727 C:/ProgramData/KMC/SOLID/SDK/2.0/solid-os/core/lib/armv7aLaiv/CT_\libsolid_cs.a(solid_timer.o)
                                0x9fd (size before relaxing)
 .debug_str     0x000077f2      0x148 C:/ProgramData/KMC/SOLID/SDK/2.0/solid-os/core/lib/armv7aLaiv/CT_\libsolid_cs.a(solid_vector.o)
                                0x24b (size before relaxing)
 .debug_str     0x0000793a       0xa8 C:/ProgramData/KMC/SOLID/SDK/2.0/solid-os/core/lib/armv7aLaiv/CT_\libsolid_cs.a(solid_vlink.o)
                                0x175 (size before relaxing)
 .debug_str     0x000079e2      0x949 C:/ProgramData/KMC/SOLID/SDK/2.0/solid-os/core/lib/armv7aLaiv/CT_\libsolid_cs.a(tasan.o)
                                0xad6 (size before relaxing)
 .debug_str     0x0000832b       0x76 C:/ProgramData/KMC/SOLID/SDK/2.0/solid-os/core/lib/armv7aLaiv/CT_\libsolid_cs.a(tasan_interceptors.o)
                                 0xf3 (size before relaxing)
 .debug_str     0x000083a1      0x158 C:/ProgramData/KMC/SOLID/SDK/2.0/solid-os/core/lib/armv7aLaiv/CT_\libsolid_cs.a(solid_mem_mmu.o)
                                0x6df (size before relaxing)
 .debug_str     0x000084f9      0x223 C:/ProgramData/KMC/SOLID/SDK/2.0/solid-os/core/lib/armv7aLaiv/CT_\libsolid_cs.a(kmc_evttracker_core.o)
                                0x3b6 (size before relaxing)
 .debug_str     0x0000871c      0x6d8 C:/ProgramData/KMC/SOLID/SDK/2.0/solid-os/core/lib/armv7aLaiv/CT_\libsolid_cs.a(dlmalloc.o)
                                0x9f7 (size before relaxing)
 .debug_str     0x00008df4       0x40 C:/ProgramData/KMC/SOLID/SDK/2.0/solid-os/core/lib/armv7aLaiv/CT_\libsolid_cs.a(solid_asan.o)
                                0x198 (size before relaxing)
 .debug_str     0x00008e34       0x64 C:/ProgramData/KMC/SOLID/SDK/2.0/solid-os/core/lib/armv7aLaiv/CT_\libsolid_cs.a(solid_cs_args.o)
                                 0xe5 (size before relaxing)
 .debug_str     0x00008e98      0x44f C:/ProgramData/KMC/SOLID/SDK/2.0/solid-os/net/lwIP/lib/armv7aLaiv/CT_\libnet.a(sys_arch.o)
                                0x5a2 (size before relaxing)
 .debug_str     0x000092e7      0x91a C:/ProgramData/KMC/SOLID/SDK/2.0/solid-os/net/lwIP/lib/armv7aLaiv/CT_\libnet.a(sockets.o)
                                0xd63 (size before relaxing)
 .debug_str     0x00009c01      0x33e C:/ProgramData/KMC/SOLID/SDK/2.0/solid-os/net/lwIP/lib/armv7aLaiv/CT_\libnet.a(tcpip.o)
                                0x5e4 (size before relaxing)
 .debug_str     0x00009f3f       0xb2 C:/ProgramData/KMC/SOLID/SDK/2.0/solid-os/net/lwIP/lib/armv7aLaiv/CT_\libnet.a(def.o)
                                0x16c (size before relaxing)
 .debug_str     0x00009ff1       0x2b C:/ProgramData/KMC/SOLID/SDK/2.0/solid-os/net/lwIP/lib/armv7aLaiv/CT_\libnet.a(init.o)
                                 0x6a (size before relaxing)
 .debug_str     0x0000a01c      0x152 C:/ProgramData/KMC/SOLID/SDK/2.0/solid-os/net/lwIP/lib/armv7aLaiv/CT_\libnet.a(ip4.o)
                                0x437 (size before relaxing)
 .debug_str     0x0000a16e       0xc4 C:/ProgramData/KMC/SOLID/SDK/2.0/solid-os/net/lwIP/lib/armv7aLaiv/CT_\libnet.a(ip4_addr.o)
                                0x2e2 (size before relaxing)
 .debug_str     0x0000a232      0x2ca C:/ProgramData/KMC/SOLID/SDK/2.0/solid-os/net/lwIP/lib/armv7aLaiv/CT_\libnet.a(ip4_frag.o)
                                0x73e (size before relaxing)
 .debug_str     0x0000a4fc       0xa1 C:/ProgramData/KMC/SOLID/SDK/2.0/solid-os/net/lwIP/lib/armv7aLaiv/CT_\libnet.a(mem.o)
                                0x239 (size before relaxing)
 .debug_str     0x0000a59d      0x51f C:/ProgramData/KMC/SOLID/SDK/2.0/solid-os/net/lwIP/lib/armv7aLaiv/CT_\libnet.a(memp.o)
                                0x721 (size before relaxing)
 .debug_str     0x0000aabc      0x161 C:/ProgramData/KMC/SOLID/SDK/2.0/solid-os/net/lwIP/lib/armv7aLaiv/CT_\libnet.a(netif.o)
                                0x3f9 (size before relaxing)
 .debug_str     0x0000ac1d      0x375 C:/ProgramData/KMC/SOLID/SDK/2.0/solid-os/net/lwIP/lib/armv7aLaiv/CT_\libnet.a(pbuf.o)
                                0xa57 (size before relaxing)
 .debug_str     0x0000af92       0xad C:/ProgramData/KMC/SOLID/SDK/2.0/solid-os/net/lwIP/lib/armv7aLaiv/CT_\libnet.a(stats.o)
                                0x184 (size before relaxing)
 .debug_str     0x0000b03f      0x4a1 C:/ProgramData/KMC/SOLID/SDK/2.0/solid-os/net/lwIP/lib/armv7aLaiv/CT_\libnet.a(tcp.o)
                                0xbf6 (size before relaxing)
 .debug_str     0x0000b4e0      0x192 C:/ProgramData/KMC/SOLID/SDK/2.0/solid-os/net/lwIP/lib/armv7aLaiv/CT_\libnet.a(tcp_in.o)
                                0x890 (size before relaxing)
 .debug_str     0x0000b672      0x1fc C:/ProgramData/KMC/SOLID/SDK/2.0/solid-os/net/lwIP/lib/armv7aLaiv/CT_\libnet.a(tcp_out.o)
                                0x976 (size before relaxing)
 .debug_str     0x0000b86e      0x18e C:/ProgramData/KMC/SOLID/SDK/2.0/solid-os/net/lwIP/lib/armv7aLaiv/CT_\libnet.a(timeouts.o)
                                0x352 (size before relaxing)
 .debug_str     0x0000b9fc      0x158 C:/ProgramData/KMC/SOLID/SDK/2.0/solid-os/net/lwIP/lib/armv7aLaiv/CT_\libnet.a(udp.o)
                                0x645 (size before relaxing)
 .debug_str     0x0000bb54       0x9d C:/ProgramData/KMC/SOLID/SDK/2.0/solid-os/net/lwIP/lib/armv7aLaiv/CT_\libnet.a(ethernet.o)
                                0x33d (size before relaxing)
 .debug_str     0x0000bbf1      0x277 C:/ProgramData/KMC/SOLID/SDK/2.0/solid-os/net/lwIP/lib/armv7aLaiv/CT_\libnet.a(solid_net_if.o)
                                0x4b4 (size before relaxing)
 .debug_str     0x0000be68       0x52 C:/ProgramData/KMC/SOLID/SDK/2.0/solid-os/net/lwIP/lib/armv7aLaiv/CT_\libnet.a(solid_net_registerapi.o)
                                 0xd3 (size before relaxing)
 .debug_str     0x0000beba      0x374 C:/ProgramData/KMC/SOLID/SDK/2.0/solid-os/net/lwIP/lib/armv7aLaiv/CT_\libnet.a(impl_net_stack.o)
                                0x76a (size before relaxing)
 .debug_str     0x0000c22e       0xae C:/ProgramData/KMC/SOLID/SDK/2.0/solid-os/net/lwIP/lib/armv7aLaiv/CT_\libnet.a(impl_net_stack_errno.o)
                                0x129 (size before relaxing)
 .debug_str     0x0000c2dc       0x82 C:/ProgramData/KMC/SOLID/SDK/2.0/solid-os/net/lwIP/lib/armv7aLaiv/CT_\libnet.a(ethernetif.o)
                                0x352 (size before relaxing)
 .debug_str     0x0000c35e      0x1f4 C:/ProgramData/KMC/SOLID/SDK/2.0/solid-os/net/lwIP/lib/armv7aLaiv/CT_\libnet.a(api_lib.o)
                                0xa67 (size before relaxing)
 .debug_str     0x0000c552      0x314 C:/ProgramData/KMC/SOLID/SDK/2.0/solid-os/net/lwIP/lib/armv7aLaiv/CT_\libnet.a(api_msg.o)
                                0xb88 (size before relaxing)
 .debug_str     0x0000c866       0x56 C:/ProgramData/KMC/SOLID/SDK/2.0/solid-os/net/lwIP/lib/armv7aLaiv/CT_\libnet.a(err.o)
                                 0xc5 (size before relaxing)
 .debug_str     0x0000c8bc       0x91 C:/ProgramData/KMC/SOLID/SDK/2.0/solid-os/net/lwIP/lib/armv7aLaiv/CT_\libnet.a(netbuf.o)
                                0x3a0 (size before relaxing)
 .debug_str     0x0000c94d      0x1b3 C:/ProgramData/KMC/SOLID/SDK/2.0/solid-os/net/lwIP/lib/armv7aLaiv/CT_\libnet.a(netdb.o)
                                0x53f (size before relaxing)
 .debug_str     0x0000cb00      0x2f7 C:/ProgramData/KMC/SOLID/SDK/2.0/solid-os/net/lwIP/lib/armv7aLaiv/CT_\libnet.a(dns.o)
                                0x67a (size before relaxing)
 .debug_str     0x0000cdf7      0x114 C:/ProgramData/KMC/SOLID/SDK/2.0/solid-os/net/lwIP/lib/armv7aLaiv/CT_\libnet.a(inet_chksum.o)
                                0x239 (size before relaxing)
 .debug_str     0x0000cf0b       0xa6 C:/ProgramData/KMC/SOLID/SDK/2.0/solid-os/net/lwIP/lib/armv7aLaiv/CT_\libnet.a(ip.o)
                                0x2dc (size before relaxing)
 .debug_str     0x0000cfb1      0x63b C:/ProgramData/KMC/SOLID/SDK/2.0/solid-os/net/lwIP/lib/armv7aLaiv/CT_\libnet.a(dhcp.o)
                                0xb50 (size before relaxing)
 .debug_str     0x0000d5ec      0x452 C:/ProgramData/KMC/SOLID/SDK/2.0/solid-os/net/lwIP/lib/armv7aLaiv/CT_\libnet.a(etharp.o)
                                0x793 (size before relaxing)
 .debug_str     0x0000da3e       0x8e C:/ProgramData/KMC/SOLID/SDK/2.0/solid-os/net/lwIP/lib/armv7aLaiv/CT_\libnet.a(icmp.o)
                                0x497 (size before relaxing)
 .debug_str     0x0000dacc      0x32f C:/ProgramData/KMC/SOLID/SDK/2.0/solid-os/rtos/toppers_asp3/lib/armv7aLaiv/CT__\libkernel.a(dataqueue.o)
                                0x70b (size before relaxing)
 .debug_str     0x0000ddfb       0xeb C:/ProgramData/KMC/SOLID/SDK/2.0/solid-os/rtos/toppers_asp3/lib/armv7aLaiv/CT__\libkernel.a(interrupt.o)
                                0x3b2 (size before relaxing)
 .debug_str     0x0000dee6       0x38 C:/ProgramData/KMC/SOLID/SDK/2.0/solid-os/rtos/toppers_asp3/lib/armv7aLaiv/CT__\libkernel.a(vasyslog.o)
                                0x149 (size before relaxing)
 .debug_str     0x0000df1e       0xca C:/ProgramData/KMC/SOLID/SDK/2.0/solid-os/rtos/toppers_asp3/lib/armv7aLaiv/CT__\libkernel.a(semaphore.o)
                                0x5b4 (size before relaxing)
 .debug_str     0x0000dfe8       0xe2 C:/ProgramData/KMC/SOLID/SDK/2.0/solid-os/rtos/toppers_asp3/lib/armv7aLaiv/CT__\libkernel.a(startup.o)
                                0x21a (size before relaxing)
 .debug_str     0x0000e0ca       0x9d C:/ProgramData/KMC/SOLID/SDK/2.0/solid-os/rtos/toppers_asp3/lib/armv7aLaiv/CT__\libkernel.a(sys_manage.o)
                                0x3ca (size before relaxing)
 .debug_str     0x0000e167      0x26c C:/ProgramData/KMC/SOLID/SDK/2.0/solid-os/rtos/toppers_asp3/lib/armv7aLaiv/CT__\libkernel.a(task.o)
                                0x6cb (size before relaxing)
 .debug_str     0x0000e3d3       0x83 C:/ProgramData/KMC/SOLID/SDK/2.0/solid-os/rtos/toppers_asp3/lib/armv7aLaiv/CT__\libkernel.a(taskhook.o)
                                0x32b (size before relaxing)
 .debug_str     0x0000e456       0x8a C:/ProgramData/KMC/SOLID/SDK/2.0/solid-os/rtos/toppers_asp3/lib/armv7aLaiv/CT__\libkernel.a(task_manage.o)
                                0x417 (size before relaxing)
 .debug_str     0x0000e4e0      0x2d3 C:/ProgramData/KMC/SOLID/SDK/2.0/solid-os/rtos/toppers_asp3/lib/armv7aLaiv/CT__\libkernel.a(time_event.o)
                                0x4e7 (size before relaxing)
 .debug_str     0x0000e7b3      0x10c C:/ProgramData/KMC/SOLID/SDK/2.0/solid-os/rtos/toppers_asp3/lib/armv7aLaiv/CT__\libkernel.a(wait.o)
                                0x5ad (size before relaxing)
 .debug_str     0x0000e8bf       0x71 C:/ProgramData/KMC/SOLID/SDK/2.0/solid-os/rtos/toppers_asp3/lib/armv7aLaiv/CT__\libkernel.a(solid_rtos_registerapi.o)
                                 0xfb (size before relaxing)
 .debug_str     0x0000e930       0x68 C:/ProgramData/KMC/SOLID/SDK/2.0/solid-os/rtos/toppers_asp3/lib/armv7aLaiv/CT__\libkernel.a(target_fput_log.o)
                                0x11a (size before relaxing)
 .debug_str     0x0000e998      0x1a7 C:/ProgramData/KMC/SOLID/SDK/2.0/solid-os/rtos/toppers_asp3/lib/armv7aLaiv/CT__\libkernel.a(target_intc_impl.o)
                                0x3cd (size before relaxing)
 .debug_str     0x0000eb3f      0x110 C:/ProgramData/KMC/SOLID/SDK/2.0/solid-os/rtos/toppers_asp3/lib/armv7aLaiv/CT__\libkernel.a(target_timer_impl.o)
                                0x2b3 (size before relaxing)
 .debug_str     0x0000ec4f       0xde C:/ProgramData/KMC/SOLID/SDK/2.0/solid-os/rtos/toppers_asp3/lib/armv7aLaiv/CT__\libkernel.a(kmc_evttracker_rtos.o)
                                0x604 (size before relaxing)
 .debug_str     0x0000ed2d      0x1ee C:/ProgramData/KMC/SOLID/SDK/2.0/solid-os/rtos/toppers_asp3/lib/armv7aLaiv/CT__\libkernel.a(rtos_prof.o)
                                0x54b (size before relaxing)
 .debug_str     0x0000ef1b       0x8d C:/ProgramData/KMC/SOLID/SDK/2.0/solid-os/rtos/toppers_asp3/lib/armv7aLaiv/CT__\libkernel.a(kernel_cfg_intl.o)
                                0x13c (size before relaxing)
 .debug_str     0x0000efa8       0xa8 C:/ProgramData/KMC/SOLID/SDK/2.0/solid-os/rtos/toppers_asp3/lib/armv7aLaiv/CT__\libkernel.a(alarm.o)
                                0x3c0 (size before relaxing)
 .debug_str     0x0000f050      0x141 C:/ProgramData/KMC/SOLID/SDK/2.0/solid-os/rtos/toppers_asp3/lib/armv7aLaiv/CT__\libkernel.a(core_kernel_impl.o)
                                0x25c (size before relaxing)
 .debug_str     0x0000f191       0x8e C:/ProgramData/KMC/SOLID/SDK/2.0/solid-os/rtos/toppers_asp3/lib/armv7aLaiv/CT__\libkernel.a(cyclic.o)
                                0x295 (size before relaxing)
 .debug_str     0x0000f21f      0x109 C:/ProgramData/KMC/SOLID/SDK/2.0/solid-os/rtos/toppers_asp3/lib/armv7aLaiv/CT__\libkernel.a(eventflag.o)
                                0x604 (size before relaxing)
 .debug_str     0x0000f328       0x78 C:/ProgramData/KMC/SOLID/SDK/2.0/solid-os/rtos/toppers_asp3/lib/armv7aLaiv/CT__\libkernel.a(exception.o)
                                0x16d (size before relaxing)
 .debug_str     0x0000f3a0      0x100 C:/ProgramData/KMC/SOLID/SDK/2.0/solid-os/rtos/toppers_asp3/lib/armv7aLaiv/CT__\libkernel.a(mempfix.o)
                                0x651 (size before relaxing)
 .debug_str     0x0000f4a0      0x144 C:/ProgramData/KMC/SOLID/SDK/2.0/solid-os/rtos/toppers_asp3/lib/armv7aLaiv/CT__\libkernel.a(tSysLog.o)
                                0x292 (size before relaxing)
 .debug_str     0x0000f5e4      0x16c C:/ProgramData/KMC/SOLID/SDK/2.0/solid-os/rtos/toppers_asp3/lib/armv7aLaiv/CT__\libkernel.a(mutex.o)
                                0x69d (size before relaxing)
 .debug_str     0x0000f750      0x189 C:/ProgramData/KMC/SOLID/SDK/2.0/solid-os/rtos/toppers_asp3/lib/armv7aLaiv/CT__\libkernel.a(pridataq.o)
                                0x712 (size before relaxing)
 .debug_str     0x0000f8d9       0x79 C:/ProgramData/KMC/SOLID/SDK/2.0/solid-os/rtos/toppers_asp3/lib/armv7aLaiv/CT__\libkernel.a(task_refer.o)
                                0x895 (size before relaxing)
 .debug_str     0x0000f952       0x66 C:/ProgramData/KMC/SOLID/SDK/2.0/solid-os/rtos/toppers_asp3/lib/armv7aLaiv/CT__\libkernel.a(task_sync.o)
                                0x45f (size before relaxing)
 .debug_str     0x0000f9b8       0x5d C:/ProgramData/KMC/SOLID/SDK/2.0/solid-os/rtos/toppers_asp3/lib/armv7aLaiv/CT__\libkernel.a(task_term.o)
                                0x3ae (size before relaxing)
 .debug_str     0x0000fa15       0x58 C:/ProgramData/KMC/SOLID/SDK/2.0/solid-os/rtos/toppers_asp3/lib/armv7aLaiv/CT__\libkernel.a(time_manage.o)
                                0x1fa (size before relaxing)
 .debug_str     0x0000fa6d       0xb3 C:/ProgramData/KMC/SOLID/SDK/2.0/solid-os/rtos/toppers_asp3/lib/armv7aLaiv/CT__\libkernel.a(log_output.o)
                                0x190 (size before relaxing)
 .debug_str     0x0000fb20       0xd1 C:/Users/admin/Documents/SOLID-IDE/Projects/lwip_server/Debug_tasan/exeClang_SOLID/\libbsp.a(impl_cs_event.o)
                                0x257 (size before relaxing)
 .debug_str     0x0000fbf1      0x1e7 C:/Users/admin/Documents/SOLID-IDE/Projects/lwip_server/Debug_tasan/exeClang_SOLID/\libbsp.a(impl_dmac.o)
                                0x4a8 (size before relaxing)
 .debug_str     0x0000fdd8       0x84 C:/Users/admin/Documents/SOLID-IDE/Projects/lwip_server/Debug_tasan/exeClang_SOLID/\libbsp.a(impl_iores.o)
                                0x190 (size before relaxing)
 .debug_str     0x0000fe5c       0x91 C:/Users/admin/Documents/SOLID-IDE/Projects/lwip_server/Debug_tasan/exeClang_SOLID/\libbsp.a(impl_log.o)
                                0x1b2 (size before relaxing)
 .debug_str     0x0000feed      0x48d C:/Users/admin/Documents/SOLID-IDE/Projects/lwip_server/Debug_tasan/exeClang_SOLID/\libbsp.a(impl_net_dev_ether.o)
                                0x899 (size before relaxing)
 .debug_str     0x0001037a      0x1dc C:/Users/admin/Documents/SOLID-IDE/Projects/lwip_server/Debug_tasan/exeClang_SOLID/\libbsp.a(impl_net_dev_get_macaddr.o)
                                0x347 (size before relaxing)
 .debug_str     0x00010556       0x9a C:/Users/admin/Documents/SOLID-IDE/Projects/lwip_server/Debug_tasan/exeClang_SOLID/\libbsp.a(impl_net_dev_getconfig.o)
                                0x19d (size before relaxing)
 .debug_str     0x000105f0       0xe4 C:/Users/admin/Documents/SOLID-IDE/Projects/lwip_server/Debug_tasan/exeClang_SOLID/\libbsp.a(impl_rtc.o)
                                0x20e (size before relaxing)
 .debug_str     0x000106d4      0x158 C:/Users/admin/Documents/SOLID-IDE/Projects/lwip_server/Debug_tasan/exeClang_SOLID/\libbsp.a(impl_timer.o)
                                0x2ef (size before relaxing)
 .debug_str     0x0001082c      0x2ea C:/Users/admin/Documents/SOLID-IDE/Projects/lwip_server/Debug_tasan/exeClang_SOLID/\libbsp.a(rtc.o)
                                0x445 (size before relaxing)
 .debug_str     0x00010b16      0x297 C:/Users/admin/Documents/SOLID-IDE/Projects/lwip_server/Debug_tasan/exeClang_SOLID/\libbsp.a(rtc_userdef.o)
                                0x488 (size before relaxing)
 .debug_str     0x00010dad      0x306 C:/Users/admin/Documents/SOLID-IDE/Projects/lwip_server/Debug_tasan/exeClang_SOLID/\libbsp.a(bsp_globals.o)
                                0x3f9 (size before relaxing)
 .debug_str     0x000110b3       0xf8 C:/Users/admin/Documents/SOLID-IDE/Projects/lwip_server/Debug_tasan/exeClang_SOLID/\libbsp.a(rza_io_regrw.o)
                                0x1f2 (size before relaxing)
 .debug_str     0x000111ab      0xafd C:/GCC4/ARM/s002/lib/armv7aLaiv\libstdc++.a(class_type_info.o)
                                0xe59 (size before relaxing)
 .debug_str     0x00011ca8      0x249 C:/GCC4/ARM/s002/lib/armv7aLaiv\libstdc++.a(new_handler.o)
                                0x70b (size before relaxing)
 .debug_str     0x00011ef1      0x1bb C:/GCC4/ARM/s002/lib/armv7aLaiv\libstdc++.a(del_ops.o)
                                0x6a1 (size before relaxing)
 .debug_str     0x000120ac      0x454 C:/GCC4/ARM/s002/lib/armv7aLaiv\libstdc++.a(si_class_type_info.o)
                                0xc8e (size before relaxing)
 .debug_str     0x00012500      0x1d0 C:/GCC4/ARM/s002/lib/armv7aLaiv\libstdc++.a(del_op.o)
                                0x7d7 (size before relaxing)
 .debug_str     0x000126d0      0x3be C:/GCC4/ARM/s002/lib/armv7aLaiv\libstdc++.a(tinfo.o)
                                0x99d (size before relaxing)
 .debug_str     0x00012a8e      0xcb7 C:/GCC4/ARM/s002/lib/armv7aLaiv/libgcc.a(_udivmoddi4.o)
                                0xe30 (size before relaxing)
 .debug_str     0x00013745      0x8bf C:/GCC4/ARM/s002/lib/armv7aLaiv/libgcc.a(unwind-arm.o)
                                0xcfa (size before relaxing)
 .debug_str     0x00014004      0x12c C:/GCC4/ARM/s002/lib/armv7aLaiv/libgcc.a(pr-support.o)
                                0x59f (size before relaxing)
 .debug_str     0x00014130      0x209 C:/GCC4/ARM/s002/lib/armv7aLaiv/libc.a(_m_init.o)
                                0x344 (size before relaxing)
 .debug_str     0x00014339       0x8f C:/GCC4/ARM/s002/lib/armv7aLaiv/libc.a(abort.o)
                                0x266 (size before relaxing)
 .debug_str     0x000143c8       0x95 C:/GCC4/ARM/s002/lib/armv7aLaiv/libc.a(errno.o)
                                0x24f (size before relaxing)
 .debug_str     0x0001445d       0x4f C:/GCC4/ARM/s002/lib/armv7aLaiv/libc.a(atoi.o)
                                0x20e (size before relaxing)
 .debug_str     0x000144ac       0x61 C:/GCC4/ARM/s002/lib/armv7aLaiv/libc.a(rand.o)
                                0x22b (size before relaxing)
 .debug_str     0x0001450d      0x252 C:/GCC4/ARM/s002/lib/armv7aLaiv/libc.a(strtol.o)
                                0x4f4 (size before relaxing)
 .debug_str     0x0001475f       0x61 C:/GCC4/ARM/s002/lib/armv7aLaiv/libc.a(strtoul.o)
                                0x4f8 (size before relaxing)
 .debug_str     0x000147c0      0x25d C:/GCC4/ARM/s002/lib/armv7aLaiv/libc.a(atexit.o)
                                0x429 (size before relaxing)
 .debug_str     0x00014a1d      0x2f4 C:/GCC4/ARM/s002/lib/armv7aLaiv/libc.a(isctype.o)
                                0x7fb (size before relaxing)
 .debug_str     0x00014d11      0x143 C:/GCC4/ARM/s002/lib/armv7aLaiv/libc.a(global_locale.o)
                                0x7e7 (size before relaxing)
 .debug_str     0x00014e54      0x3f1 C:/GCC4/ARM/s002/lib/armv7aLaiv/libc.a(runetable.o)
                                0x82d (size before relaxing)
 .debug_str     0x00015245       0x8b C:/GCC4/ARM/s002/lib/armv7aLaiv/libc.a(thread-stub-init.o)
                                0x231 (size before relaxing)
 .debug_str     0x000152d0      0x53e C:/GCC4/ARM/s002/lib/armv7aLaiv/libc.a(thread-stub.o)
                                0x881 (size before relaxing)
 .debug_str     0x0001580e       0x6c C:/GCC4/ARM/s002/lib/armv7aLaiv/libc.a(ssp_init.o)
                                0x14e (size before relaxing)
 .debug_str     0x0001587a      0x1aa C:/GCC4/ARM/s002/lib/armv7aLaiv/libc.a(findfp.o)
                                0x681 (size before relaxing)
 .debug_str     0x00015a24       0x5c C:/GCC4/ARM/s002/lib/armv7aLaiv/libc.a(fprintf.o)
                                0x2fb (size before relaxing)
 .debug_str     0x00015a80       0x71 C:/GCC4/ARM/s002/lib/armv7aLaiv/libc.a(stdio.o)
                                0x358 (size before relaxing)
 .debug_str     0x00015af1      0x4b4 C:/GCC4/ARM/s002/lib/armv7aLaiv/libc.a(vfprintf.o)
                                0xd61 (size before relaxing)
 .debug_str     0x00015fa5       0x86 C:/GCC4/ARM/s002/lib/armv7aLaiv/libc.a(vsnprintf.o)
                                0x7f5 (size before relaxing)
 .debug_str     0x0001602b       0x5a C:/GCC4/ARM/s002/lib/armv7aLaiv/libc.a(wsetup.o)
                                0x52e (size before relaxing)
 .debug_str     0x00016085       0xdd C:/GCC4/ARM/s002/lib/armv7aLaiv/libc.a(makebuf.o)
                                0x3f1 (size before relaxing)
 .debug_str     0x00016162       0x55 C:/GCC4/ARM/s002/lib/armv7aLaiv/libc.a(close.o)
                                0x27e (size before relaxing)
 .debug_str     0x000161b7       0x65 C:/GCC4/ARM/s002/lib/armv7aLaiv/libc.a(fstat.o)
                                0x345 (size before relaxing)
 .debug_str     0x0001621c       0x49 C:/GCC4/ARM/s002/lib/armv7aLaiv/libc.a(lseek.o)
                                0x26b (size before relaxing)
 .debug_str     0x00016265       0x52 C:/GCC4/ARM/s002/lib/armv7aLaiv/libc.a(open.o)
                                0x2d1 (size before relaxing)
 .debug_str     0x000162b7      0x436 C:/GCC4/ARM/s002/lib/armv7aLaiv/libc.a(osemu.o)
                                0x6c1 (size before relaxing)
 .debug_str     0x000166ed       0x84 C:/GCC4/ARM/s002/lib/armv7aLaiv/libc.a(perror.o)
                                0x2eb (size before relaxing)
 .debug_str     0x00016771       0x5f C:/GCC4/ARM/s002/lib/armv7aLaiv/libc.a(read.o)
                                0x282 (size before relaxing)
 .debug_str     0x000167d0       0xb1 C:/GCC4/ARM/s002/lib/armv7aLaiv/libc.a(u2dname.o)
                                0x31d (size before relaxing)
 .debug_str     0x00016881       0x8b C:/GCC4/ARM/s002/lib/armv7aLaiv/libc.a(utime.o)
                                0x319 (size before relaxing)
 .debug_str     0x0001690c       0x4f C:/GCC4/ARM/s002/lib/armv7aLaiv/libc.a(write.o)
                                0x27e (size before relaxing)
 .debug_str     0x0001695b      0x2b5 C:/GCC4/ARM/s002/lib/armv7aLaiv/libc.a(_env.o)
                                0x5db (size before relaxing)
 .debug_str     0x00016c10       0x5c C:/GCC4/ARM/s002/lib/armv7aLaiv/libc.a(exit.o)
                                0x338 (size before relaxing)
 .debug_str     0x00016c6c       0x5e C:/GCC4/ARM/s002/lib/armv7aLaiv/libc.a(signal.o)
                                0x219 (size before relaxing)
 .debug_str     0x00016cca       0x9c C:/GCC4/ARM/s002/lib/armv7aLaiv/libc.a(localtime.o)
                                0x312 (size before relaxing)
 .debug_str     0x00016d66       0x5d C:/GCC4/ARM/s002/lib/armv7aLaiv/libc.a(lldiv.o)
                                0x224 (size before relaxing)
 .debug_str     0x00016dc3       0x58 C:/GCC4/ARM/s002/lib/armv7aLaiv/libc.a(memchr.o)
                                0x1b7 (size before relaxing)
 .debug_str     0x00016e1b       0x62 C:/GCC4/ARM/s002/lib/armv7aLaiv/libc.a(strcspn.o)
                                0x1d9 (size before relaxing)
 .debug_str     0x00016e7d       0x63 C:/GCC4/ARM/s002/lib/armv7aLaiv/libc.a(strncasecmp.o)
                                0x21d (size before relaxing)
 .debug_str     0x00016ee0       0x59 C:/GCC4/ARM/s002/lib/armv7aLaiv/libc.a(strdup.o)
                                0x220 (size before relaxing)
 .debug_str     0x00016f39       0x50 C:/GCC4/ARM/s002/lib/armv7aLaiv/libc.a(ctype_.o)
                                0x2fe (size before relaxing)
 .debug_str     0x00016f89       0x52 C:/GCC4/ARM/s002/lib/armv7aLaiv/libc.a(toupper_.o)
                                0x300 (size before relaxing)
 .debug_str     0x00016fdb       0x52 C:/GCC4/ARM/s002/lib/armv7aLaiv/libc.a(tolower_.o)
                                0x300 (size before relaxing)
 .debug_str     0x0001702d      0x161 C:/GCC4/ARM/s002/lib/armv7aLaiv/libc.a(citrus_ctype.o)
                                0x7f5 (size before relaxing)
 .debug_str     0x0001718e      0x567 C:/GCC4/ARM/s002/lib/armv7aLaiv/libc.a(citrus_none.o)
                                0xc4b (size before relaxing)
 .debug_str     0x000176f5      0x6f4 C:/GCC4/ARM/s002/lib/armv7aLaiv/libc.a(citrus_mskanji.o)
                                0xfb4 (size before relaxing)
 .debug_str     0x00017de9      0x5d8 C:/GCC4/ARM/s002/lib/armv7aLaiv/libc.a(citrus_utf8.o)
                                0xf48 (size before relaxing)
 .debug_str     0x000183c1       0x6d C:/GCC4/ARM/s002/lib/armv7aLaiv/libc.a(localeconv.o)
                                0x496 (size before relaxing)
 .debug_str     0x0001842e      0x279 C:/GCC4/ARM/s002/lib/armv7aLaiv/libc.a(multibyte_amd1.o)
                                0xd60 (size before relaxing)
 .debug_str     0x000186a7       0x5c C:/GCC4/ARM/s002/lib/armv7aLaiv/libc.a(__isthreaded.o)
                                0x13d (size before relaxing)
 .debug_str     0x00018703      0x161 C:/GCC4/ARM/s002/lib/armv7aLaiv/libc.a(dtoa.o)
                                0x472 (size before relaxing)
 .debug_str     0x00018864       0x57 C:/GCC4/ARM/s002/lib/armv7aLaiv/libc.a(ldtoa.o)
                                0x3b1 (size before relaxing)
 .debug_str     0x000188bb       0xd1 C:/GCC4/ARM/s002/lib/armv7aLaiv/libc.a(hdtoa.o)
                                0x43a (size before relaxing)
 .debug_str     0x0001898c       0x93 C:/GCC4/ARM/s002/lib/armv7aLaiv/libc.a(dmisc.o)
                                0x403 (size before relaxing)
 .debug_str     0x00018a1f      0x113 C:/GCC4/ARM/s002/lib/armv7aLaiv/libc.a(misc.o)
                                0x49e (size before relaxing)
 .debug_str     0x00018b32      0x76c C:/GCC4/ARM/s002/lib/armv7aLaiv/libc.a(softfloat.o)
                                0x99e (size before relaxing)
 .debug_str     0x0001929e       0x74 C:/GCC4/ARM/s002/lib/armv7aLaiv/libc.a(__aeabi_dcmpeq.o)
                                0x271 (size before relaxing)
 .debug_str     0x00019312       0x74 C:/GCC4/ARM/s002/lib/armv7aLaiv/libc.a(__aeabi_dcmpge.o)
                                0x271 (size before relaxing)
 .debug_str     0x00019386       0x74 C:/GCC4/ARM/s002/lib/armv7aLaiv/libc.a(__aeabi_dcmpgt.o)
                                0x271 (size before relaxing)
 .debug_str     0x000193fa       0x74 C:/GCC4/ARM/s002/lib/armv7aLaiv/libc.a(__aeabi_dcmplt.o)
                                0x271 (size before relaxing)
 .debug_str     0x0001946e      0x228 C:/GCC4/ARM/s002/lib/armv7aLaiv/libc.a(rb.o)
                                0x503 (size before relaxing)
 .debug_str     0x00019696       0x60 C:/GCC4/ARM/s002/lib/armv7aLaiv/libc.a(fflush.o)
                                0x3f3 (size before relaxing)
 .debug_str     0x000196f6       0xb5 C:/GCC4/ARM/s002/lib/armv7aLaiv/libc.a(flockfile.o)
                                0x585 (size before relaxing)
 .debug_str     0x000197ab       0x6b C:/GCC4/ARM/s002/lib/armv7aLaiv/libc.a(fvwrite.o)
                                0x351 (size before relaxing)
 .debug_str     0x00019816       0x56 C:/GCC4/ARM/s002/lib/armv7aLaiv/libc.a(fwalk.o)
                                0x2fe (size before relaxing)
 .debug_str     0x0001986c       0x49 C:/GCC4/ARM/s002/lib/armv7aLaiv/libc.a(creat.o)
                                0x27d (size before relaxing)
 .debug_str     0x000198b5       0x6d C:/GCC4/ARM/s002/lib/armv7aLaiv/libc.a(fpclassifyd_ieee754.o)
                                0x2d4 (size before relaxing)
 .debug_str     0x00019922       0x61 C:/GCC4/ARM/s002/lib/armv7aLaiv/libc.a(strcasecmp.o)
                                0x214 (size before relaxing)
 .debug_str     0x00019983       0x55 C:/GCC4/ARM/s002/lib/armv7aLaiv/libc.a(gdtoa_locks.o)
                                0x397 (size before relaxing)

.debug_loc      0x00000000    0x16151
 *(.debug_loc)
 .debug_loc     0x00000000       0x8e C:/Users/admin/Documents/SOLID-IDE/Projects/lwip_server/Debug_tasan/exeClang_SOLID/lwip_server/lwip_server_all.o
 .debug_loc     0x0000008e       0x24 C:/Users/admin/Documents/SOLID-IDE/Projects/lwip_server/Debug_tasan/exeClang_SOLID/\libbsp.a(impl_log.o)
 .debug_loc     0x000000b2       0x8e C:/Users/admin/Documents/SOLID-IDE/Projects/lwip_server/Debug_tasan/exeClang_SOLID/\libbsp.a(impl_net_dev_ether.o)
 .debug_loc     0x00000140       0x24 C:/Users/admin/Documents/SOLID-IDE/Projects/lwip_server/Debug_tasan/exeClang_SOLID/\libbsp.a(impl_net_dev_get_macaddr.o)
 .debug_loc     0x00000164       0x5c C:/Users/admin/Documents/SOLID-IDE/Projects/lwip_server/Debug_tasan/exeClang_SOLID/\libbsp.a(impl_rtc.o)
 .debug_loc     0x000001c0      0x124 C:/Users/admin/Documents/SOLID-IDE/Projects/lwip_server/Debug_tasan/exeClang_SOLID/\libbsp.a(rtc.o)
 .debug_loc     0x000002e4       0x14 C:/Users/admin/Documents/SOLID-IDE/Projects/lwip_server/Debug_tasan/exeClang_SOLID/\libbsp.a(rtc_userdef.o)
 .debug_loc     0x000002f8       0x78 C:/Users/admin/Documents/SOLID-IDE/Projects/lwip_server/Debug_tasan/exeClang_SOLID/\libbsp.a(rza_io_regrw.o)
 .debug_loc     0x00000370      0x345 C:/GCC4/ARM/s002/lib/armv7aLaiv\libstdc++.a(class_type_info.o)
 .debug_loc     0x000006b5       0x1e C:/GCC4/ARM/s002/lib/armv7aLaiv\libstdc++.a(new_handler.o)
 .debug_loc     0x000006d3       0x13 C:/GCC4/ARM/s002/lib/armv7aLaiv\libstdc++.a(del_ops.o)
 .debug_loc     0x000006e6      0x497 C:/GCC4/ARM/s002/lib/armv7aLaiv\libstdc++.a(si_class_type_info.o)
 .debug_loc     0x00000b7d       0x13 C:/GCC4/ARM/s002/lib/armv7aLaiv\libstdc++.a(del_op.o)
 .debug_loc     0x00000b90       0xa6 C:/GCC4/ARM/s002/lib/armv7aLaiv\libstdc++.a(tinfo.o)
 .debug_loc     0x00000c36      0x142 C:/GCC4/ARM/s002/lib/armv7aLaiv/libgcc.a(_udivmoddi4.o)
 .debug_loc     0x00000d78      0xfc7 C:/GCC4/ARM/s002/lib/armv7aLaiv/libgcc.a(unwind-arm.o)
 .debug_loc     0x00001d3f      0x2e2 C:/GCC4/ARM/s002/lib/armv7aLaiv/libgcc.a(pr-support.o)
 .debug_loc     0x00002021      0x2b2 C:/GCC4/ARM/s002/lib/armv7aLaiv/libc.a(_m_init.o)
 .debug_loc     0x000022d3       0x3c C:/GCC4/ARM/s002/lib/armv7aLaiv/libc.a(abort.o)
 .debug_loc     0x0000230f       0x13 C:/GCC4/ARM/s002/lib/armv7aLaiv/libc.a(atoi.o)
 .debug_loc     0x00002322      0x33e C:/GCC4/ARM/s002/lib/armv7aLaiv/libc.a(strtol.o)
 .debug_loc     0x00002660      0x20e C:/GCC4/ARM/s002/lib/armv7aLaiv/libc.a(strtoul.o)
 .debug_loc     0x0000286e      0x1ab C:/GCC4/ARM/s002/lib/armv7aLaiv/libc.a(atexit.o)
 .debug_loc     0x00002a19      0x23a C:/GCC4/ARM/s002/lib/armv7aLaiv/libc.a(isctype.o)
 .debug_loc     0x00002c53      0x2b9 C:/GCC4/ARM/s002/lib/armv7aLaiv/libc.a(thread-stub.o)
 .debug_loc     0x00002f0c       0xde C:/GCC4/ARM/s002/lib/armv7aLaiv/libc.a(findfp.o)
 .debug_loc     0x00002fea       0x39 C:/GCC4/ARM/s002/lib/armv7aLaiv/libc.a(fprintf.o)
 .debug_loc     0x00003023      0x183 C:/GCC4/ARM/s002/lib/armv7aLaiv/libc.a(stdio.o)
 .debug_loc     0x000031a6     0x3ac0 C:/GCC4/ARM/s002/lib/armv7aLaiv/libc.a(vfprintf.o)
 .debug_loc     0x00006c66      0x1aa C:/GCC4/ARM/s002/lib/armv7aLaiv/libc.a(vsnprintf.o)
 .debug_loc     0x00006e10       0x34 C:/GCC4/ARM/s002/lib/armv7aLaiv/libc.a(wsetup.o)
 .debug_loc     0x00006e44       0xc2 C:/GCC4/ARM/s002/lib/armv7aLaiv/libc.a(makebuf.o)
 .debug_loc     0x00006f06       0x8e C:/GCC4/ARM/s002/lib/armv7aLaiv/libc.a(close.o)
 .debug_loc     0x00006f94       0xaf C:/GCC4/ARM/s002/lib/armv7aLaiv/libc.a(fstat.o)
 .debug_loc     0x00007043       0x66 C:/GCC4/ARM/s002/lib/armv7aLaiv/libc.a(lseek.o)
 .debug_loc     0x000070a9       0xe2 C:/GCC4/ARM/s002/lib/armv7aLaiv/libc.a(open.o)
 .debug_loc     0x0000718b      0xe1f C:/GCC4/ARM/s002/lib/armv7aLaiv/libc.a(osemu.o)
 .debug_loc     0x00007faa       0xee C:/GCC4/ARM/s002/lib/armv7aLaiv/libc.a(perror.o)
 .debug_loc     0x00008098      0x1df C:/GCC4/ARM/s002/lib/armv7aLaiv/libc.a(read.o)
 .debug_loc     0x00008277      0x274 C:/GCC4/ARM/s002/lib/armv7aLaiv/libc.a(u2dname.o)
 .debug_loc     0x000084eb       0x83 C:/GCC4/ARM/s002/lib/armv7aLaiv/libc.a(utime.o)
 .debug_loc     0x0000856e      0x21e C:/GCC4/ARM/s002/lib/armv7aLaiv/libc.a(write.o)
 .debug_loc     0x0000878c      0x494 C:/GCC4/ARM/s002/lib/armv7aLaiv/libc.a(_env.o)
 .debug_loc     0x00008c20       0x6d C:/GCC4/ARM/s002/lib/armv7aLaiv/libc.a(exit.o)
 .debug_loc     0x00008c8d       0x26 C:/GCC4/ARM/s002/lib/armv7aLaiv/libc.a(signal.o)
 .debug_loc     0x00008cb3      0x2c2 C:/GCC4/ARM/s002/lib/armv7aLaiv/libc.a(localtime.o)
 .debug_loc     0x00008f75       0xae C:/GCC4/ARM/s002/lib/armv7aLaiv/libc.a(lldiv.o)
 .debug_loc     0x00009023       0x5f C:/GCC4/ARM/s002/lib/armv7aLaiv/libc.a(memchr.o)
 .debug_loc     0x00009082       0xb2 C:/GCC4/ARM/s002/lib/armv7aLaiv/libc.a(strcspn.o)
 .debug_loc     0x00009134       0x5a C:/GCC4/ARM/s002/lib/armv7aLaiv/libc.a(strncasecmp.o)
 .debug_loc     0x0000918e       0x3c C:/GCC4/ARM/s002/lib/armv7aLaiv/libc.a(strdup.o)
 .debug_loc     0x000091ca       0x75 C:/GCC4/ARM/s002/lib/armv7aLaiv/libc.a(citrus_ctype.o)
 .debug_loc     0x0000923f      0xd9b C:/GCC4/ARM/s002/lib/armv7aLaiv/libc.a(citrus_none.o)
 .debug_loc     0x00009fda     0x2057 C:/GCC4/ARM/s002/lib/armv7aLaiv/libc.a(citrus_mskanji.o)
 .debug_loc     0x0000c031     0x1c5f C:/GCC4/ARM/s002/lib/armv7aLaiv/libc.a(citrus_utf8.o)
 .debug_loc     0x0000dc90       0x13 C:/GCC4/ARM/s002/lib/armv7aLaiv/libc.a(localeconv.o)
 .debug_loc     0x0000dca3      0xed8 C:/GCC4/ARM/s002/lib/armv7aLaiv/libc.a(multibyte_amd1.o)
 .debug_loc     0x0000eb7b     0x1a80 C:/GCC4/ARM/s002/lib/armv7aLaiv/libc.a(dtoa.o)
 .debug_loc     0x000105fb       0x6e C:/GCC4/ARM/s002/lib/armv7aLaiv/libc.a(ldtoa.o)
 .debug_loc     0x00010669      0x1be C:/GCC4/ARM/s002/lib/armv7aLaiv/libc.a(hdtoa.o)
 .debug_loc     0x00010827      0x363 C:/GCC4/ARM/s002/lib/armv7aLaiv/libc.a(dmisc.o)
 .debug_loc     0x00010b8a      0xdec C:/GCC4/ARM/s002/lib/armv7aLaiv/libc.a(misc.o)
 .debug_loc     0x00011976     0x3552 C:/GCC4/ARM/s002/lib/armv7aLaiv/libc.a(softfloat.o)
 .debug_loc     0x00014ec8       0x30 C:/GCC4/ARM/s002/lib/armv7aLaiv/libc.a(__aeabi_dcmpeq.o)
 .debug_loc     0x00014ef8       0x30 C:/GCC4/ARM/s002/lib/armv7aLaiv/libc.a(__aeabi_dcmpge.o)
 .debug_loc     0x00014f28       0x30 C:/GCC4/ARM/s002/lib/armv7aLaiv/libc.a(__aeabi_dcmpgt.o)
 .debug_loc     0x00014f58       0x30 C:/GCC4/ARM/s002/lib/armv7aLaiv/libc.a(__aeabi_dcmplt.o)
 .debug_loc     0x00014f88      0xaad C:/GCC4/ARM/s002/lib/armv7aLaiv/libc.a(rb.o)
 .debug_loc     0x00015a35      0x106 C:/GCC4/ARM/s002/lib/armv7aLaiv/libc.a(fflush.o)
 .debug_loc     0x00015b3b      0x152 C:/GCC4/ARM/s002/lib/armv7aLaiv/libc.a(flockfile.o)
 .debug_loc     0x00015c8d      0x340 C:/GCC4/ARM/s002/lib/armv7aLaiv/libc.a(fvwrite.o)
 .debug_loc     0x00015fcd       0x96 C:/GCC4/ARM/s002/lib/armv7aLaiv/libc.a(fwalk.o)
 .debug_loc     0x00016063       0x70 C:/GCC4/ARM/s002/lib/armv7aLaiv/libc.a(creat.o)
 .debug_loc     0x000160d3       0x58 C:/GCC4/ARM/s002/lib/armv7aLaiv/libc.a(fpclassifyd_ieee754.o)
 .debug_loc     0x0001612b       0x26 C:/GCC4/ARM/s002/lib/armv7aLaiv/libc.a(strcasecmp.o)

.debug_macinfo  0x00000000       0x70
 *(.debug_macinfo)
 .debug_macinfo
                0x00000000        0x3 C:/Users/admin/Documents/SOLID-IDE/Projects/lwip_server/Debug_tasan/exeClang_SOLID/lwip_server/lwip_server_all.o
 .debug_macinfo
                0x00000003        0x1 C:/ProgramData/KMC/SOLID/SDK/2.0/solid-os/core/lib/armv7aLaiv/CT_\libsolid_cs.a(solid_cs_main.o)
 .debug_macinfo
                0x00000004        0x1 C:/ProgramData/KMC/SOLID/SDK/2.0/solid-os/core/lib/armv7aLaiv/CT_\libsolid_cs.a(kmc_trace_mem_dummy.o)
 .debug_macinfo
                0x00000005        0x1 C:/ProgramData/KMC/SOLID/SDK/2.0/solid-os/core/lib/armv7aLaiv/CT_\libsolid_cs.a(solid_cs_event.o)
 .debug_macinfo
                0x00000006        0x1 C:/ProgramData/KMC/SOLID/SDK/2.0/solid-os/core/lib/armv7aLaiv/CT_\libsolid_cs.a(solid_debugger.o)
 .debug_macinfo
                0x00000007        0x1 C:/ProgramData/KMC/SOLID/SDK/2.0/solid-os/core/lib/armv7aLaiv/CT_\libsolid_cs.a(solid_dmac.o)
 .debug_macinfo
                0x00000008        0x1 C:/ProgramData/KMC/SOLID/SDK/2.0/solid-os/core/lib/armv7aLaiv/CT_\libsolid_cs.a(solid_exception.o)
 .debug_macinfo
                0x00000009        0x1 C:/ProgramData/KMC/SOLID/SDK/2.0/solid-os/core/lib/armv7aLaiv/CT_\libsolid_cs.a(solid_fs_base.o)
 .debug_macinfo
                0x0000000a        0x1 C:/ProgramData/KMC/SOLID/SDK/2.0/solid-os/core/lib/armv7aLaiv/CT_\libsolid_cs.a(solid_fs_mem.o)
 .debug_macinfo
                0x0000000b        0x1 C:/ProgramData/KMC/SOLID/SDK/2.0/solid-os/core/lib/armv7aLaiv/CT_\libsolid_cs.a(solid_fs_vlink.o)
 .debug_macinfo
                0x0000000c        0x1 C:/ProgramData/KMC/SOLID/SDK/2.0/solid-os/core/lib/armv7aLaiv/CT_\libsolid_cs.a(solid_intc.o)
 .debug_macinfo
                0x0000000d        0x1 C:/ProgramData/KMC/SOLID/SDK/2.0/solid-os/core/lib/armv7aLaiv/CT_\libsolid_cs.a(solid_iores.o)
 .debug_macinfo
                0x0000000e        0x1 C:/ProgramData/KMC/SOLID/SDK/2.0/solid-os/core/lib/armv7aLaiv/CT_\libsolid_cs.a(solid_loader.o)
 .debug_macinfo
                0x0000000f        0x1 C:/ProgramData/KMC/SOLID/SDK/2.0/solid-os/core/lib/armv7aLaiv/CT_\libsolid_cs.a(solid_loader_fixed.o)
 .debug_macinfo
                0x00000010        0x1 C:/ProgramData/KMC/SOLID/SDK/2.0/solid-os/core/lib/armv7aLaiv/CT_\libsolid_cs.a(solid_log.o)
 .debug_macinfo
                0x00000011        0x1 C:/ProgramData/KMC/SOLID/SDK/2.0/solid-os/core/lib/armv7aLaiv/CT_\libsolid_cs.a(solid_malloc.o)
 .debug_macinfo
                0x00000012        0x1 C:/ProgramData/KMC/SOLID/SDK/2.0/solid-os/core/lib/armv7aLaiv/CT_\libsolid_cs.a(solid_mem.o)
 .debug_macinfo
                0x00000013        0x1 C:/ProgramData/KMC/SOLID/SDK/2.0/solid-os/core/lib/armv7aLaiv/CT_\libsolid_cs.a(solid_mem_cache.o)
 .debug_macinfo
                0x00000014        0x1 C:/ProgramData/KMC/SOLID/SDK/2.0/solid-os/core/lib/armv7aLaiv/CT_\libsolid_cs.a(solid_mutex.o)
 .debug_macinfo
                0x00000015        0x1 C:/ProgramData/KMC/SOLID/SDK/2.0/solid-os/core/lib/armv7aLaiv/CT_\libsolid_cs.a(solid_rtc.o)
 .debug_macinfo
                0x00000016        0x1 C:/ProgramData/KMC/SOLID/SDK/2.0/solid-os/core/lib/armv7aLaiv/CT_\libsolid_cs.a(solid_timer.o)
 .debug_macinfo
                0x00000017        0x1 C:/ProgramData/KMC/SOLID/SDK/2.0/solid-os/core/lib/armv7aLaiv/CT_\libsolid_cs.a(solid_vector.o)
 .debug_macinfo
                0x00000018        0x1 C:/ProgramData/KMC/SOLID/SDK/2.0/solid-os/core/lib/armv7aLaiv/CT_\libsolid_cs.a(solid_vlink.o)
 .debug_macinfo
                0x00000019        0x1 C:/ProgramData/KMC/SOLID/SDK/2.0/solid-os/core/lib/armv7aLaiv/CT_\libsolid_cs.a(tasan.o)
 .debug_macinfo
                0x0000001a        0x1 C:/ProgramData/KMC/SOLID/SDK/2.0/solid-os/core/lib/armv7aLaiv/CT_\libsolid_cs.a(tasan_interceptors.o)
 .debug_macinfo
                0x0000001b        0x1 C:/ProgramData/KMC/SOLID/SDK/2.0/solid-os/core/lib/armv7aLaiv/CT_\libsolid_cs.a(solid_mem_mmu.o)
 .debug_macinfo
                0x0000001c        0x1 C:/ProgramData/KMC/SOLID/SDK/2.0/solid-os/core/lib/armv7aLaiv/CT_\libsolid_cs.a(kmc_evttracker_core.o)
 .debug_macinfo
                0x0000001d        0x1 C:/ProgramData/KMC/SOLID/SDK/2.0/solid-os/core/lib/armv7aLaiv/CT_\libsolid_cs.a(dlmalloc.o)
 .debug_macinfo
                0x0000001e        0x1 C:/ProgramData/KMC/SOLID/SDK/2.0/solid-os/core/lib/armv7aLaiv/CT_\libsolid_cs.a(solid_asan.o)
 .debug_macinfo
                0x0000001f        0x1 C:/ProgramData/KMC/SOLID/SDK/2.0/solid-os/core/lib/armv7aLaiv/CT_\libsolid_cs.a(solid_cs_args.o)
 .debug_macinfo
                0x00000020        0x1 C:/ProgramData/KMC/SOLID/SDK/2.0/solid-os/net/lwIP/lib/armv7aLaiv/CT_\libnet.a(sys_arch.o)
 .debug_macinfo
                0x00000021        0x1 C:/ProgramData/KMC/SOLID/SDK/2.0/solid-os/net/lwIP/lib/armv7aLaiv/CT_\libnet.a(sockets.o)
 .debug_macinfo
                0x00000022        0x1 C:/ProgramData/KMC/SOLID/SDK/2.0/solid-os/net/lwIP/lib/armv7aLaiv/CT_\libnet.a(tcpip.o)
 .debug_macinfo
                0x00000023        0x1 C:/ProgramData/KMC/SOLID/SDK/2.0/solid-os/net/lwIP/lib/armv7aLaiv/CT_\libnet.a(def.o)
 .debug_macinfo
                0x00000024        0x1 C:/ProgramData/KMC/SOLID/SDK/2.0/solid-os/net/lwIP/lib/armv7aLaiv/CT_\libnet.a(init.o)
 .debug_macinfo
                0x00000025        0x1 C:/ProgramData/KMC/SOLID/SDK/2.0/solid-os/net/lwIP/lib/armv7aLaiv/CT_\libnet.a(ip4.o)
 .debug_macinfo
                0x00000026        0x1 C:/ProgramData/KMC/SOLID/SDK/2.0/solid-os/net/lwIP/lib/armv7aLaiv/CT_\libnet.a(ip4_addr.o)
 .debug_macinfo
                0x00000027        0x1 C:/ProgramData/KMC/SOLID/SDK/2.0/solid-os/net/lwIP/lib/armv7aLaiv/CT_\libnet.a(ip4_frag.o)
 .debug_macinfo
                0x00000028        0x1 C:/ProgramData/KMC/SOLID/SDK/2.0/solid-os/net/lwIP/lib/armv7aLaiv/CT_\libnet.a(mem.o)
 .debug_macinfo
                0x00000029        0x1 C:/ProgramData/KMC/SOLID/SDK/2.0/solid-os/net/lwIP/lib/armv7aLaiv/CT_\libnet.a(memp.o)
 .debug_macinfo
                0x0000002a        0x1 C:/ProgramData/KMC/SOLID/SDK/2.0/solid-os/net/lwIP/lib/armv7aLaiv/CT_\libnet.a(netif.o)
 .debug_macinfo
                0x0000002b        0x1 C:/ProgramData/KMC/SOLID/SDK/2.0/solid-os/net/lwIP/lib/armv7aLaiv/CT_\libnet.a(pbuf.o)
 .debug_macinfo
                0x0000002c        0x1 C:/ProgramData/KMC/SOLID/SDK/2.0/solid-os/net/lwIP/lib/armv7aLaiv/CT_\libnet.a(stats.o)
 .debug_macinfo
                0x0000002d        0x1 C:/ProgramData/KMC/SOLID/SDK/2.0/solid-os/net/lwIP/lib/armv7aLaiv/CT_\libnet.a(tcp.o)
 .debug_macinfo
                0x0000002e        0x1 C:/ProgramData/KMC/SOLID/SDK/2.0/solid-os/net/lwIP/lib/armv7aLaiv/CT_\libnet.a(tcp_in.o)
 .debug_macinfo
                0x0000002f        0x1 C:/ProgramData/KMC/SOLID/SDK/2.0/solid-os/net/lwIP/lib/armv7aLaiv/CT_\libnet.a(tcp_out.o)
 .debug_macinfo
                0x00000030        0x1 C:/ProgramData/KMC/SOLID/SDK/2.0/solid-os/net/lwIP/lib/armv7aLaiv/CT_\libnet.a(timeouts.o)
 .debug_macinfo
                0x00000031        0x1 C:/ProgramData/KMC/SOLID/SDK/2.0/solid-os/net/lwIP/lib/armv7aLaiv/CT_\libnet.a(udp.o)
 .debug_macinfo
                0x00000032        0x1 C:/ProgramData/KMC/SOLID/SDK/2.0/solid-os/net/lwIP/lib/armv7aLaiv/CT_\libnet.a(ethernet.o)
 .debug_macinfo
                0x00000033        0x1 C:/ProgramData/KMC/SOLID/SDK/2.0/solid-os/net/lwIP/lib/armv7aLaiv/CT_\libnet.a(solid_net_if.o)
 .debug_macinfo
                0x00000034        0x1 C:/ProgramData/KMC/SOLID/SDK/2.0/solid-os/net/lwIP/lib/armv7aLaiv/CT_\libnet.a(solid_net_registerapi.o)
 .debug_macinfo
                0x00000035        0x1 C:/ProgramData/KMC/SOLID/SDK/2.0/solid-os/net/lwIP/lib/armv7aLaiv/CT_\libnet.a(impl_net_stack.o)
 .debug_macinfo
                0x00000036        0x1 C:/ProgramData/KMC/SOLID/SDK/2.0/solid-os/net/lwIP/lib/armv7aLaiv/CT_\libnet.a(impl_net_stack_errno.o)
 .debug_macinfo
                0x00000037        0x1 C:/ProgramData/KMC/SOLID/SDK/2.0/solid-os/net/lwIP/lib/armv7aLaiv/CT_\libnet.a(ethernetif.o)
 .debug_macinfo
                0x00000038        0x1 C:/ProgramData/KMC/SOLID/SDK/2.0/solid-os/net/lwIP/lib/armv7aLaiv/CT_\libnet.a(api_lib.o)
 .debug_macinfo
                0x00000039        0x1 C:/ProgramData/KMC/SOLID/SDK/2.0/solid-os/net/lwIP/lib/armv7aLaiv/CT_\libnet.a(api_msg.o)
 .debug_macinfo
                0x0000003a        0x1 C:/ProgramData/KMC/SOLID/SDK/2.0/solid-os/net/lwIP/lib/armv7aLaiv/CT_\libnet.a(err.o)
 .debug_macinfo
                0x0000003b        0x1 C:/ProgramData/KMC/SOLID/SDK/2.0/solid-os/net/lwIP/lib/armv7aLaiv/CT_\libnet.a(netbuf.o)
 .debug_macinfo
                0x0000003c        0x1 C:/ProgramData/KMC/SOLID/SDK/2.0/solid-os/net/lwIP/lib/armv7aLaiv/CT_\libnet.a(netdb.o)
 .debug_macinfo
                0x0000003d        0x1 C:/ProgramData/KMC/SOLID/SDK/2.0/solid-os/net/lwIP/lib/armv7aLaiv/CT_\libnet.a(dns.o)
 .debug_macinfo
                0x0000003e        0x1 C:/ProgramData/KMC/SOLID/SDK/2.0/solid-os/net/lwIP/lib/armv7aLaiv/CT_\libnet.a(inet_chksum.o)
 .debug_macinfo
                0x0000003f        0x1 C:/ProgramData/KMC/SOLID/SDK/2.0/solid-os/net/lwIP/lib/armv7aLaiv/CT_\libnet.a(ip.o)
 .debug_macinfo
                0x00000040        0x1 C:/ProgramData/KMC/SOLID/SDK/2.0/solid-os/net/lwIP/lib/armv7aLaiv/CT_\libnet.a(dhcp.o)
 .debug_macinfo
                0x00000041        0x1 C:/ProgramData/KMC/SOLID/SDK/2.0/solid-os/net/lwIP/lib/armv7aLaiv/CT_\libnet.a(etharp.o)
 .debug_macinfo
                0x00000042        0x1 C:/ProgramData/KMC/SOLID/SDK/2.0/solid-os/net/lwIP/lib/armv7aLaiv/CT_\libnet.a(icmp.o)
 .debug_macinfo
                0x00000043        0x1 C:/ProgramData/KMC/SOLID/SDK/2.0/solid-os/rtos/toppers_asp3/lib/armv7aLaiv/CT__\libkernel.a(dataqueue.o)
 .debug_macinfo
                0x00000044        0x1 C:/ProgramData/KMC/SOLID/SDK/2.0/solid-os/rtos/toppers_asp3/lib/armv7aLaiv/CT__\libkernel.a(interrupt.o)
 .debug_macinfo
                0x00000045        0x1 C:/ProgramData/KMC/SOLID/SDK/2.0/solid-os/rtos/toppers_asp3/lib/armv7aLaiv/CT__\libkernel.a(vasyslog.o)
 .debug_macinfo
                0x00000046        0x1 C:/ProgramData/KMC/SOLID/SDK/2.0/solid-os/rtos/toppers_asp3/lib/armv7aLaiv/CT__\libkernel.a(semaphore.o)
 .debug_macinfo
                0x00000047        0x1 C:/ProgramData/KMC/SOLID/SDK/2.0/solid-os/rtos/toppers_asp3/lib/armv7aLaiv/CT__\libkernel.a(startup.o)
 .debug_macinfo
                0x00000048        0x1 C:/ProgramData/KMC/SOLID/SDK/2.0/solid-os/rtos/toppers_asp3/lib/armv7aLaiv/CT__\libkernel.a(sys_manage.o)
 .debug_macinfo
                0x00000049        0x1 C:/ProgramData/KMC/SOLID/SDK/2.0/solid-os/rtos/toppers_asp3/lib/armv7aLaiv/CT__\libkernel.a(task.o)
 .debug_macinfo
                0x0000004a        0x1 C:/ProgramData/KMC/SOLID/SDK/2.0/solid-os/rtos/toppers_asp3/lib/armv7aLaiv/CT__\libkernel.a(taskhook.o)
 .debug_macinfo
                0x0000004b        0x1 C:/ProgramData/KMC/SOLID/SDK/2.0/solid-os/rtos/toppers_asp3/lib/armv7aLaiv/CT__\libkernel.a(task_manage.o)
 .debug_macinfo
                0x0000004c        0x1 C:/ProgramData/KMC/SOLID/SDK/2.0/solid-os/rtos/toppers_asp3/lib/armv7aLaiv/CT__\libkernel.a(time_event.o)
 .debug_macinfo
                0x0000004d        0x1 C:/ProgramData/KMC/SOLID/SDK/2.0/solid-os/rtos/toppers_asp3/lib/armv7aLaiv/CT__\libkernel.a(wait.o)
 .debug_macinfo
                0x0000004e        0x1 C:/ProgramData/KMC/SOLID/SDK/2.0/solid-os/rtos/toppers_asp3/lib/armv7aLaiv/CT__\libkernel.a(solid_rtos_registerapi.o)
 .debug_macinfo
                0x0000004f        0x1 C:/ProgramData/KMC/SOLID/SDK/2.0/solid-os/rtos/toppers_asp3/lib/armv7aLaiv/CT__\libkernel.a(target_fput_log.o)
 .debug_macinfo
                0x00000050        0x1 C:/ProgramData/KMC/SOLID/SDK/2.0/solid-os/rtos/toppers_asp3/lib/armv7aLaiv/CT__\libkernel.a(target_intc_impl.o)
 .debug_macinfo
                0x00000051        0x1 C:/ProgramData/KMC/SOLID/SDK/2.0/solid-os/rtos/toppers_asp3/lib/armv7aLaiv/CT__\libkernel.a(target_timer_impl.o)
 .debug_macinfo
                0x00000052        0x1 C:/ProgramData/KMC/SOLID/SDK/2.0/solid-os/rtos/toppers_asp3/lib/armv7aLaiv/CT__\libkernel.a(kmc_evttracker_rtos.o)
 .debug_macinfo
                0x00000053        0x1 C:/ProgramData/KMC/SOLID/SDK/2.0/solid-os/rtos/toppers_asp3/lib/armv7aLaiv/CT__\libkernel.a(rtos_prof.o)
 .debug_macinfo
                0x00000054        0x1 C:/ProgramData/KMC/SOLID/SDK/2.0/solid-os/rtos/toppers_asp3/lib/armv7aLaiv/CT__\libkernel.a(kernel_cfg_intl.o)
 .debug_macinfo
                0x00000055        0x1 C:/ProgramData/KMC/SOLID/SDK/2.0/solid-os/rtos/toppers_asp3/lib/armv7aLaiv/CT__\libkernel.a(alarm.o)
 .debug_macinfo
                0x00000056        0x1 C:/ProgramData/KMC/SOLID/SDK/2.0/solid-os/rtos/toppers_asp3/lib/armv7aLaiv/CT__\libkernel.a(core_kernel_impl.o)
 .debug_macinfo
                0x00000057        0x1 C:/ProgramData/KMC/SOLID/SDK/2.0/solid-os/rtos/toppers_asp3/lib/armv7aLaiv/CT__\libkernel.a(cyclic.o)
 .debug_macinfo
                0x00000058        0x1 C:/ProgramData/KMC/SOLID/SDK/2.0/solid-os/rtos/toppers_asp3/lib/armv7aLaiv/CT__\libkernel.a(eventflag.o)
 .debug_macinfo
                0x00000059        0x1 C:/ProgramData/KMC/SOLID/SDK/2.0/solid-os/rtos/toppers_asp3/lib/armv7aLaiv/CT__\libkernel.a(exception.o)
 .debug_macinfo
                0x0000005a        0x1 C:/ProgramData/KMC/SOLID/SDK/2.0/solid-os/rtos/toppers_asp3/lib/armv7aLaiv/CT__\libkernel.a(mempfix.o)
 .debug_macinfo
                0x0000005b        0x1 C:/ProgramData/KMC/SOLID/SDK/2.0/solid-os/rtos/toppers_asp3/lib/armv7aLaiv/CT__\libkernel.a(tSysLog.o)
 .debug_macinfo
                0x0000005c        0x1 C:/ProgramData/KMC/SOLID/SDK/2.0/solid-os/rtos/toppers_asp3/lib/armv7aLaiv/CT__\libkernel.a(mutex.o)
 .debug_macinfo
                0x0000005d        0x1 C:/ProgramData/KMC/SOLID/SDK/2.0/solid-os/rtos/toppers_asp3/lib/armv7aLaiv/CT__\libkernel.a(pridataq.o)
 .debug_macinfo
                0x0000005e        0x1 C:/ProgramData/KMC/SOLID/SDK/2.0/solid-os/rtos/toppers_asp3/lib/armv7aLaiv/CT__\libkernel.a(task_refer.o)
 .debug_macinfo
                0x0000005f        0x1 C:/ProgramData/KMC/SOLID/SDK/2.0/solid-os/rtos/toppers_asp3/lib/armv7aLaiv/CT__\libkernel.a(task_sync.o)
 .debug_macinfo
                0x00000060        0x1 C:/ProgramData/KMC/SOLID/SDK/2.0/solid-os/rtos/toppers_asp3/lib/armv7aLaiv/CT__\libkernel.a(task_term.o)
 .debug_macinfo
                0x00000061        0x1 C:/ProgramData/KMC/SOLID/SDK/2.0/solid-os/rtos/toppers_asp3/lib/armv7aLaiv/CT__\libkernel.a(time_manage.o)
 .debug_macinfo
                0x00000062        0x1 C:/ProgramData/KMC/SOLID/SDK/2.0/solid-os/rtos/toppers_asp3/lib/armv7aLaiv/CT__\libkernel.a(log_output.o)
 .debug_macinfo
                0x00000063        0x1 C:/Users/admin/Documents/SOLID-IDE/Projects/lwip_server/Debug_tasan/exeClang_SOLID/\libbsp.a(impl_cs_event.o)
 .debug_macinfo
                0x00000064        0x1 C:/Users/admin/Documents/SOLID-IDE/Projects/lwip_server/Debug_tasan/exeClang_SOLID/\libbsp.a(impl_dmac.o)
 .debug_macinfo
                0x00000065        0x1 C:/Users/admin/Documents/SOLID-IDE/Projects/lwip_server/Debug_tasan/exeClang_SOLID/\libbsp.a(impl_iores.o)
 .debug_macinfo
                0x00000066        0x1 C:/Users/admin/Documents/SOLID-IDE/Projects/lwip_server/Debug_tasan/exeClang_SOLID/\libbsp.a(impl_log.o)
 .debug_macinfo
                0x00000067        0x1 C:/Users/admin/Documents/SOLID-IDE/Projects/lwip_server/Debug_tasan/exeClang_SOLID/\libbsp.a(impl_net_dev_ether.o)
 .debug_macinfo
                0x00000068        0x1 C:/Users/admin/Documents/SOLID-IDE/Projects/lwip_server/Debug_tasan/exeClang_SOLID/\libbsp.a(impl_net_dev_get_macaddr.o)
 .debug_macinfo
                0x00000069        0x1 C:/Users/admin/Documents/SOLID-IDE/Projects/lwip_server/Debug_tasan/exeClang_SOLID/\libbsp.a(impl_net_dev_getconfig.o)
 .debug_macinfo
                0x0000006a        0x1 C:/Users/admin/Documents/SOLID-IDE/Projects/lwip_server/Debug_tasan/exeClang_SOLID/\libbsp.a(impl_rtc.o)
 .debug_macinfo
                0x0000006b        0x1 C:/Users/admin/Documents/SOLID-IDE/Projects/lwip_server/Debug_tasan/exeClang_SOLID/\libbsp.a(impl_timer.o)
 .debug_macinfo
                0x0000006c        0x1 C:/Users/admin/Documents/SOLID-IDE/Projects/lwip_server/Debug_tasan/exeClang_SOLID/\libbsp.a(rtc.o)
 .debug_macinfo
                0x0000006d        0x1 C:/Users/admin/Documents/SOLID-IDE/Projects/lwip_server/Debug_tasan/exeClang_SOLID/\libbsp.a(rtc_userdef.o)
 .debug_macinfo
                0x0000006e        0x1 C:/Users/admin/Documents/SOLID-IDE/Projects/lwip_server/Debug_tasan/exeClang_SOLID/\libbsp.a(bsp_globals.o)
 .debug_macinfo
                0x0000006f        0x1 C:/Users/admin/Documents/SOLID-IDE/Projects/lwip_server/Debug_tasan/exeClang_SOLID/\libbsp.a(rza_io_regrw.o)

.comment        0x00000000       0x3e
 .comment       0x00000000       0x2d C:/Users/admin/Documents/SOLID-IDE/Projects/lwip_server/Debug_tasan/exeClang_SOLID/lwip_server/lwip_server_all.o
                                 0x8a (size before relaxing)
 .comment       0x0000002d       0x2e C:/ProgramData/KMC/SOLID/SDK/2.0/solid-os/core/lib/armv7aLaiv/CT_\libsolid_cs.a(solid_cs_main.o)
 .comment       0x0000002d       0x2e C:/ProgramData/KMC/SOLID/SDK/2.0/solid-os/core/lib/armv7aLaiv/CT_\libsolid_cs.a(kmc_trace_mem_dummy.o)
 .comment       0x0000002d       0x2e C:/ProgramData/KMC/SOLID/SDK/2.0/solid-os/core/lib/armv7aLaiv/CT_\libsolid_cs.a(solid_cs_event.o)
 .comment       0x0000002d       0x2e C:/ProgramData/KMC/SOLID/SDK/2.0/solid-os/core/lib/armv7aLaiv/CT_\libsolid_cs.a(solid_debugger.o)
 .comment       0x0000002d       0x2e C:/ProgramData/KMC/SOLID/SDK/2.0/solid-os/core/lib/armv7aLaiv/CT_\libsolid_cs.a(solid_dmac.o)
 .comment       0x0000002d       0x2e C:/ProgramData/KMC/SOLID/SDK/2.0/solid-os/core/lib/armv7aLaiv/CT_\libsolid_cs.a(solid_exception.o)
 .comment       0x0000002d       0x2e C:/ProgramData/KMC/SOLID/SDK/2.0/solid-os/core/lib/armv7aLaiv/CT_\libsolid_cs.a(solid_fs_base.o)
 .comment       0x0000002d       0x2e C:/ProgramData/KMC/SOLID/SDK/2.0/solid-os/core/lib/armv7aLaiv/CT_\libsolid_cs.a(solid_fs_mem.o)
 .comment       0x0000002d       0x2e C:/ProgramData/KMC/SOLID/SDK/2.0/solid-os/core/lib/armv7aLaiv/CT_\libsolid_cs.a(solid_fs_vlink.o)
 .comment       0x0000002d       0x2e C:/ProgramData/KMC/SOLID/SDK/2.0/solid-os/core/lib/armv7aLaiv/CT_\libsolid_cs.a(solid_intc.o)
 .comment       0x0000002d       0x2e C:/ProgramData/KMC/SOLID/SDK/2.0/solid-os/core/lib/armv7aLaiv/CT_\libsolid_cs.a(solid_iores.o)
 .comment       0x0000002d       0x2e C:/ProgramData/KMC/SOLID/SDK/2.0/solid-os/core/lib/armv7aLaiv/CT_\libsolid_cs.a(solid_loader.o)
 .comment       0x0000002d       0x2e C:/ProgramData/KMC/SOLID/SDK/2.0/solid-os/core/lib/armv7aLaiv/CT_\libsolid_cs.a(solid_loader_fixed.o)
 .comment       0x0000002d       0x2e C:/ProgramData/KMC/SOLID/SDK/2.0/solid-os/core/lib/armv7aLaiv/CT_\libsolid_cs.a(solid_log.o)
 .comment       0x0000002d       0x2e C:/ProgramData/KMC/SOLID/SDK/2.0/solid-os/core/lib/armv7aLaiv/CT_\libsolid_cs.a(solid_malloc.o)
 .comment       0x0000002d       0x2e C:/ProgramData/KMC/SOLID/SDK/2.0/solid-os/core/lib/armv7aLaiv/CT_\libsolid_cs.a(solid_mem.o)
 .comment       0x0000002d       0x2e C:/ProgramData/KMC/SOLID/SDK/2.0/solid-os/core/lib/armv7aLaiv/CT_\libsolid_cs.a(solid_mem_cache.o)
 .comment       0x0000002d       0x2e C:/ProgramData/KMC/SOLID/SDK/2.0/solid-os/core/lib/armv7aLaiv/CT_\libsolid_cs.a(solid_mutex.o)
 .comment       0x0000002d       0x2e C:/ProgramData/KMC/SOLID/SDK/2.0/solid-os/core/lib/armv7aLaiv/CT_\libsolid_cs.a(solid_rtc.o)
 .comment       0x0000002d       0x2e C:/ProgramData/KMC/SOLID/SDK/2.0/solid-os/core/lib/armv7aLaiv/CT_\libsolid_cs.a(solid_timer.o)
 .comment       0x0000002d       0x2e C:/ProgramData/KMC/SOLID/SDK/2.0/solid-os/core/lib/armv7aLaiv/CT_\libsolid_cs.a(solid_vector.o)
 .comment       0x0000002d       0x2e C:/ProgramData/KMC/SOLID/SDK/2.0/solid-os/core/lib/armv7aLaiv/CT_\libsolid_cs.a(solid_vlink.o)
 .comment       0x0000002d       0x2e C:/ProgramData/KMC/SOLID/SDK/2.0/solid-os/core/lib/armv7aLaiv/CT_\libsolid_cs.a(tasan.o)
 .comment       0x0000002d       0x2e C:/ProgramData/KMC/SOLID/SDK/2.0/solid-os/core/lib/armv7aLaiv/CT_\libsolid_cs.a(tasan_interceptors.o)
 .comment       0x0000002d       0x2e C:/ProgramData/KMC/SOLID/SDK/2.0/solid-os/core/lib/armv7aLaiv/CT_\libsolid_cs.a(solid_mem_mmu.o)
 .comment       0x0000002d       0x2e C:/ProgramData/KMC/SOLID/SDK/2.0/solid-os/core/lib/armv7aLaiv/CT_\libsolid_cs.a(kmc_evttracker_core.o)
 .comment       0x0000002d       0x2e C:/ProgramData/KMC/SOLID/SDK/2.0/solid-os/core/lib/armv7aLaiv/CT_\libsolid_cs.a(dlmalloc.o)
 .comment       0x0000002d       0x2e C:/ProgramData/KMC/SOLID/SDK/2.0/solid-os/core/lib/armv7aLaiv/CT_\libsolid_cs.a(solid_asan.o)
 .comment       0x0000002d       0x2e C:/ProgramData/KMC/SOLID/SDK/2.0/solid-os/core/lib/armv7aLaiv/CT_\libsolid_cs.a(solid_cs_args.o)
 .comment       0x0000002d       0x2e C:/ProgramData/KMC/SOLID/SDK/2.0/solid-os/net/lwIP/lib/armv7aLaiv/CT_\libnet.a(sys_arch.o)
 .comment       0x0000002d       0x2e C:/ProgramData/KMC/SOLID/SDK/2.0/solid-os/net/lwIP/lib/armv7aLaiv/CT_\libnet.a(sockets.o)
 .comment       0x0000002d       0x2e C:/ProgramData/KMC/SOLID/SDK/2.0/solid-os/net/lwIP/lib/armv7aLaiv/CT_\libnet.a(tcpip.o)
 .comment       0x0000002d       0x2e C:/ProgramData/KMC/SOLID/SDK/2.0/solid-os/net/lwIP/lib/armv7aLaiv/CT_\libnet.a(def.o)
 .comment       0x0000002d       0x2e C:/ProgramData/KMC/SOLID/SDK/2.0/solid-os/net/lwIP/lib/armv7aLaiv/CT_\libnet.a(init.o)
 .comment       0x0000002d       0x2e C:/ProgramData/KMC/SOLID/SDK/2.0/solid-os/net/lwIP/lib/armv7aLaiv/CT_\libnet.a(ip4.o)
 .comment       0x0000002d       0x2e C:/ProgramData/KMC/SOLID/SDK/2.0/solid-os/net/lwIP/lib/armv7aLaiv/CT_\libnet.a(ip4_addr.o)
 .comment       0x0000002d       0x2e C:/ProgramData/KMC/SOLID/SDK/2.0/solid-os/net/lwIP/lib/armv7aLaiv/CT_\libnet.a(ip4_frag.o)
 .comment       0x0000002d       0x2e C:/ProgramData/KMC/SOLID/SDK/2.0/solid-os/net/lwIP/lib/armv7aLaiv/CT_\libnet.a(mem.o)
 .comment       0x0000002d       0x2e C:/ProgramData/KMC/SOLID/SDK/2.0/solid-os/net/lwIP/lib/armv7aLaiv/CT_\libnet.a(memp.o)
 .comment       0x0000002d       0x2e C:/ProgramData/KMC/SOLID/SDK/2.0/solid-os/net/lwIP/lib/armv7aLaiv/CT_\libnet.a(netif.o)
 .comment       0x0000002d       0x2e C:/ProgramData/KMC/SOLID/SDK/2.0/solid-os/net/lwIP/lib/armv7aLaiv/CT_\libnet.a(pbuf.o)
 .comment       0x0000002d       0x2e C:/ProgramData/KMC/SOLID/SDK/2.0/solid-os/net/lwIP/lib/armv7aLaiv/CT_\libnet.a(stats.o)
 .comment       0x0000002d       0x2e C:/ProgramData/KMC/SOLID/SDK/2.0/solid-os/net/lwIP/lib/armv7aLaiv/CT_\libnet.a(tcp.o)
 .comment       0x0000002d       0x2e C:/ProgramData/KMC/SOLID/SDK/2.0/solid-os/net/lwIP/lib/armv7aLaiv/CT_\libnet.a(tcp_in.o)
 .comment       0x0000002d       0x2e C:/ProgramData/KMC/SOLID/SDK/2.0/solid-os/net/lwIP/lib/armv7aLaiv/CT_\libnet.a(tcp_out.o)
 .comment       0x0000002d       0x2e C:/ProgramData/KMC/SOLID/SDK/2.0/solid-os/net/lwIP/lib/armv7aLaiv/CT_\libnet.a(timeouts.o)
 .comment       0x0000002d       0x2e C:/ProgramData/KMC/SOLID/SDK/2.0/solid-os/net/lwIP/lib/armv7aLaiv/CT_\libnet.a(udp.o)
 .comment       0x0000002d       0x2e C:/ProgramData/KMC/SOLID/SDK/2.0/solid-os/net/lwIP/lib/armv7aLaiv/CT_\libnet.a(ethernet.o)
 .comment       0x0000002d       0x2e C:/ProgramData/KMC/SOLID/SDK/2.0/solid-os/net/lwIP/lib/armv7aLaiv/CT_\libnet.a(solid_net_if.o)
 .comment       0x0000002d       0x2e C:/ProgramData/KMC/SOLID/SDK/2.0/solid-os/net/lwIP/lib/armv7aLaiv/CT_\libnet.a(solid_net_registerapi.o)
 .comment       0x0000002d       0x2e C:/ProgramData/KMC/SOLID/SDK/2.0/solid-os/net/lwIP/lib/armv7aLaiv/CT_\libnet.a(impl_net_stack.o)
 .comment       0x0000002d       0x2e C:/ProgramData/KMC/SOLID/SDK/2.0/solid-os/net/lwIP/lib/armv7aLaiv/CT_\libnet.a(impl_net_stack_errno.o)
 .comment       0x0000002d       0x2e C:/ProgramData/KMC/SOLID/SDK/2.0/solid-os/net/lwIP/lib/armv7aLaiv/CT_\libnet.a(ethernetif.o)
 .comment       0x0000002d       0x2e C:/ProgramData/KMC/SOLID/SDK/2.0/solid-os/net/lwIP/lib/armv7aLaiv/CT_\libnet.a(api_lib.o)
 .comment       0x0000002d       0x2e C:/ProgramData/KMC/SOLID/SDK/2.0/solid-os/net/lwIP/lib/armv7aLaiv/CT_\libnet.a(api_msg.o)
 .comment       0x0000002d       0x2e C:/ProgramData/KMC/SOLID/SDK/2.0/solid-os/net/lwIP/lib/armv7aLaiv/CT_\libnet.a(err.o)
 .comment       0x0000002d       0x2e C:/ProgramData/KMC/SOLID/SDK/2.0/solid-os/net/lwIP/lib/armv7aLaiv/CT_\libnet.a(netbuf.o)
 .comment       0x0000002d       0x2e C:/ProgramData/KMC/SOLID/SDK/2.0/solid-os/net/lwIP/lib/armv7aLaiv/CT_\libnet.a(netdb.o)
 .comment       0x0000002d       0x2e C:/ProgramData/KMC/SOLID/SDK/2.0/solid-os/net/lwIP/lib/armv7aLaiv/CT_\libnet.a(dns.o)
 .comment       0x0000002d       0x2e C:/ProgramData/KMC/SOLID/SDK/2.0/solid-os/net/lwIP/lib/armv7aLaiv/CT_\libnet.a(inet_chksum.o)
 .comment       0x0000002d       0x2e C:/ProgramData/KMC/SOLID/SDK/2.0/solid-os/net/lwIP/lib/armv7aLaiv/CT_\libnet.a(ip.o)
 .comment       0x0000002d       0x2e C:/ProgramData/KMC/SOLID/SDK/2.0/solid-os/net/lwIP/lib/armv7aLaiv/CT_\libnet.a(dhcp.o)
 .comment       0x0000002d       0x2e C:/ProgramData/KMC/SOLID/SDK/2.0/solid-os/net/lwIP/lib/armv7aLaiv/CT_\libnet.a(etharp.o)
 .comment       0x0000002d       0x2e C:/ProgramData/KMC/SOLID/SDK/2.0/solid-os/net/lwIP/lib/armv7aLaiv/CT_\libnet.a(icmp.o)
 .comment       0x0000002d       0x2e C:/ProgramData/KMC/SOLID/SDK/2.0/solid-os/rtos/toppers_asp3/lib/armv7aLaiv/CT__\libkernel.a(dataqueue.o)
 .comment       0x0000002d       0x2e C:/ProgramData/KMC/SOLID/SDK/2.0/solid-os/rtos/toppers_asp3/lib/armv7aLaiv/CT__\libkernel.a(interrupt.o)
 .comment       0x0000002d       0x2e C:/ProgramData/KMC/SOLID/SDK/2.0/solid-os/rtos/toppers_asp3/lib/armv7aLaiv/CT__\libkernel.a(vasyslog.o)
 .comment       0x0000002d       0x2e C:/ProgramData/KMC/SOLID/SDK/2.0/solid-os/rtos/toppers_asp3/lib/armv7aLaiv/CT__\libkernel.a(semaphore.o)
 .comment       0x0000002d       0x2e C:/ProgramData/KMC/SOLID/SDK/2.0/solid-os/rtos/toppers_asp3/lib/armv7aLaiv/CT__\libkernel.a(startup.o)
 .comment       0x0000002d       0x2e C:/ProgramData/KMC/SOLID/SDK/2.0/solid-os/rtos/toppers_asp3/lib/armv7aLaiv/CT__\libkernel.a(sys_manage.o)
 .comment       0x0000002d       0x2e C:/ProgramData/KMC/SOLID/SDK/2.0/solid-os/rtos/toppers_asp3/lib/armv7aLaiv/CT__\libkernel.a(task.o)
 .comment       0x0000002d       0x2e C:/ProgramData/KMC/SOLID/SDK/2.0/solid-os/rtos/toppers_asp3/lib/armv7aLaiv/CT__\libkernel.a(taskhook.o)
 .comment       0x0000002d       0x2e C:/ProgramData/KMC/SOLID/SDK/2.0/solid-os/rtos/toppers_asp3/lib/armv7aLaiv/CT__\libkernel.a(task_manage.o)
 .comment       0x0000002d       0x2e C:/ProgramData/KMC/SOLID/SDK/2.0/solid-os/rtos/toppers_asp3/lib/armv7aLaiv/CT__\libkernel.a(time_event.o)
 .comment       0x0000002d       0x2e C:/ProgramData/KMC/SOLID/SDK/2.0/solid-os/rtos/toppers_asp3/lib/armv7aLaiv/CT__\libkernel.a(wait.o)
 .comment       0x0000002d       0x2e C:/ProgramData/KMC/SOLID/SDK/2.0/solid-os/rtos/toppers_asp3/lib/armv7aLaiv/CT__\libkernel.a(solid_rtos_registerapi.o)
 .comment       0x0000002d       0x2e C:/ProgramData/KMC/SOLID/SDK/2.0/solid-os/rtos/toppers_asp3/lib/armv7aLaiv/CT__\libkernel.a(target_fput_log.o)
 .comment       0x0000002d       0x2e C:/ProgramData/KMC/SOLID/SDK/2.0/solid-os/rtos/toppers_asp3/lib/armv7aLaiv/CT__\libkernel.a(target_intc_impl.o)
 .comment       0x0000002d       0x2e C:/ProgramData/KMC/SOLID/SDK/2.0/solid-os/rtos/toppers_asp3/lib/armv7aLaiv/CT__\libkernel.a(target_timer_impl.o)
 .comment       0x0000002d       0x2e C:/ProgramData/KMC/SOLID/SDK/2.0/solid-os/rtos/toppers_asp3/lib/armv7aLaiv/CT__\libkernel.a(kmc_evttracker_rtos.o)
 .comment       0x0000002d       0x2e C:/ProgramData/KMC/SOLID/SDK/2.0/solid-os/rtos/toppers_asp3/lib/armv7aLaiv/CT__\libkernel.a(rtos_prof.o)
 .comment       0x0000002d       0x2e C:/ProgramData/KMC/SOLID/SDK/2.0/solid-os/rtos/toppers_asp3/lib/armv7aLaiv/CT__\libkernel.a(kernel_cfg_intl.o)
 .comment       0x0000002d       0x2e C:/ProgramData/KMC/SOLID/SDK/2.0/solid-os/rtos/toppers_asp3/lib/armv7aLaiv/CT__\libkernel.a(alarm.o)
 .comment       0x0000002d       0x2e C:/ProgramData/KMC/SOLID/SDK/2.0/solid-os/rtos/toppers_asp3/lib/armv7aLaiv/CT__\libkernel.a(core_kernel_impl.o)
 .comment       0x0000002d       0x2e C:/ProgramData/KMC/SOLID/SDK/2.0/solid-os/rtos/toppers_asp3/lib/armv7aLaiv/CT__\libkernel.a(cyclic.o)
 .comment       0x0000002d       0x2e C:/ProgramData/KMC/SOLID/SDK/2.0/solid-os/rtos/toppers_asp3/lib/armv7aLaiv/CT__\libkernel.a(eventflag.o)
 .comment       0x0000002d       0x2e C:/ProgramData/KMC/SOLID/SDK/2.0/solid-os/rtos/toppers_asp3/lib/armv7aLaiv/CT__\libkernel.a(exception.o)
 .comment       0x0000002d       0x2e C:/ProgramData/KMC/SOLID/SDK/2.0/solid-os/rtos/toppers_asp3/lib/armv7aLaiv/CT__\libkernel.a(mempfix.o)
 .comment       0x0000002d       0x2e C:/ProgramData/KMC/SOLID/SDK/2.0/solid-os/rtos/toppers_asp3/lib/armv7aLaiv/CT__\libkernel.a(tSysLog.o)
 .comment       0x0000002d       0x2e C:/ProgramData/KMC/SOLID/SDK/2.0/solid-os/rtos/toppers_asp3/lib/armv7aLaiv/CT__\libkernel.a(mutex.o)
 .comment       0x0000002d       0x2e C:/ProgramData/KMC/SOLID/SDK/2.0/solid-os/rtos/toppers_asp3/lib/armv7aLaiv/CT__\libkernel.a(pridataq.o)
 .comment       0x0000002d       0x2e C:/ProgramData/KMC/SOLID/SDK/2.0/solid-os/rtos/toppers_asp3/lib/armv7aLaiv/CT__\libkernel.a(task_refer.o)
 .comment       0x0000002d       0x2e C:/ProgramData/KMC/SOLID/SDK/2.0/solid-os/rtos/toppers_asp3/lib/armv7aLaiv/CT__\libkernel.a(task_sync.o)
 .comment       0x0000002d       0x2e C:/ProgramData/KMC/SOLID/SDK/2.0/solid-os/rtos/toppers_asp3/lib/armv7aLaiv/CT__\libkernel.a(task_term.o)
 .comment       0x0000002d       0x2e C:/ProgramData/KMC/SOLID/SDK/2.0/solid-os/rtos/toppers_asp3/lib/armv7aLaiv/CT__\libkernel.a(time_manage.o)
 .comment       0x0000002d       0x2e C:/ProgramData/KMC/SOLID/SDK/2.0/solid-os/rtos/toppers_asp3/lib/armv7aLaiv/CT__\libkernel.a(log_output.o)
 .comment       0x0000002d       0x2e C:/Users/admin/Documents/SOLID-IDE/Projects/lwip_server/Debug_tasan/exeClang_SOLID/\libbsp.a(impl_cs_event.o)
 .comment       0x0000002d       0x2e C:/Users/admin/Documents/SOLID-IDE/Projects/lwip_server/Debug_tasan/exeClang_SOLID/\libbsp.a(impl_dmac.o)
 .comment       0x0000002d       0x2e C:/Users/admin/Documents/SOLID-IDE/Projects/lwip_server/Debug_tasan/exeClang_SOLID/\libbsp.a(impl_iores.o)
 .comment       0x0000002d       0x2e C:/Users/admin/Documents/SOLID-IDE/Projects/lwip_server/Debug_tasan/exeClang_SOLID/\libbsp.a(impl_log.o)
 .comment       0x0000002d       0x2e C:/Users/admin/Documents/SOLID-IDE/Projects/lwip_server/Debug_tasan/exeClang_SOLID/\libbsp.a(impl_net_dev_ether.o)
 .comment       0x0000002d       0x2e C:/Users/admin/Documents/SOLID-IDE/Projects/lwip_server/Debug_tasan/exeClang_SOLID/\libbsp.a(impl_net_dev_get_macaddr.o)
 .comment       0x0000002d       0x2e C:/Users/admin/Documents/SOLID-IDE/Projects/lwip_server/Debug_tasan/exeClang_SOLID/\libbsp.a(impl_net_dev_getconfig.o)
 .comment       0x0000002d       0x2e C:/Users/admin/Documents/SOLID-IDE/Projects/lwip_server/Debug_tasan/exeClang_SOLID/\libbsp.a(impl_rtc.o)
 .comment       0x0000002d       0x2e C:/Users/admin/Documents/SOLID-IDE/Projects/lwip_server/Debug_tasan/exeClang_SOLID/\libbsp.a(impl_timer.o)
 .comment       0x0000002d       0x2e C:/Users/admin/Documents/SOLID-IDE/Projects/lwip_server/Debug_tasan/exeClang_SOLID/\libbsp.a(rtc.o)
 .comment       0x0000002d       0x2e C:/Users/admin/Documents/SOLID-IDE/Projects/lwip_server/Debug_tasan/exeClang_SOLID/\libbsp.a(rtc_userdef.o)
 .comment       0x0000002d       0x2e C:/Users/admin/Documents/SOLID-IDE/Projects/lwip_server/Debug_tasan/exeClang_SOLID/\libbsp.a(bsp_globals.o)
 .comment       0x0000002d       0x2e C:/Users/admin/Documents/SOLID-IDE/Projects/lwip_server/Debug_tasan/exeClang_SOLID/\libbsp.a(rza_io_regrw.o)
 .comment       0x0000002d       0x11 C:/GCC4/ARM/s002/lib/armv7aLaiv\libstdc++.a(class_type_info.o)
                                 0x12 (size before relaxing)
 .comment       0x0000003e       0x12 C:/GCC4/ARM/s002/lib/armv7aLaiv\libstdc++.a(new_handler.o)
 .comment       0x0000003e       0x12 C:/GCC4/ARM/s002/lib/armv7aLaiv\libstdc++.a(del_ops.o)
 .comment       0x0000003e       0x12 C:/GCC4/ARM/s002/lib/armv7aLaiv\libstdc++.a(si_class_type_info.o)
 .comment       0x0000003e       0x12 C:/GCC4/ARM/s002/lib/armv7aLaiv\libstdc++.a(del_op.o)
 .comment       0x0000003e       0x12 C:/GCC4/ARM/s002/lib/armv7aLaiv\libstdc++.a(tinfo.o)
 .comment       0x0000003e       0x12 C:/GCC4/ARM/s002/lib/armv7aLaiv/libgcc.a(_udivmoddi4.o)
 .comment       0x0000003e       0x12 C:/GCC4/ARM/s002/lib/armv7aLaiv/libgcc.a(unwind-arm.o)
 .comment       0x0000003e       0x12 C:/GCC4/ARM/s002/lib/armv7aLaiv/libgcc.a(pr-support.o)
 .comment       0x0000003e       0x12 C:/GCC4/ARM/s002/lib/armv7aLaiv/libc.a(_m_init.o)
 .comment       0x0000003e       0x12 C:/GCC4/ARM/s002/lib/armv7aLaiv/libc.a(abort.o)
 .comment       0x0000003e       0x12 C:/GCC4/ARM/s002/lib/armv7aLaiv/libc.a(errno.o)
 .comment       0x0000003e       0x12 C:/GCC4/ARM/s002/lib/armv7aLaiv/libc.a(atoi.o)
 .comment       0x0000003e       0x12 C:/GCC4/ARM/s002/lib/armv7aLaiv/libc.a(rand.o)
 .comment       0x0000003e       0x12 C:/GCC4/ARM/s002/lib/armv7aLaiv/libc.a(strtol.o)
 .comment       0x0000003e       0x12 C:/GCC4/ARM/s002/lib/armv7aLaiv/libc.a(strtoul.o)
 .comment       0x0000003e       0x12 C:/GCC4/ARM/s002/lib/armv7aLaiv/libc.a(atexit.o)
 .comment       0x0000003e       0x12 C:/GCC4/ARM/s002/lib/armv7aLaiv/libc.a(isctype.o)
 .comment       0x0000003e       0x12 C:/GCC4/ARM/s002/lib/armv7aLaiv/libc.a(global_locale.o)
 .comment       0x0000003e       0x12 C:/GCC4/ARM/s002/lib/armv7aLaiv/libc.a(runetable.o)
 .comment       0x0000003e       0x12 C:/GCC4/ARM/s002/lib/armv7aLaiv/libc.a(thread-stub-init.o)
 .comment       0x0000003e       0x12 C:/GCC4/ARM/s002/lib/armv7aLaiv/libc.a(thread-stub.o)
 .comment       0x0000003e       0x12 C:/GCC4/ARM/s002/lib/armv7aLaiv/libc.a(ssp_init.o)
 .comment       0x0000003e       0x12 C:/GCC4/ARM/s002/lib/armv7aLaiv/libc.a(findfp.o)
 .comment       0x0000003e       0x12 C:/GCC4/ARM/s002/lib/armv7aLaiv/libc.a(fprintf.o)
 .comment       0x0000003e       0x12 C:/GCC4/ARM/s002/lib/armv7aLaiv/libc.a(stdio.o)
 .comment       0x0000003e       0x12 C:/GCC4/ARM/s002/lib/armv7aLaiv/libc.a(vfprintf.o)
 .comment       0x0000003e       0x12 C:/GCC4/ARM/s002/lib/armv7aLaiv/libc.a(vsnprintf.o)
 .comment       0x0000003e       0x12 C:/GCC4/ARM/s002/lib/armv7aLaiv/libc.a(wsetup.o)
 .comment       0x0000003e       0x12 C:/GCC4/ARM/s002/lib/armv7aLaiv/libc.a(makebuf.o)
 .comment       0x0000003e       0x12 C:/GCC4/ARM/s002/lib/armv7aLaiv/libc.a(close.o)
 .comment       0x0000003e       0x12 C:/GCC4/ARM/s002/lib/armv7aLaiv/libc.a(fstat.o)
 .comment       0x0000003e       0x12 C:/GCC4/ARM/s002/lib/armv7aLaiv/libc.a(lseek.o)
 .comment       0x0000003e       0x12 C:/GCC4/ARM/s002/lib/armv7aLaiv/libc.a(open.o)
 .comment       0x0000003e       0x12 C:/GCC4/ARM/s002/lib/armv7aLaiv/libc.a(osemu.o)
 .comment       0x0000003e       0x12 C:/GCC4/ARM/s002/lib/armv7aLaiv/libc.a(perror.o)
 .comment       0x0000003e       0x12 C:/GCC4/ARM/s002/lib/armv7aLaiv/libc.a(read.o)
 .comment       0x0000003e       0x12 C:/GCC4/ARM/s002/lib/armv7aLaiv/libc.a(u2dname.o)
 .comment       0x0000003e       0x12 C:/GCC4/ARM/s002/lib/armv7aLaiv/libc.a(utime.o)
 .comment       0x0000003e       0x12 C:/GCC4/ARM/s002/lib/armv7aLaiv/libc.a(write.o)
 .comment       0x0000003e       0x12 C:/GCC4/ARM/s002/lib/armv7aLaiv/libc.a(_env.o)
 .comment       0x0000003e       0x12 C:/GCC4/ARM/s002/lib/armv7aLaiv/libc.a(exit.o)
 .comment       0x0000003e       0x12 C:/GCC4/ARM/s002/lib/armv7aLaiv/libc.a(signal.o)
 .comment       0x0000003e       0x12 C:/GCC4/ARM/s002/lib/armv7aLaiv/libc.a(localtime.o)
 .comment       0x0000003e       0x12 C:/GCC4/ARM/s002/lib/armv7aLaiv/libc.a(lldiv.o)
 .comment       0x0000003e       0x12 C:/GCC4/ARM/s002/lib/armv7aLaiv/libc.a(memchr.o)
 .comment       0x0000003e       0x12 C:/GCC4/ARM/s002/lib/armv7aLaiv/libc.a(strcspn.o)
 .comment       0x0000003e       0x12 C:/GCC4/ARM/s002/lib/armv7aLaiv/libc.a(strncasecmp.o)
 .comment       0x0000003e       0x12 C:/GCC4/ARM/s002/lib/armv7aLaiv/libc.a(strdup.o)
 .comment       0x0000003e       0x12 C:/GCC4/ARM/s002/lib/armv7aLaiv/libc.a(ctype_.o)
 .comment       0x0000003e       0x12 C:/GCC4/ARM/s002/lib/armv7aLaiv/libc.a(toupper_.o)
 .comment       0x0000003e       0x12 C:/GCC4/ARM/s002/lib/armv7aLaiv/libc.a(tolower_.o)
 .comment       0x0000003e       0x12 C:/GCC4/ARM/s002/lib/armv7aLaiv/libc.a(citrus_ctype.o)
 .comment       0x0000003e       0x12 C:/GCC4/ARM/s002/lib/armv7aLaiv/libc.a(citrus_none.o)
 .comment       0x0000003e       0x12 C:/GCC4/ARM/s002/lib/armv7aLaiv/libc.a(citrus_mskanji.o)
 .comment       0x0000003e       0x12 C:/GCC4/ARM/s002/lib/armv7aLaiv/libc.a(citrus_utf8.o)
 .comment       0x0000003e       0x12 C:/GCC4/ARM/s002/lib/armv7aLaiv/libc.a(localeconv.o)
 .comment       0x0000003e       0x12 C:/GCC4/ARM/s002/lib/armv7aLaiv/libc.a(multibyte_amd1.o)
 .comment       0x0000003e       0x12 C:/GCC4/ARM/s002/lib/armv7aLaiv/libc.a(__isthreaded.o)
 .comment       0x0000003e       0x12 C:/GCC4/ARM/s002/lib/armv7aLaiv/libc.a(dtoa.o)
 .comment       0x0000003e       0x12 C:/GCC4/ARM/s002/lib/armv7aLaiv/libc.a(ldtoa.o)
 .comment       0x0000003e       0x12 C:/GCC4/ARM/s002/lib/armv7aLaiv/libc.a(hdtoa.o)
 .comment       0x0000003e       0x12 C:/GCC4/ARM/s002/lib/armv7aLaiv/libc.a(dmisc.o)
 .comment       0x0000003e       0x12 C:/GCC4/ARM/s002/lib/armv7aLaiv/libc.a(misc.o)
 .comment       0x0000003e       0x12 C:/GCC4/ARM/s002/lib/armv7aLaiv/libc.a(softfloat.o)
 .comment       0x0000003e       0x12 C:/GCC4/ARM/s002/lib/armv7aLaiv/libc.a(__aeabi_dcmpeq.o)
 .comment       0x0000003e       0x12 C:/GCC4/ARM/s002/lib/armv7aLaiv/libc.a(__aeabi_dcmpge.o)
 .comment       0x0000003e       0x12 C:/GCC4/ARM/s002/lib/armv7aLaiv/libc.a(__aeabi_dcmpgt.o)
 .comment       0x0000003e       0x12 C:/GCC4/ARM/s002/lib/armv7aLaiv/libc.a(__aeabi_dcmplt.o)
 .comment       0x0000003e       0x12 C:/GCC4/ARM/s002/lib/armv7aLaiv/libc.a(rb.o)
 .comment       0x0000003e       0x12 C:/GCC4/ARM/s002/lib/armv7aLaiv/libc.a(fflush.o)
 .comment       0x0000003e       0x12 C:/GCC4/ARM/s002/lib/armv7aLaiv/libc.a(flockfile.o)
 .comment       0x0000003e       0x12 C:/GCC4/ARM/s002/lib/armv7aLaiv/libc.a(fvwrite.o)
 .comment       0x0000003e       0x12 C:/GCC4/ARM/s002/lib/armv7aLaiv/libc.a(fwalk.o)
 .comment       0x0000003e       0x12 C:/GCC4/ARM/s002/lib/armv7aLaiv/libc.a(creat.o)
 .comment       0x0000003e       0x12 C:/GCC4/ARM/s002/lib/armv7aLaiv/libc.a(fpclassifyd_ieee754.o)
 .comment       0x0000003e       0x12 C:/GCC4/ARM/s002/lib/armv7aLaiv/libc.a(strcasecmp.o)
 .comment       0x0000003e       0x12 C:/GCC4/ARM/s002/lib/armv7aLaiv/libc.a(gdtoa_locks.o)

.note.GNU-stack
                0x00000000        0x0
 .note.GNU-stack
                0x00000000        0x0 C:/Users/admin/Documents/SOLID-IDE/Projects/lwip_server/Debug_tasan/exeClang_SOLID/lwip_server/lwip_server_all.o
 .note.GNU-stack
                0x00000000        0x0 C:/ProgramData/KMC/SOLID/SDK/2.0/solid-os/core/lib/armv7aLaiv/CT_\libsolid_cs.a(solid_cs_main.o)
 .note.GNU-stack
                0x00000000        0x0 C:/ProgramData/KMC/SOLID/SDK/2.0/solid-os/core/lib/armv7aLaiv/CT_\libsolid_cs.a(kmc_trace_mem_dummy.o)
 .note.GNU-stack
                0x00000000        0x0 C:/ProgramData/KMC/SOLID/SDK/2.0/solid-os/core/lib/armv7aLaiv/CT_\libsolid_cs.a(solid_cs_event.o)
 .note.GNU-stack
                0x00000000        0x0 C:/ProgramData/KMC/SOLID/SDK/2.0/solid-os/core/lib/armv7aLaiv/CT_\libsolid_cs.a(solid_debugger.o)
 .note.GNU-stack
                0x00000000        0x0 C:/ProgramData/KMC/SOLID/SDK/2.0/solid-os/core/lib/armv7aLaiv/CT_\libsolid_cs.a(solid_dmac.o)
 .note.GNU-stack
                0x00000000        0x0 C:/ProgramData/KMC/SOLID/SDK/2.0/solid-os/core/lib/armv7aLaiv/CT_\libsolid_cs.a(solid_exception.o)
 .note.GNU-stack
                0x00000000        0x0 C:/ProgramData/KMC/SOLID/SDK/2.0/solid-os/core/lib/armv7aLaiv/CT_\libsolid_cs.a(solid_fs_base.o)
 .note.GNU-stack
                0x00000000        0x0 C:/ProgramData/KMC/SOLID/SDK/2.0/solid-os/core/lib/armv7aLaiv/CT_\libsolid_cs.a(solid_fs_mem.o)
 .note.GNU-stack
                0x00000000        0x0 C:/ProgramData/KMC/SOLID/SDK/2.0/solid-os/core/lib/armv7aLaiv/CT_\libsolid_cs.a(solid_fs_vlink.o)
 .note.GNU-stack
                0x00000000        0x0 C:/ProgramData/KMC/SOLID/SDK/2.0/solid-os/core/lib/armv7aLaiv/CT_\libsolid_cs.a(solid_intc.o)
 .note.GNU-stack
                0x00000000        0x0 C:/ProgramData/KMC/SOLID/SDK/2.0/solid-os/core/lib/armv7aLaiv/CT_\libsolid_cs.a(solid_iores.o)
 .note.GNU-stack
                0x00000000        0x0 C:/ProgramData/KMC/SOLID/SDK/2.0/solid-os/core/lib/armv7aLaiv/CT_\libsolid_cs.a(solid_loader.o)
 .note.GNU-stack
                0x00000000        0x0 C:/ProgramData/KMC/SOLID/SDK/2.0/solid-os/core/lib/armv7aLaiv/CT_\libsolid_cs.a(solid_loader_fixed.o)
 .note.GNU-stack
                0x00000000        0x0 C:/ProgramData/KMC/SOLID/SDK/2.0/solid-os/core/lib/armv7aLaiv/CT_\libsolid_cs.a(solid_log.o)
 .note.GNU-stack
                0x00000000        0x0 C:/ProgramData/KMC/SOLID/SDK/2.0/solid-os/core/lib/armv7aLaiv/CT_\libsolid_cs.a(solid_malloc.o)
 .note.GNU-stack
                0x00000000        0x0 C:/ProgramData/KMC/SOLID/SDK/2.0/solid-os/core/lib/armv7aLaiv/CT_\libsolid_cs.a(solid_mem.o)
 .note.GNU-stack
                0x00000000        0x0 C:/ProgramData/KMC/SOLID/SDK/2.0/solid-os/core/lib/armv7aLaiv/CT_\libsolid_cs.a(solid_mem_cache.o)
 .note.GNU-stack
                0x00000000        0x0 C:/ProgramData/KMC/SOLID/SDK/2.0/solid-os/core/lib/armv7aLaiv/CT_\libsolid_cs.a(solid_mutex.o)
 .note.GNU-stack
                0x00000000        0x0 C:/ProgramData/KMC/SOLID/SDK/2.0/solid-os/core/lib/armv7aLaiv/CT_\libsolid_cs.a(solid_rtc.o)
 .note.GNU-stack
                0x00000000        0x0 C:/ProgramData/KMC/SOLID/SDK/2.0/solid-os/core/lib/armv7aLaiv/CT_\libsolid_cs.a(solid_timer.o)
 .note.GNU-stack
                0x00000000        0x0 C:/ProgramData/KMC/SOLID/SDK/2.0/solid-os/core/lib/armv7aLaiv/CT_\libsolid_cs.a(solid_vector.o)
 .note.GNU-stack
                0x00000000        0x0 C:/ProgramData/KMC/SOLID/SDK/2.0/solid-os/core/lib/armv7aLaiv/CT_\libsolid_cs.a(solid_vlink.o)
 .note.GNU-stack
                0x00000000        0x0 C:/ProgramData/KMC/SOLID/SDK/2.0/solid-os/core/lib/armv7aLaiv/CT_\libsolid_cs.a(tasan.o)
 .note.GNU-stack
                0x00000000        0x0 C:/ProgramData/KMC/SOLID/SDK/2.0/solid-os/core/lib/armv7aLaiv/CT_\libsolid_cs.a(tasan_interceptors.o)
 .note.GNU-stack
                0x00000000        0x0 C:/ProgramData/KMC/SOLID/SDK/2.0/solid-os/core/lib/armv7aLaiv/CT_\libsolid_cs.a(solid_mem_mmu.o)
 .note.GNU-stack
                0x00000000        0x0 C:/ProgramData/KMC/SOLID/SDK/2.0/solid-os/core/lib/armv7aLaiv/CT_\libsolid_cs.a(kmc_evttracker_core.o)
 .note.GNU-stack
                0x00000000        0x0 C:/ProgramData/KMC/SOLID/SDK/2.0/solid-os/core/lib/armv7aLaiv/CT_\libsolid_cs.a(dlmalloc.o)
 .note.GNU-stack
                0x00000000        0x0 C:/ProgramData/KMC/SOLID/SDK/2.0/solid-os/core/lib/armv7aLaiv/CT_\libsolid_cs.a(solid_asan.o)
 .note.GNU-stack
                0x00000000        0x0 C:/ProgramData/KMC/SOLID/SDK/2.0/solid-os/core/lib/armv7aLaiv/CT_\libsolid_cs.a(solid_cs_args.o)
 .note.GNU-stack
                0x00000000        0x0 C:/ProgramData/KMC/SOLID/SDK/2.0/solid-os/net/lwIP/lib/armv7aLaiv/CT_\libnet.a(sys_arch.o)
 .note.GNU-stack
                0x00000000        0x0 C:/ProgramData/KMC/SOLID/SDK/2.0/solid-os/net/lwIP/lib/armv7aLaiv/CT_\libnet.a(sockets.o)
 .note.GNU-stack
                0x00000000        0x0 C:/ProgramData/KMC/SOLID/SDK/2.0/solid-os/net/lwIP/lib/armv7aLaiv/CT_\libnet.a(tcpip.o)
 .note.GNU-stack
                0x00000000        0x0 C:/ProgramData/KMC/SOLID/SDK/2.0/solid-os/net/lwIP/lib/armv7aLaiv/CT_\libnet.a(def.o)
 .note.GNU-stack
                0x00000000        0x0 C:/ProgramData/KMC/SOLID/SDK/2.0/solid-os/net/lwIP/lib/armv7aLaiv/CT_\libnet.a(init.o)
 .note.GNU-stack
                0x00000000        0x0 C:/ProgramData/KMC/SOLID/SDK/2.0/solid-os/net/lwIP/lib/armv7aLaiv/CT_\libnet.a(ip4.o)
 .note.GNU-stack
                0x00000000        0x0 C:/ProgramData/KMC/SOLID/SDK/2.0/solid-os/net/lwIP/lib/armv7aLaiv/CT_\libnet.a(ip4_addr.o)
 .note.GNU-stack
                0x00000000        0x0 C:/ProgramData/KMC/SOLID/SDK/2.0/solid-os/net/lwIP/lib/armv7aLaiv/CT_\libnet.a(ip4_frag.o)
 .note.GNU-stack
                0x00000000        0x0 C:/ProgramData/KMC/SOLID/SDK/2.0/solid-os/net/lwIP/lib/armv7aLaiv/CT_\libnet.a(mem.o)
 .note.GNU-stack
                0x00000000        0x0 C:/ProgramData/KMC/SOLID/SDK/2.0/solid-os/net/lwIP/lib/armv7aLaiv/CT_\libnet.a(memp.o)
 .note.GNU-stack
                0x00000000        0x0 C:/ProgramData/KMC/SOLID/SDK/2.0/solid-os/net/lwIP/lib/armv7aLaiv/CT_\libnet.a(netif.o)
 .note.GNU-stack
                0x00000000        0x0 C:/ProgramData/KMC/SOLID/SDK/2.0/solid-os/net/lwIP/lib/armv7aLaiv/CT_\libnet.a(pbuf.o)
 .note.GNU-stack
                0x00000000        0x0 C:/ProgramData/KMC/SOLID/SDK/2.0/solid-os/net/lwIP/lib/armv7aLaiv/CT_\libnet.a(stats.o)
 .note.GNU-stack
                0x00000000        0x0 C:/ProgramData/KMC/SOLID/SDK/2.0/solid-os/net/lwIP/lib/armv7aLaiv/CT_\libnet.a(tcp.o)
 .note.GNU-stack
                0x00000000        0x0 C:/ProgramData/KMC/SOLID/SDK/2.0/solid-os/net/lwIP/lib/armv7aLaiv/CT_\libnet.a(tcp_in.o)
 .note.GNU-stack
                0x00000000        0x0 C:/ProgramData/KMC/SOLID/SDK/2.0/solid-os/net/lwIP/lib/armv7aLaiv/CT_\libnet.a(tcp_out.o)
 .note.GNU-stack
                0x00000000        0x0 C:/ProgramData/KMC/SOLID/SDK/2.0/solid-os/net/lwIP/lib/armv7aLaiv/CT_\libnet.a(timeouts.o)
 .note.GNU-stack
                0x00000000        0x0 C:/ProgramData/KMC/SOLID/SDK/2.0/solid-os/net/lwIP/lib/armv7aLaiv/CT_\libnet.a(udp.o)
 .note.GNU-stack
                0x00000000        0x0 C:/ProgramData/KMC/SOLID/SDK/2.0/solid-os/net/lwIP/lib/armv7aLaiv/CT_\libnet.a(ethernet.o)
 .note.GNU-stack
                0x00000000        0x0 C:/ProgramData/KMC/SOLID/SDK/2.0/solid-os/net/lwIP/lib/armv7aLaiv/CT_\libnet.a(solid_net_if.o)
 .note.GNU-stack
                0x00000000        0x0 C:/ProgramData/KMC/SOLID/SDK/2.0/solid-os/net/lwIP/lib/armv7aLaiv/CT_\libnet.a(solid_net_registerapi.o)
 .note.GNU-stack
                0x00000000        0x0 C:/ProgramData/KMC/SOLID/SDK/2.0/solid-os/net/lwIP/lib/armv7aLaiv/CT_\libnet.a(impl_net_stack.o)
 .note.GNU-stack
                0x00000000        0x0 C:/ProgramData/KMC/SOLID/SDK/2.0/solid-os/net/lwIP/lib/armv7aLaiv/CT_\libnet.a(impl_net_stack_errno.o)
 .note.GNU-stack
                0x00000000        0x0 C:/ProgramData/KMC/SOLID/SDK/2.0/solid-os/net/lwIP/lib/armv7aLaiv/CT_\libnet.a(ethernetif.o)
 .note.GNU-stack
                0x00000000        0x0 C:/ProgramData/KMC/SOLID/SDK/2.0/solid-os/net/lwIP/lib/armv7aLaiv/CT_\libnet.a(api_lib.o)
 .note.GNU-stack
                0x00000000        0x0 C:/ProgramData/KMC/SOLID/SDK/2.0/solid-os/net/lwIP/lib/armv7aLaiv/CT_\libnet.a(api_msg.o)
 .note.GNU-stack
                0x00000000        0x0 C:/ProgramData/KMC/SOLID/SDK/2.0/solid-os/net/lwIP/lib/armv7aLaiv/CT_\libnet.a(err.o)
 .note.GNU-stack
                0x00000000        0x0 C:/ProgramData/KMC/SOLID/SDK/2.0/solid-os/net/lwIP/lib/armv7aLaiv/CT_\libnet.a(netbuf.o)
 .note.GNU-stack
                0x00000000        0x0 C:/ProgramData/KMC/SOLID/SDK/2.0/solid-os/net/lwIP/lib/armv7aLaiv/CT_\libnet.a(netdb.o)
 .note.GNU-stack
                0x00000000        0x0 C:/ProgramData/KMC/SOLID/SDK/2.0/solid-os/net/lwIP/lib/armv7aLaiv/CT_\libnet.a(dns.o)
 .note.GNU-stack
                0x00000000        0x0 C:/ProgramData/KMC/SOLID/SDK/2.0/solid-os/net/lwIP/lib/armv7aLaiv/CT_\libnet.a(inet_chksum.o)
 .note.GNU-stack
                0x00000000        0x0 C:/ProgramData/KMC/SOLID/SDK/2.0/solid-os/net/lwIP/lib/armv7aLaiv/CT_\libnet.a(ip.o)
 .note.GNU-stack
                0x00000000        0x0 C:/ProgramData/KMC/SOLID/SDK/2.0/solid-os/net/lwIP/lib/armv7aLaiv/CT_\libnet.a(dhcp.o)
 .note.GNU-stack
                0x00000000        0x0 C:/ProgramData/KMC/SOLID/SDK/2.0/solid-os/net/lwIP/lib/armv7aLaiv/CT_\libnet.a(etharp.o)
 .note.GNU-stack
                0x00000000        0x0 C:/ProgramData/KMC/SOLID/SDK/2.0/solid-os/net/lwIP/lib/armv7aLaiv/CT_\libnet.a(icmp.o)
 .note.GNU-stack
                0x00000000        0x0 C:/ProgramData/KMC/SOLID/SDK/2.0/solid-os/rtos/toppers_asp3/lib/armv7aLaiv/CT__\libkernel.a(dataqueue.o)
 .note.GNU-stack
                0x00000000        0x0 C:/ProgramData/KMC/SOLID/SDK/2.0/solid-os/rtos/toppers_asp3/lib/armv7aLaiv/CT__\libkernel.a(interrupt.o)
 .note.GNU-stack
                0x00000000        0x0 C:/ProgramData/KMC/SOLID/SDK/2.0/solid-os/rtos/toppers_asp3/lib/armv7aLaiv/CT__\libkernel.a(vasyslog.o)
 .note.GNU-stack
                0x00000000        0x0 C:/ProgramData/KMC/SOLID/SDK/2.0/solid-os/rtos/toppers_asp3/lib/armv7aLaiv/CT__\libkernel.a(semaphore.o)
 .note.GNU-stack
                0x00000000        0x0 C:/ProgramData/KMC/SOLID/SDK/2.0/solid-os/rtos/toppers_asp3/lib/armv7aLaiv/CT__\libkernel.a(startup.o)
 .note.GNU-stack
                0x00000000        0x0 C:/ProgramData/KMC/SOLID/SDK/2.0/solid-os/rtos/toppers_asp3/lib/armv7aLaiv/CT__\libkernel.a(sys_manage.o)
 .note.GNU-stack
                0x00000000        0x0 C:/ProgramData/KMC/SOLID/SDK/2.0/solid-os/rtos/toppers_asp3/lib/armv7aLaiv/CT__\libkernel.a(task.o)
 .note.GNU-stack
                0x00000000        0x0 C:/ProgramData/KMC/SOLID/SDK/2.0/solid-os/rtos/toppers_asp3/lib/armv7aLaiv/CT__\libkernel.a(taskhook.o)
 .note.GNU-stack
                0x00000000        0x0 C:/ProgramData/KMC/SOLID/SDK/2.0/solid-os/rtos/toppers_asp3/lib/armv7aLaiv/CT__\libkernel.a(task_manage.o)
 .note.GNU-stack
                0x00000000        0x0 C:/ProgramData/KMC/SOLID/SDK/2.0/solid-os/rtos/toppers_asp3/lib/armv7aLaiv/CT__\libkernel.a(time_event.o)
 .note.GNU-stack
                0x00000000        0x0 C:/ProgramData/KMC/SOLID/SDK/2.0/solid-os/rtos/toppers_asp3/lib/armv7aLaiv/CT__\libkernel.a(wait.o)
 .note.GNU-stack
                0x00000000        0x0 C:/ProgramData/KMC/SOLID/SDK/2.0/solid-os/rtos/toppers_asp3/lib/armv7aLaiv/CT__\libkernel.a(solid_rtos_registerapi.o)
 .note.GNU-stack
                0x00000000        0x0 C:/ProgramData/KMC/SOLID/SDK/2.0/solid-os/rtos/toppers_asp3/lib/armv7aLaiv/CT__\libkernel.a(target_fput_log.o)
 .note.GNU-stack
                0x00000000        0x0 C:/ProgramData/KMC/SOLID/SDK/2.0/solid-os/rtos/toppers_asp3/lib/armv7aLaiv/CT__\libkernel.a(target_intc_impl.o)
 .note.GNU-stack
                0x00000000        0x0 C:/ProgramData/KMC/SOLID/SDK/2.0/solid-os/rtos/toppers_asp3/lib/armv7aLaiv/CT__\libkernel.a(target_timer_impl.o)
 .note.GNU-stack
                0x00000000        0x0 C:/ProgramData/KMC/SOLID/SDK/2.0/solid-os/rtos/toppers_asp3/lib/armv7aLaiv/CT__\libkernel.a(kmc_evttracker_rtos.o)
 .note.GNU-stack
                0x00000000        0x0 C:/ProgramData/KMC/SOLID/SDK/2.0/solid-os/rtos/toppers_asp3/lib/armv7aLaiv/CT__\libkernel.a(rtos_prof.o)
 .note.GNU-stack
                0x00000000        0x0 C:/ProgramData/KMC/SOLID/SDK/2.0/solid-os/rtos/toppers_asp3/lib/armv7aLaiv/CT__\libkernel.a(kernel_cfg_intl.o)
 .note.GNU-stack
                0x00000000        0x0 C:/ProgramData/KMC/SOLID/SDK/2.0/solid-os/rtos/toppers_asp3/lib/armv7aLaiv/CT__\libkernel.a(alarm.o)
 .note.GNU-stack
                0x00000000        0x0 C:/ProgramData/KMC/SOLID/SDK/2.0/solid-os/rtos/toppers_asp3/lib/armv7aLaiv/CT__\libkernel.a(core_kernel_impl.o)
 .note.GNU-stack
                0x00000000        0x0 C:/ProgramData/KMC/SOLID/SDK/2.0/solid-os/rtos/toppers_asp3/lib/armv7aLaiv/CT__\libkernel.a(cyclic.o)
 .note.GNU-stack
                0x00000000        0x0 C:/ProgramData/KMC/SOLID/SDK/2.0/solid-os/rtos/toppers_asp3/lib/armv7aLaiv/CT__\libkernel.a(eventflag.o)
 .note.GNU-stack
                0x00000000        0x0 C:/ProgramData/KMC/SOLID/SDK/2.0/solid-os/rtos/toppers_asp3/lib/armv7aLaiv/CT__\libkernel.a(exception.o)
 .note.GNU-stack
                0x00000000        0x0 C:/ProgramData/KMC/SOLID/SDK/2.0/solid-os/rtos/toppers_asp3/lib/armv7aLaiv/CT__\libkernel.a(mempfix.o)
 .note.GNU-stack
                0x00000000        0x0 C:/ProgramData/KMC/SOLID/SDK/2.0/solid-os/rtos/toppers_asp3/lib/armv7aLaiv/CT__\libkernel.a(tSysLog.o)
 .note.GNU-stack
                0x00000000        0x0 C:/ProgramData/KMC/SOLID/SDK/2.0/solid-os/rtos/toppers_asp3/lib/armv7aLaiv/CT__\libkernel.a(mutex.o)
 .note.GNU-stack
                0x00000000        0x0 C:/ProgramData/KMC/SOLID/SDK/2.0/solid-os/rtos/toppers_asp3/lib/armv7aLaiv/CT__\libkernel.a(pridataq.o)
 .note.GNU-stack
                0x00000000        0x0 C:/ProgramData/KMC/SOLID/SDK/2.0/solid-os/rtos/toppers_asp3/lib/armv7aLaiv/CT__\libkernel.a(task_refer.o)
 .note.GNU-stack
                0x00000000        0x0 C:/ProgramData/KMC/SOLID/SDK/2.0/solid-os/rtos/toppers_asp3/lib/armv7aLaiv/CT__\libkernel.a(task_sync.o)
 .note.GNU-stack
                0x00000000        0x0 C:/ProgramData/KMC/SOLID/SDK/2.0/solid-os/rtos/toppers_asp3/lib/armv7aLaiv/CT__\libkernel.a(task_term.o)
 .note.GNU-stack
                0x00000000        0x0 C:/ProgramData/KMC/SOLID/SDK/2.0/solid-os/rtos/toppers_asp3/lib/armv7aLaiv/CT__\libkernel.a(time_manage.o)
 .note.GNU-stack
                0x00000000        0x0 C:/ProgramData/KMC/SOLID/SDK/2.0/solid-os/rtos/toppers_asp3/lib/armv7aLaiv/CT__\libkernel.a(log_output.o)
 .note.GNU-stack
                0x00000000        0x0 C:/Users/admin/Documents/SOLID-IDE/Projects/lwip_server/Debug_tasan/exeClang_SOLID/\libbsp.a(impl_cs_event.o)
 .note.GNU-stack
                0x00000000        0x0 C:/Users/admin/Documents/SOLID-IDE/Projects/lwip_server/Debug_tasan/exeClang_SOLID/\libbsp.a(impl_dmac.o)
 .note.GNU-stack
                0x00000000        0x0 C:/Users/admin/Documents/SOLID-IDE/Projects/lwip_server/Debug_tasan/exeClang_SOLID/\libbsp.a(impl_iores.o)
 .note.GNU-stack
                0x00000000        0x0 C:/Users/admin/Documents/SOLID-IDE/Projects/lwip_server/Debug_tasan/exeClang_SOLID/\libbsp.a(impl_log.o)
 .note.GNU-stack
                0x00000000        0x0 C:/Users/admin/Documents/SOLID-IDE/Projects/lwip_server/Debug_tasan/exeClang_SOLID/\libbsp.a(impl_net_dev_ether.o)
 .note.GNU-stack
                0x00000000        0x0 C:/Users/admin/Documents/SOLID-IDE/Projects/lwip_server/Debug_tasan/exeClang_SOLID/\libbsp.a(impl_net_dev_get_macaddr.o)
 .note.GNU-stack
                0x00000000        0x0 C:/Users/admin/Documents/SOLID-IDE/Projects/lwip_server/Debug_tasan/exeClang_SOLID/\libbsp.a(impl_net_dev_getconfig.o)
 .note.GNU-stack
                0x00000000        0x0 C:/Users/admin/Documents/SOLID-IDE/Projects/lwip_server/Debug_tasan/exeClang_SOLID/\libbsp.a(impl_rtc.o)
 .note.GNU-stack
                0x00000000        0x0 C:/Users/admin/Documents/SOLID-IDE/Projects/lwip_server/Debug_tasan/exeClang_SOLID/\libbsp.a(impl_timer.o)
 .note.GNU-stack
                0x00000000        0x0 C:/Users/admin/Documents/SOLID-IDE/Projects/lwip_server/Debug_tasan/exeClang_SOLID/\libbsp.a(rtc.o)
 .note.GNU-stack
                0x00000000        0x0 C:/Users/admin/Documents/SOLID-IDE/Projects/lwip_server/Debug_tasan/exeClang_SOLID/\libbsp.a(rtc_userdef.o)
 .note.GNU-stack
                0x00000000        0x0 C:/Users/admin/Documents/SOLID-IDE/Projects/lwip_server/Debug_tasan/exeClang_SOLID/\libbsp.a(bsp_globals.o)
 .note.GNU-stack
                0x00000000        0x0 C:/Users/admin/Documents/SOLID-IDE/Projects/lwip_server/Debug_tasan/exeClang_SOLID/\libbsp.a(rza_io_regrw.o)

.ARM.attributes
                0x00000000       0x3b
 .ARM.attributes
                0x00000000       0x43 C:/Users/admin/Documents/SOLID-IDE/Projects/lwip_server/Debug_tasan/exeClang_SOLID/lwip_server/lwip_server_all.o
 .ARM.attributes
                0x00000043       0x1c C:/ProgramData/KMC/SOLID/SDK/2.0/solid-os/core/lib/armv7aLaiv/CT_\libsolid_cs.a(solid_cs_asm.o)
 .ARM.attributes
                0x0000005f       0x38 C:/ProgramData/KMC/SOLID/SDK/2.0/solid-os/core/lib/armv7aLaiv/CT_\libsolid_cs.a(solid_cs_main.o)
 .ARM.attributes
                0x00000097       0x38 C:/ProgramData/KMC/SOLID/SDK/2.0/solid-os/core/lib/armv7aLaiv/CT_\libsolid_cs.a(kmc_trace_mem_dummy.o)
 .ARM.attributes
                0x000000cf       0x38 C:/ProgramData/KMC/SOLID/SDK/2.0/solid-os/core/lib/armv7aLaiv/CT_\libsolid_cs.a(solid_cs_event.o)
 .ARM.attributes
                0x00000107       0x38 C:/ProgramData/KMC/SOLID/SDK/2.0/solid-os/core/lib/armv7aLaiv/CT_\libsolid_cs.a(solid_debugger.o)
 .ARM.attributes
                0x0000013f       0x36 C:/ProgramData/KMC/SOLID/SDK/2.0/solid-os/core/lib/armv7aLaiv/CT_\libsolid_cs.a(solid_dmac.o)
 .ARM.attributes
                0x00000175       0x38 C:/ProgramData/KMC/SOLID/SDK/2.0/solid-os/core/lib/armv7aLaiv/CT_\libsolid_cs.a(solid_exception.o)
 .ARM.attributes
                0x000001ad       0x36 C:/ProgramData/KMC/SOLID/SDK/2.0/solid-os/core/lib/armv7aLaiv/CT_\libsolid_cs.a(solid_fs_base.o)
 .ARM.attributes
                0x000001e3       0x38 C:/ProgramData/KMC/SOLID/SDK/2.0/solid-os/core/lib/armv7aLaiv/CT_\libsolid_cs.a(solid_fs_mem.o)
 .ARM.attributes
                0x0000021b       0x38 C:/ProgramData/KMC/SOLID/SDK/2.0/solid-os/core/lib/armv7aLaiv/CT_\libsolid_cs.a(solid_fs_vlink.o)
 .ARM.attributes
                0x00000253       0x36 C:/ProgramData/KMC/SOLID/SDK/2.0/solid-os/core/lib/armv7aLaiv/CT_\libsolid_cs.a(solid_intc.o)
 .ARM.attributes
                0x00000289       0x36 C:/ProgramData/KMC/SOLID/SDK/2.0/solid-os/core/lib/armv7aLaiv/CT_\libsolid_cs.a(solid_iores.o)
 .ARM.attributes
                0x000002bf       0x36 C:/ProgramData/KMC/SOLID/SDK/2.0/solid-os/core/lib/armv7aLaiv/CT_\libsolid_cs.a(solid_loader.o)
 .ARM.attributes
                0x000002f5       0x38 C:/ProgramData/KMC/SOLID/SDK/2.0/solid-os/core/lib/armv7aLaiv/CT_\libsolid_cs.a(solid_loader_fixed.o)
 .ARM.attributes
                0x0000032d       0x38 C:/ProgramData/KMC/SOLID/SDK/2.0/solid-os/core/lib/armv7aLaiv/CT_\libsolid_cs.a(solid_log.o)
 .ARM.attributes
                0x00000365       0x38 C:/ProgramData/KMC/SOLID/SDK/2.0/solid-os/core/lib/armv7aLaiv/CT_\libsolid_cs.a(solid_malloc.o)
 .ARM.attributes
                0x0000039d       0x36 C:/ProgramData/KMC/SOLID/SDK/2.0/solid-os/core/lib/armv7aLaiv/CT_\libsolid_cs.a(solid_mem.o)
 .ARM.attributes
                0x000003d3       0x38 C:/ProgramData/KMC/SOLID/SDK/2.0/solid-os/core/lib/armv7aLaiv/CT_\libsolid_cs.a(solid_mem_cache.o)
 .ARM.attributes
                0x0000040b       0x38 C:/ProgramData/KMC/SOLID/SDK/2.0/solid-os/core/lib/armv7aLaiv/CT_\libsolid_cs.a(solid_mutex.o)
 .ARM.attributes
                0x00000443       0x38 C:/ProgramData/KMC/SOLID/SDK/2.0/solid-os/core/lib/armv7aLaiv/CT_\libsolid_cs.a(solid_rtc.o)
 .ARM.attributes
                0x0000047b       0x36 C:/ProgramData/KMC/SOLID/SDK/2.0/solid-os/core/lib/armv7aLaiv/CT_\libsolid_cs.a(solid_timer.o)
 .ARM.attributes
                0x000004b1       0x38 C:/ProgramData/KMC/SOLID/SDK/2.0/solid-os/core/lib/armv7aLaiv/CT_\libsolid_cs.a(solid_vector.o)
 .ARM.attributes
                0x000004e9       0x38 C:/ProgramData/KMC/SOLID/SDK/2.0/solid-os/core/lib/armv7aLaiv/CT_\libsolid_cs.a(solid_vlink.o)
 .ARM.attributes
                0x00000521       0x36 C:/ProgramData/KMC/SOLID/SDK/2.0/solid-os/core/lib/armv7aLaiv/CT_\libsolid_cs.a(tasan.o)
 .ARM.attributes
                0x00000557       0x38 C:/ProgramData/KMC/SOLID/SDK/2.0/solid-os/core/lib/armv7aLaiv/CT_\libsolid_cs.a(tasan_interceptors.o)
 .ARM.attributes
                0x0000058f       0x38 C:/ProgramData/KMC/SOLID/SDK/2.0/solid-os/core/lib/armv7aLaiv/CT_\libsolid_cs.a(solid_mem_mmu.o)
 .ARM.attributes
                0x000005c7       0x38 C:/ProgramData/KMC/SOLID/SDK/2.0/solid-os/core/lib/armv7aLaiv/CT_\libsolid_cs.a(kmc_evttracker_core.o)
 .ARM.attributes
                0x000005ff       0x38 C:/ProgramData/KMC/SOLID/SDK/2.0/solid-os/core/lib/armv7aLaiv/CT_\libsolid_cs.a(dlmalloc.o)
 .ARM.attributes
                0x00000637       0x38 C:/ProgramData/KMC/SOLID/SDK/2.0/solid-os/core/lib/armv7aLaiv/CT_\libsolid_cs.a(solid_asan.o)
 .ARM.attributes
                0x0000066f       0x36 C:/ProgramData/KMC/SOLID/SDK/2.0/solid-os/core/lib/armv7aLaiv/CT_\libsolid_cs.a(solid_cs_args.o)
 .ARM.attributes
                0x000006a5       0x38 C:/ProgramData/KMC/SOLID/SDK/2.0/solid-os/net/lwIP/lib/armv7aLaiv/CT_\libnet.a(sys_arch.o)
 .ARM.attributes
                0x000006dd       0x38 C:/ProgramData/KMC/SOLID/SDK/2.0/solid-os/net/lwIP/lib/armv7aLaiv/CT_\libnet.a(sockets.o)
 .ARM.attributes
                0x00000715       0x38 C:/ProgramData/KMC/SOLID/SDK/2.0/solid-os/net/lwIP/lib/armv7aLaiv/CT_\libnet.a(tcpip.o)
 .ARM.attributes
                0x0000074d       0x38 C:/ProgramData/KMC/SOLID/SDK/2.0/solid-os/net/lwIP/lib/armv7aLaiv/CT_\libnet.a(def.o)
 .ARM.attributes
                0x00000785       0x38 C:/ProgramData/KMC/SOLID/SDK/2.0/solid-os/net/lwIP/lib/armv7aLaiv/CT_\libnet.a(init.o)
 .ARM.attributes
                0x000007bd       0x38 C:/ProgramData/KMC/SOLID/SDK/2.0/solid-os/net/lwIP/lib/armv7aLaiv/CT_\libnet.a(ip4.o)
 .ARM.attributes
                0x000007f5       0x38 C:/ProgramData/KMC/SOLID/SDK/2.0/solid-os/net/lwIP/lib/armv7aLaiv/CT_\libnet.a(ip4_addr.o)
 .ARM.attributes
                0x0000082d       0x38 C:/ProgramData/KMC/SOLID/SDK/2.0/solid-os/net/lwIP/lib/armv7aLaiv/CT_\libnet.a(ip4_frag.o)
 .ARM.attributes
                0x00000865       0x38 C:/ProgramData/KMC/SOLID/SDK/2.0/solid-os/net/lwIP/lib/armv7aLaiv/CT_\libnet.a(mem.o)
 .ARM.attributes
                0x0000089d       0x38 C:/ProgramData/KMC/SOLID/SDK/2.0/solid-os/net/lwIP/lib/armv7aLaiv/CT_\libnet.a(memp.o)
 .ARM.attributes
                0x000008d5       0x38 C:/ProgramData/KMC/SOLID/SDK/2.0/solid-os/net/lwIP/lib/armv7aLaiv/CT_\libnet.a(netif.o)
 .ARM.attributes
                0x0000090d       0x38 C:/ProgramData/KMC/SOLID/SDK/2.0/solid-os/net/lwIP/lib/armv7aLaiv/CT_\libnet.a(pbuf.o)
 .ARM.attributes
                0x00000945       0x38 C:/ProgramData/KMC/SOLID/SDK/2.0/solid-os/net/lwIP/lib/armv7aLaiv/CT_\libnet.a(stats.o)
 .ARM.attributes
                0x0000097d       0x38 C:/ProgramData/KMC/SOLID/SDK/2.0/solid-os/net/lwIP/lib/armv7aLaiv/CT_\libnet.a(tcp.o)
 .ARM.attributes
                0x000009b5       0x38 C:/ProgramData/KMC/SOLID/SDK/2.0/solid-os/net/lwIP/lib/armv7aLaiv/CT_\libnet.a(tcp_in.o)
 .ARM.attributes
                0x000009ed       0x38 C:/ProgramData/KMC/SOLID/SDK/2.0/solid-os/net/lwIP/lib/armv7aLaiv/CT_\libnet.a(tcp_out.o)
 .ARM.attributes
                0x00000a25       0x38 C:/ProgramData/KMC/SOLID/SDK/2.0/solid-os/net/lwIP/lib/armv7aLaiv/CT_\libnet.a(timeouts.o)
 .ARM.attributes
                0x00000a5d       0x38 C:/ProgramData/KMC/SOLID/SDK/2.0/solid-os/net/lwIP/lib/armv7aLaiv/CT_\libnet.a(udp.o)
 .ARM.attributes
                0x00000a95       0x38 C:/ProgramData/KMC/SOLID/SDK/2.0/solid-os/net/lwIP/lib/armv7aLaiv/CT_\libnet.a(ethernet.o)
 .ARM.attributes
                0x00000acd       0x38 C:/ProgramData/KMC/SOLID/SDK/2.0/solid-os/net/lwIP/lib/armv7aLaiv/CT_\libnet.a(solid_net_if.o)
 .ARM.attributes
                0x00000b05       0x38 C:/ProgramData/KMC/SOLID/SDK/2.0/solid-os/net/lwIP/lib/armv7aLaiv/CT_\libnet.a(solid_net_registerapi.o)
 .ARM.attributes
                0x00000b3d       0x38 C:/ProgramData/KMC/SOLID/SDK/2.0/solid-os/net/lwIP/lib/armv7aLaiv/CT_\libnet.a(impl_net_stack.o)
 .ARM.attributes
                0x00000b75       0x38 C:/ProgramData/KMC/SOLID/SDK/2.0/solid-os/net/lwIP/lib/armv7aLaiv/CT_\libnet.a(impl_net_stack_errno.o)
 .ARM.attributes
                0x00000bad       0x38 C:/ProgramData/KMC/SOLID/SDK/2.0/solid-os/net/lwIP/lib/armv7aLaiv/CT_\libnet.a(ethernetif.o)
 .ARM.attributes
                0x00000be5       0x38 C:/ProgramData/KMC/SOLID/SDK/2.0/solid-os/net/lwIP/lib/armv7aLaiv/CT_\libnet.a(api_lib.o)
 .ARM.attributes
                0x00000c1d       0x38 C:/ProgramData/KMC/SOLID/SDK/2.0/solid-os/net/lwIP/lib/armv7aLaiv/CT_\libnet.a(api_msg.o)
 .ARM.attributes
                0x00000c55       0x38 C:/ProgramData/KMC/SOLID/SDK/2.0/solid-os/net/lwIP/lib/armv7aLaiv/CT_\libnet.a(err.o)
 .ARM.attributes
                0x00000c8d       0x38 C:/ProgramData/KMC/SOLID/SDK/2.0/solid-os/net/lwIP/lib/armv7aLaiv/CT_\libnet.a(netbuf.o)
 .ARM.attributes
                0x00000cc5       0x38 C:/ProgramData/KMC/SOLID/SDK/2.0/solid-os/net/lwIP/lib/armv7aLaiv/CT_\libnet.a(netdb.o)
 .ARM.attributes
                0x00000cfd       0x38 C:/ProgramData/KMC/SOLID/SDK/2.0/solid-os/net/lwIP/lib/armv7aLaiv/CT_\libnet.a(dns.o)
 .ARM.attributes
                0x00000d35       0x38 C:/ProgramData/KMC/SOLID/SDK/2.0/solid-os/net/lwIP/lib/armv7aLaiv/CT_\libnet.a(inet_chksum.o)
 .ARM.attributes
                0x00000d6d       0x36 C:/ProgramData/KMC/SOLID/SDK/2.0/solid-os/net/lwIP/lib/armv7aLaiv/CT_\libnet.a(ip.o)
 .ARM.attributes
                0x00000da3       0x38 C:/ProgramData/KMC/SOLID/SDK/2.0/solid-os/net/lwIP/lib/armv7aLaiv/CT_\libnet.a(dhcp.o)
 .ARM.attributes
                0x00000ddb       0x38 C:/ProgramData/KMC/SOLID/SDK/2.0/solid-os/net/lwIP/lib/armv7aLaiv/CT_\libnet.a(etharp.o)
 .ARM.attributes
                0x00000e13       0x38 C:/ProgramData/KMC/SOLID/SDK/2.0/solid-os/net/lwIP/lib/armv7aLaiv/CT_\libnet.a(icmp.o)
 .ARM.attributes
                0x00000e4b       0x38 C:/ProgramData/KMC/SOLID/SDK/2.0/solid-os/rtos/toppers_asp3/lib/armv7aLaiv/CT__\libkernel.a(dataqueue.o)
 .ARM.attributes
                0x00000e83       0x38 C:/ProgramData/KMC/SOLID/SDK/2.0/solid-os/rtos/toppers_asp3/lib/armv7aLaiv/CT__\libkernel.a(interrupt.o)
 .ARM.attributes
                0x00000ebb       0x38 C:/ProgramData/KMC/SOLID/SDK/2.0/solid-os/rtos/toppers_asp3/lib/armv7aLaiv/CT__\libkernel.a(vasyslog.o)
 .ARM.attributes
                0x00000ef3       0x38 C:/ProgramData/KMC/SOLID/SDK/2.0/solid-os/rtos/toppers_asp3/lib/armv7aLaiv/CT__\libkernel.a(semaphore.o)
 .ARM.attributes
                0x00000f2b       0x38 C:/ProgramData/KMC/SOLID/SDK/2.0/solid-os/rtos/toppers_asp3/lib/armv7aLaiv/CT__\libkernel.a(startup.o)
 .ARM.attributes
                0x00000f63       0x38 C:/ProgramData/KMC/SOLID/SDK/2.0/solid-os/rtos/toppers_asp3/lib/armv7aLaiv/CT__\libkernel.a(sys_manage.o)
 .ARM.attributes
                0x00000f9b       0x38 C:/ProgramData/KMC/SOLID/SDK/2.0/solid-os/rtos/toppers_asp3/lib/armv7aLaiv/CT__\libkernel.a(task.o)
 .ARM.attributes
                0x00000fd3       0x38 C:/ProgramData/KMC/SOLID/SDK/2.0/solid-os/rtos/toppers_asp3/lib/armv7aLaiv/CT__\libkernel.a(taskhook.o)
 .ARM.attributes
                0x0000100b       0x38 C:/ProgramData/KMC/SOLID/SDK/2.0/solid-os/rtos/toppers_asp3/lib/armv7aLaiv/CT__\libkernel.a(task_manage.o)
 .ARM.attributes
                0x00001043       0x38 C:/ProgramData/KMC/SOLID/SDK/2.0/solid-os/rtos/toppers_asp3/lib/armv7aLaiv/CT__\libkernel.a(time_event.o)
 .ARM.attributes
                0x0000107b       0x38 C:/ProgramData/KMC/SOLID/SDK/2.0/solid-os/rtos/toppers_asp3/lib/armv7aLaiv/CT__\libkernel.a(wait.o)
 .ARM.attributes
                0x000010b3       0x38 C:/ProgramData/KMC/SOLID/SDK/2.0/solid-os/rtos/toppers_asp3/lib/armv7aLaiv/CT__\libkernel.a(solid_rtos_registerapi.o)
 .ARM.attributes
                0x000010eb       0x38 C:/ProgramData/KMC/SOLID/SDK/2.0/solid-os/rtos/toppers_asp3/lib/armv7aLaiv/CT__\libkernel.a(target_fput_log.o)
 .ARM.attributes
                0x00001123       0x38 C:/ProgramData/KMC/SOLID/SDK/2.0/solid-os/rtos/toppers_asp3/lib/armv7aLaiv/CT__\libkernel.a(target_intc_impl.o)
 .ARM.attributes
                0x0000115b       0x38 C:/ProgramData/KMC/SOLID/SDK/2.0/solid-os/rtos/toppers_asp3/lib/armv7aLaiv/CT__\libkernel.a(target_timer_impl.o)
 .ARM.attributes
                0x00001193       0x38 C:/ProgramData/KMC/SOLID/SDK/2.0/solid-os/rtos/toppers_asp3/lib/armv7aLaiv/CT__\libkernel.a(kmc_evttracker_rtos.o)
 .ARM.attributes
                0x000011cb       0x38 C:/ProgramData/KMC/SOLID/SDK/2.0/solid-os/rtos/toppers_asp3/lib/armv7aLaiv/CT__\libkernel.a(rtos_prof.o)
 .ARM.attributes
                0x00001203       0x1c C:/ProgramData/KMC/SOLID/SDK/2.0/solid-os/rtos/toppers_asp3/lib/armv7aLaiv/CT__\libkernel.a(core_support.o)
 .ARM.attributes
                0x0000121f       0x38 C:/ProgramData/KMC/SOLID/SDK/2.0/solid-os/rtos/toppers_asp3/lib/armv7aLaiv/CT__\libkernel.a(kernel_cfg_intl.o)
 .ARM.attributes
                0x00001257       0x38 C:/ProgramData/KMC/SOLID/SDK/2.0/solid-os/rtos/toppers_asp3/lib/armv7aLaiv/CT__\libkernel.a(alarm.o)
 .ARM.attributes
                0x0000128f       0x38 C:/ProgramData/KMC/SOLID/SDK/2.0/solid-os/rtos/toppers_asp3/lib/armv7aLaiv/CT__\libkernel.a(core_kernel_impl.o)
 .ARM.attributes
                0x000012c7       0x38 C:/ProgramData/KMC/SOLID/SDK/2.0/solid-os/rtos/toppers_asp3/lib/armv7aLaiv/CT__\libkernel.a(cyclic.o)
 .ARM.attributes
                0x000012ff       0x38 C:/ProgramData/KMC/SOLID/SDK/2.0/solid-os/rtos/toppers_asp3/lib/armv7aLaiv/CT__\libkernel.a(eventflag.o)
 .ARM.attributes
                0x00001337       0x38 C:/ProgramData/KMC/SOLID/SDK/2.0/solid-os/rtos/toppers_asp3/lib/armv7aLaiv/CT__\libkernel.a(exception.o)
 .ARM.attributes
                0x0000136f       0x38 C:/ProgramData/KMC/SOLID/SDK/2.0/solid-os/rtos/toppers_asp3/lib/armv7aLaiv/CT__\libkernel.a(mempfix.o)
 .ARM.attributes
                0x000013a7       0x38 C:/ProgramData/KMC/SOLID/SDK/2.0/solid-os/rtos/toppers_asp3/lib/armv7aLaiv/CT__\libkernel.a(tSysLog.o)
 .ARM.attributes
                0x000013df       0x38 C:/ProgramData/KMC/SOLID/SDK/2.0/solid-os/rtos/toppers_asp3/lib/armv7aLaiv/CT__\libkernel.a(mutex.o)
 .ARM.attributes
                0x00001417       0x38 C:/ProgramData/KMC/SOLID/SDK/2.0/solid-os/rtos/toppers_asp3/lib/armv7aLaiv/CT__\libkernel.a(pridataq.o)
 .ARM.attributes
                0x0000144f       0x38 C:/ProgramData/KMC/SOLID/SDK/2.0/solid-os/rtos/toppers_asp3/lib/armv7aLaiv/CT__\libkernel.a(task_refer.o)
 .ARM.attributes
                0x00001487       0x38 C:/ProgramData/KMC/SOLID/SDK/2.0/solid-os/rtos/toppers_asp3/lib/armv7aLaiv/CT__\libkernel.a(task_sync.o)
 .ARM.attributes
                0x000014bf       0x38 C:/ProgramData/KMC/SOLID/SDK/2.0/solid-os/rtos/toppers_asp3/lib/armv7aLaiv/CT__\libkernel.a(task_term.o)
 .ARM.attributes
                0x000014f7       0x38 C:/ProgramData/KMC/SOLID/SDK/2.0/solid-os/rtos/toppers_asp3/lib/armv7aLaiv/CT__\libkernel.a(time_manage.o)
 .ARM.attributes
                0x0000152f       0x38 C:/ProgramData/KMC/SOLID/SDK/2.0/solid-os/rtos/toppers_asp3/lib/armv7aLaiv/CT__\libkernel.a(log_output.o)
 .ARM.attributes
                0x00001567       0x47 C:/Users/admin/Documents/SOLID-IDE/Projects/lwip_server/Debug_tasan/exeClang_SOLID/\libbsp.a(impl_cs_event.o)
 .ARM.attributes
                0x000015ae       0x47 C:/Users/admin/Documents/SOLID-IDE/Projects/lwip_server/Debug_tasan/exeClang_SOLID/\libbsp.a(impl_dmac.o)
 .ARM.attributes
                0x000015f5       0x47 C:/Users/admin/Documents/SOLID-IDE/Projects/lwip_server/Debug_tasan/exeClang_SOLID/\libbsp.a(impl_iores.o)
 .ARM.attributes
                0x0000163c       0x47 C:/Users/admin/Documents/SOLID-IDE/Projects/lwip_server/Debug_tasan/exeClang_SOLID/\libbsp.a(impl_log.o)
 .ARM.attributes
                0x00001683       0x47 C:/Users/admin/Documents/SOLID-IDE/Projects/lwip_server/Debug_tasan/exeClang_SOLID/\libbsp.a(impl_net_dev_ether.o)
 .ARM.attributes
                0x000016ca       0x47 C:/Users/admin/Documents/SOLID-IDE/Projects/lwip_server/Debug_tasan/exeClang_SOLID/\libbsp.a(impl_net_dev_get_macaddr.o)
 .ARM.attributes
                0x00001711       0x47 C:/Users/admin/Documents/SOLID-IDE/Projects/lwip_server/Debug_tasan/exeClang_SOLID/\libbsp.a(impl_net_dev_getconfig.o)
 .ARM.attributes
                0x00001758       0x47 C:/Users/admin/Documents/SOLID-IDE/Projects/lwip_server/Debug_tasan/exeClang_SOLID/\libbsp.a(impl_rtc.o)
 .ARM.attributes
                0x0000179f       0x47 C:/Users/admin/Documents/SOLID-IDE/Projects/lwip_server/Debug_tasan/exeClang_SOLID/\libbsp.a(impl_timer.o)
 .ARM.attributes
                0x000017e6       0x47 C:/Users/admin/Documents/SOLID-IDE/Projects/lwip_server/Debug_tasan/exeClang_SOLID/\libbsp.a(rtc.o)
 .ARM.attributes
                0x0000182d       0x47 C:/Users/admin/Documents/SOLID-IDE/Projects/lwip_server/Debug_tasan/exeClang_SOLID/\libbsp.a(rtc_userdef.o)
 .ARM.attributes
                0x00001874       0x47 C:/Users/admin/Documents/SOLID-IDE/Projects/lwip_server/Debug_tasan/exeClang_SOLID/\libbsp.a(bsp_globals.o)
 .ARM.attributes
                0x000018bb       0x47 C:/Users/admin/Documents/SOLID-IDE/Projects/lwip_server/Debug_tasan/exeClang_SOLID/\libbsp.a(rza_io_regrw.o)
 .ARM.attributes
                0x00001902       0x2d C:/GCC4/ARM/s002/lib/armv7aLaiv\libstdc++.a(class_type_info.o)
 .ARM.attributes
                0x0000192f       0x2d C:/GCC4/ARM/s002/lib/armv7aLaiv\libstdc++.a(new_handler.o)
 .ARM.attributes
                0x0000195c       0x2d C:/GCC4/ARM/s002/lib/armv7aLaiv\libstdc++.a(del_ops.o)
 .ARM.attributes
                0x00001989       0x2d C:/GCC4/ARM/s002/lib/armv7aLaiv\libstdc++.a(si_class_type_info.o)
 .ARM.attributes
                0x000019b6       0x2d C:/GCC4/ARM/s002/lib/armv7aLaiv\libstdc++.a(del_op.o)
 .ARM.attributes
                0x000019e3       0x2d C:/GCC4/ARM/s002/lib/armv7aLaiv\libstdc++.a(tinfo.o)
 .ARM.attributes
                0x00001a10       0x1f C:/GCC4/ARM/s002/lib/armv7aLaiv/libgcc.a(_udivsi3.o)
 .ARM.attributes
                0x00001a2f       0x1f C:/GCC4/ARM/s002/lib/armv7aLaiv/libgcc.a(_dvmd_tls.o)
 .ARM.attributes
                0x00001a4e       0x1f C:/GCC4/ARM/s002/lib/armv7aLaiv/libgcc.a(_aeabi_uldivmod.o)
 .ARM.attributes
                0x00001a6d       0x2d C:/GCC4/ARM/s002/lib/armv7aLaiv/libgcc.a(_udivmoddi4.o)
 .ARM.attributes
                0x00001a9a       0x2d C:/GCC4/ARM/s002/lib/armv7aLaiv/libgcc.a(unwind-arm.o)
 .ARM.attributes
                0x00001ac7       0x1f C:/GCC4/ARM/s002/lib/armv7aLaiv/libgcc.a(libunwind.o)
 .ARM.attributes
                0x00001ae6       0x2d C:/GCC4/ARM/s002/lib/armv7aLaiv/libgcc.a(pr-support.o)
 .ARM.attributes
                0x00001b13       0x2d C:/GCC4/ARM/s002/lib/armv7aLaiv/libc.a(_m_init.o)
 .ARM.attributes
                0x00001b40       0x2d C:/GCC4/ARM/s002/lib/armv7aLaiv/libc.a(abort.o)
 .ARM.attributes
                0x00001b6d       0x2d C:/GCC4/ARM/s002/lib/armv7aLaiv/libc.a(errno.o)
 .ARM.attributes
                0x00001b9a       0x2d C:/GCC4/ARM/s002/lib/armv7aLaiv/libc.a(atoi.o)
 .ARM.attributes
                0x00001bc7       0x2d C:/GCC4/ARM/s002/lib/armv7aLaiv/libc.a(rand.o)
 .ARM.attributes
                0x00001bf4       0x2d C:/GCC4/ARM/s002/lib/armv7aLaiv/libc.a(strtol.o)
 .ARM.attributes
                0x00001c21       0x2d C:/GCC4/ARM/s002/lib/armv7aLaiv/libc.a(strtoul.o)
 .ARM.attributes
                0x00001c4e       0x2d C:/GCC4/ARM/s002/lib/armv7aLaiv/libc.a(atexit.o)
 .ARM.attributes
                0x00001c7b       0x1d C:/GCC4/ARM/s002/lib/armv7aLaiv/libc.a(memcmp.o)
 .ARM.attributes
                0x00001c98       0x1d C:/GCC4/ARM/s002/lib/armv7aLaiv/libc.a(memcpy.o)
 .ARM.attributes
                0x00001cb5       0x1d C:/GCC4/ARM/s002/lib/armv7aLaiv/libc.a(memmove.o)
 .ARM.attributes
                0x00001cd2       0x1d C:/GCC4/ARM/s002/lib/armv7aLaiv/libc.a(memset.o)
 .ARM.attributes
                0x00001cef       0x1d C:/GCC4/ARM/s002/lib/armv7aLaiv/libc.a(strcpy.o)
 .ARM.attributes
                0x00001d0c       0x1d C:/GCC4/ARM/s002/lib/armv7aLaiv/libc.a(strncpy.o)
 .ARM.attributes
                0x00001d29       0x1d C:/GCC4/ARM/s002/lib/armv7aLaiv/libc.a(strcmp.o)
 .ARM.attributes
                0x00001d46       0x1d C:/GCC4/ARM/s002/lib/armv7aLaiv/libc.a(strncmp.o)
 .ARM.attributes
                0x00001d63       0x1d C:/GCC4/ARM/s002/lib/armv7aLaiv/libc.a(strlen.o)
 .ARM.attributes
                0x00001d80       0x2d C:/GCC4/ARM/s002/lib/armv7aLaiv/libc.a(isctype.o)
 .ARM.attributes
                0x00001dad       0x2d C:/GCC4/ARM/s002/lib/armv7aLaiv/libc.a(global_locale.o)
 .ARM.attributes
                0x00001dda       0x2d C:/GCC4/ARM/s002/lib/armv7aLaiv/libc.a(runetable.o)
 .ARM.attributes
                0x00001e07       0x2d C:/GCC4/ARM/s002/lib/armv7aLaiv/libc.a(thread-stub-init.o)
 .ARM.attributes
                0x00001e34       0x2d C:/GCC4/ARM/s002/lib/armv7aLaiv/libc.a(thread-stub.o)
 .ARM.attributes
                0x00001e61       0x2d C:/GCC4/ARM/s002/lib/armv7aLaiv/libc.a(ssp_init.o)
 .ARM.attributes
                0x00001e8e       0x2d C:/GCC4/ARM/s002/lib/armv7aLaiv/libc.a(findfp.o)
 .ARM.attributes
                0x00001ebb       0x2d C:/GCC4/ARM/s002/lib/armv7aLaiv/libc.a(fprintf.o)
 .ARM.attributes
                0x00001ee8       0x2d C:/GCC4/ARM/s002/lib/armv7aLaiv/libc.a(stdio.o)
 .ARM.attributes
                0x00001f15       0x2d C:/GCC4/ARM/s002/lib/armv7aLaiv/libc.a(vfprintf.o)
 .ARM.attributes
                0x00001f42       0x2d C:/GCC4/ARM/s002/lib/armv7aLaiv/libc.a(vsnprintf.o)
 .ARM.attributes
                0x00001f6f       0x2d C:/GCC4/ARM/s002/lib/armv7aLaiv/libc.a(wsetup.o)
 .ARM.attributes
                0x00001f9c       0x2d C:/GCC4/ARM/s002/lib/armv7aLaiv/libc.a(makebuf.o)
 .ARM.attributes
                0x00001fc9       0x2d C:/GCC4/ARM/s002/lib/armv7aLaiv/libc.a(close.o)
 .ARM.attributes
                0x00001ff6       0x2d C:/GCC4/ARM/s002/lib/armv7aLaiv/libc.a(fstat.o)
 .ARM.attributes
                0x00002023       0x2d C:/GCC4/ARM/s002/lib/armv7aLaiv/libc.a(lseek.o)
 .ARM.attributes
                0x00002050       0x2d C:/GCC4/ARM/s002/lib/armv7aLaiv/libc.a(open.o)
 .ARM.attributes
                0x0000207d       0x2d C:/GCC4/ARM/s002/lib/armv7aLaiv/libc.a(osemu.o)
 .ARM.attributes
                0x000020aa       0x2d C:/GCC4/ARM/s002/lib/armv7aLaiv/libc.a(perror.o)
 .ARM.attributes
                0x000020d7       0x2d C:/GCC4/ARM/s002/lib/armv7aLaiv/libc.a(read.o)
 .ARM.attributes
                0x00002104       0x2d C:/GCC4/ARM/s002/lib/armv7aLaiv/libc.a(u2dname.o)
 .ARM.attributes
                0x00002131       0x2d C:/GCC4/ARM/s002/lib/armv7aLaiv/libc.a(utime.o)
 .ARM.attributes
                0x0000215e       0x2d C:/GCC4/ARM/s002/lib/armv7aLaiv/libc.a(write.o)
 .ARM.attributes
                0x0000218b       0x2d C:/GCC4/ARM/s002/lib/armv7aLaiv/libc.a(_env.o)
 .ARM.attributes
                0x000021b8       0x2d C:/GCC4/ARM/s002/lib/armv7aLaiv/libc.a(exit.o)
 .ARM.attributes
                0x000021e5       0x2d C:/GCC4/ARM/s002/lib/armv7aLaiv/libc.a(signal.o)
 .ARM.attributes
                0x00002212       0x2d C:/GCC4/ARM/s002/lib/armv7aLaiv/libc.a(localtime.o)
 .ARM.attributes
                0x0000223f       0x2d C:/GCC4/ARM/s002/lib/armv7aLaiv/libc.a(lldiv.o)
 .ARM.attributes
                0x0000226c       0x2d C:/GCC4/ARM/s002/lib/armv7aLaiv/libc.a(memchr.o)
 .ARM.attributes
                0x00002299       0x1d C:/GCC4/ARM/s002/lib/armv7aLaiv/libc.a(strnlen.o)
 .ARM.attributes
                0x000022b6       0x2d C:/GCC4/ARM/s002/lib/armv7aLaiv/libc.a(strcspn.o)
 .ARM.attributes
                0x000022e3       0x2d C:/GCC4/ARM/s002/lib/armv7aLaiv/libc.a(strncasecmp.o)
 .ARM.attributes
                0x00002310       0x2d C:/GCC4/ARM/s002/lib/armv7aLaiv/libc.a(strdup.o)
 .ARM.attributes
                0x0000233d       0x2d C:/GCC4/ARM/s002/lib/armv7aLaiv/libc.a(ctype_.o)
 .ARM.attributes
                0x0000236a       0x2d C:/GCC4/ARM/s002/lib/armv7aLaiv/libc.a(toupper_.o)
 .ARM.attributes
                0x00002397       0x2d C:/GCC4/ARM/s002/lib/armv7aLaiv/libc.a(tolower_.o)
 .ARM.attributes
                0x000023c4       0x2d C:/GCC4/ARM/s002/lib/armv7aLaiv/libc.a(citrus_ctype.o)
 .ARM.attributes
                0x000023f1       0x2d C:/GCC4/ARM/s002/lib/armv7aLaiv/libc.a(citrus_none.o)
 .ARM.attributes
                0x0000241e       0x2d C:/GCC4/ARM/s002/lib/armv7aLaiv/libc.a(citrus_mskanji.o)
 .ARM.attributes
                0x0000244b       0x2d C:/GCC4/ARM/s002/lib/armv7aLaiv/libc.a(citrus_utf8.o)
 .ARM.attributes
                0x00002478       0x2d C:/GCC4/ARM/s002/lib/armv7aLaiv/libc.a(localeconv.o)
 .ARM.attributes
                0x000024a5       0x2d C:/GCC4/ARM/s002/lib/armv7aLaiv/libc.a(multibyte_amd1.o)
 .ARM.attributes
                0x000024d2       0x2d C:/GCC4/ARM/s002/lib/armv7aLaiv/libc.a(__isthreaded.o)
 .ARM.attributes
                0x000024ff       0x2d C:/GCC4/ARM/s002/lib/armv7aLaiv/libc.a(dtoa.o)
 .ARM.attributes
                0x0000252c       0x2d C:/GCC4/ARM/s002/lib/armv7aLaiv/libc.a(ldtoa.o)
 .ARM.attributes
                0x00002559       0x2d C:/GCC4/ARM/s002/lib/armv7aLaiv/libc.a(hdtoa.o)
 .ARM.attributes
                0x00002586       0x2d C:/GCC4/ARM/s002/lib/armv7aLaiv/libc.a(dmisc.o)
 .ARM.attributes
                0x000025b3       0x2d C:/GCC4/ARM/s002/lib/armv7aLaiv/libc.a(misc.o)
 .ARM.attributes
                0x000025e0       0x2d C:/GCC4/ARM/s002/lib/armv7aLaiv/libc.a(softfloat.o)
 .ARM.attributes
                0x0000260d       0x2d C:/GCC4/ARM/s002/lib/armv7aLaiv/libc.a(__aeabi_dcmpeq.o)
 .ARM.attributes
                0x0000263a       0x2d C:/GCC4/ARM/s002/lib/armv7aLaiv/libc.a(__aeabi_dcmpge.o)
 .ARM.attributes
                0x00002667       0x2d C:/GCC4/ARM/s002/lib/armv7aLaiv/libc.a(__aeabi_dcmpgt.o)
 .ARM.attributes
                0x00002694       0x2d C:/GCC4/ARM/s002/lib/armv7aLaiv/libc.a(__aeabi_dcmplt.o)
 .ARM.attributes
                0x000026c1       0x2d C:/GCC4/ARM/s002/lib/armv7aLaiv/libc.a(rb.o)
 .ARM.attributes
                0x000026ee       0x2d C:/GCC4/ARM/s002/lib/armv7aLaiv/libc.a(fflush.o)
 .ARM.attributes
                0x0000271b       0x2d C:/GCC4/ARM/s002/lib/armv7aLaiv/libc.a(flockfile.o)
 .ARM.attributes
                0x00002748       0x2d C:/GCC4/ARM/s002/lib/armv7aLaiv/libc.a(fvwrite.o)
 .ARM.attributes
                0x00002775       0x2d C:/GCC4/ARM/s002/lib/armv7aLaiv/libc.a(fwalk.o)
 .ARM.attributes
                0x000027a2       0x2d C:/GCC4/ARM/s002/lib/armv7aLaiv/libc.a(creat.o)
 .ARM.attributes
                0x000027cf       0x2d C:/GCC4/ARM/s002/lib/armv7aLaiv/libc.a(fpclassifyd_ieee754.o)
 .ARM.attributes
                0x000027fc       0x2d C:/GCC4/ARM/s002/lib/armv7aLaiv/libc.a(strcasecmp.o)
 .ARM.attributes
                0x00002829       0x2d C:/GCC4/ARM/s002/lib/armv7aLaiv/libc.a(gdtoa_locks.o)
 .ARM.attributes
                0x00002856       0x1f C:/GCC4/ARM/s002/lib/armv7aLaiv/libgcc.a(_divsi3.o)
 .ARM.attributes
                0x00002875       0x1f C:/GCC4/ARM/s002/lib/armv7aLaiv/libgcc.a(_arm_addsubdf3.o)
 .ARM.attributes
                0x00002894       0x1f C:/GCC4/ARM/s002/lib/armv7aLaiv/libgcc.a(_aeabi_ldivmod.o)

.ident          0x00000000      0x2ea
 .ident         0x00000000       0x39 C:/GCC4/ARM/s002/lib/armv7aLaiv/libc.a(strtol.o)
 .ident         0x00000039       0x39 C:/GCC4/ARM/s002/lib/armv7aLaiv/libc.a(strtoul.o)
 .ident         0x00000072       0x38 C:/GCC4/ARM/s002/lib/armv7aLaiv/libc.a(memcmp.o)
 .ident         0x000000aa       0x3b C:/GCC4/ARM/s002/lib/armv7aLaiv/libc.a(strcpy.o)
 .ident         0x000000e5       0x3b C:/GCC4/ARM/s002/lib/armv7aLaiv/libc.a(strncpy.o)
 .ident         0x00000120       0x37 C:/GCC4/ARM/s002/lib/armv7aLaiv/libc.a(strcmp.o)
 .ident         0x00000157       0x38 C:/GCC4/ARM/s002/lib/armv7aLaiv/libc.a(strncmp.o)
 .ident         0x0000018f       0x3c C:/GCC4/ARM/s002/lib/armv7aLaiv/libc.a(strlen.o)
 .ident         0x000001cb       0x3c C:/GCC4/ARM/s002/lib/armv7aLaiv/libc.a(strnlen.o)
 .ident         0x00000207       0x39 C:/GCC4/ARM/s002/lib/armv7aLaiv/libc.a(strcspn.o)
 .ident         0x00000240       0x3a C:/GCC4/ARM/s002/lib/armv7aLaiv/libc.a(ldtoa.o)
 .ident         0x0000027a       0x35 C:/GCC4/ARM/s002/lib/armv7aLaiv/libc.a(hdtoa.o)
 .ident         0x000002af       0x3b C:/GCC4/ARM/s002/lib/armv7aLaiv/libc.a(rb.o)

.debug_weaknames
 *(.debug_weaknames)

.debug_funcnames
 *(.debug_funcnames)

.debug_typenames
 *(.debug_typenames)

.debug_varnames
 *(.debug_varnames)
OUTPUT(C:/Users/admin/Documents/SOLID-IDE/Projects/lwip_server/Debug_tasan/exeClang_SOLID/lwip_server.out elf32-littlearm)

.debug_pubtypes
                0x00000000     0xac6a
 .debug_pubtypes
                0x00000000      0x8ae C:/Users/admin/Documents/SOLID-IDE/Projects/lwip_server/Debug_tasan/exeClang_SOLID/lwip_server/lwip_server_all.o
 .debug_pubtypes
                0x000008ae       0x40 C:/ProgramData/KMC/SOLID/SDK/2.0/solid-os/core/lib/armv7aLaiv/CT_\libsolid_cs.a(solid_cs_main.o)
 .debug_pubtypes
                0x000008ee       0x12 C:/ProgramData/KMC/SOLID/SDK/2.0/solid-os/core/lib/armv7aLaiv/CT_\libsolid_cs.a(kmc_trace_mem_dummy.o)
 .debug_pubtypes
                0x00000900      0x177 C:/ProgramData/KMC/SOLID/SDK/2.0/solid-os/core/lib/armv7aLaiv/CT_\libsolid_cs.a(solid_cs_event.o)
 .debug_pubtypes
                0x00000a77       0x61 C:/ProgramData/KMC/SOLID/SDK/2.0/solid-os/core/lib/armv7aLaiv/CT_\libsolid_cs.a(solid_debugger.o)
 .debug_pubtypes
                0x00000ad8      0x1dd C:/ProgramData/KMC/SOLID/SDK/2.0/solid-os/core/lib/armv7aLaiv/CT_\libsolid_cs.a(solid_dmac.o)
 .debug_pubtypes
                0x00000cb5       0x92 C:/ProgramData/KMC/SOLID/SDK/2.0/solid-os/core/lib/armv7aLaiv/CT_\libsolid_cs.a(solid_exception.o)
 .debug_pubtypes
                0x00000d47      0x210 C:/ProgramData/KMC/SOLID/SDK/2.0/solid-os/core/lib/armv7aLaiv/CT_\libsolid_cs.a(solid_fs_base.o)
 .debug_pubtypes
                0x00000f57      0x164 C:/ProgramData/KMC/SOLID/SDK/2.0/solid-os/core/lib/armv7aLaiv/CT_\libsolid_cs.a(solid_fs_mem.o)
 .debug_pubtypes
                0x000010bb      0x156 C:/ProgramData/KMC/SOLID/SDK/2.0/solid-os/core/lib/armv7aLaiv/CT_\libsolid_cs.a(solid_fs_vlink.o)
 .debug_pubtypes
                0x00001211      0x18b C:/ProgramData/KMC/SOLID/SDK/2.0/solid-os/core/lib/armv7aLaiv/CT_\libsolid_cs.a(solid_intc.o)
 .debug_pubtypes
                0x0000139c      0x1eb C:/ProgramData/KMC/SOLID/SDK/2.0/solid-os/core/lib/armv7aLaiv/CT_\libsolid_cs.a(solid_iores.o)
 .debug_pubtypes
                0x00001587      0x33d C:/ProgramData/KMC/SOLID/SDK/2.0/solid-os/core/lib/armv7aLaiv/CT_\libsolid_cs.a(solid_loader.o)
 .debug_pubtypes
                0x000018c4       0x67 C:/ProgramData/KMC/SOLID/SDK/2.0/solid-os/core/lib/armv7aLaiv/CT_\libsolid_cs.a(solid_loader_fixed.o)
 .debug_pubtypes
                0x0000192b       0xd1 C:/ProgramData/KMC/SOLID/SDK/2.0/solid-os/core/lib/armv7aLaiv/CT_\libsolid_cs.a(solid_log.o)
 .debug_pubtypes
                0x000019fc       0xb7 C:/ProgramData/KMC/SOLID/SDK/2.0/solid-os/core/lib/armv7aLaiv/CT_\libsolid_cs.a(solid_malloc.o)
 .debug_pubtypes
                0x00001ab3      0x32c C:/ProgramData/KMC/SOLID/SDK/2.0/solid-os/core/lib/armv7aLaiv/CT_\libsolid_cs.a(solid_mem.o)
 .debug_pubtypes
                0x00001ddf       0xbe C:/ProgramData/KMC/SOLID/SDK/2.0/solid-os/core/lib/armv7aLaiv/CT_\libsolid_cs.a(solid_mem_cache.o)
 .debug_pubtypes
                0x00001e9d      0x11a C:/ProgramData/KMC/SOLID/SDK/2.0/solid-os/core/lib/armv7aLaiv/CT_\libsolid_cs.a(solid_mutex.o)
 .debug_pubtypes
                0x00001fb7       0x2d C:/ProgramData/KMC/SOLID/SDK/2.0/solid-os/core/lib/armv7aLaiv/CT_\libsolid_cs.a(solid_rtc.o)
 .debug_pubtypes
                0x00001fe4      0x1a7 C:/ProgramData/KMC/SOLID/SDK/2.0/solid-os/core/lib/armv7aLaiv/CT_\libsolid_cs.a(solid_timer.o)
 .debug_pubtypes
                0x0000218b       0xd3 C:/ProgramData/KMC/SOLID/SDK/2.0/solid-os/core/lib/armv7aLaiv/CT_\libsolid_cs.a(solid_vector.o)
 .debug_pubtypes
                0x0000225e       0x64 C:/ProgramData/KMC/SOLID/SDK/2.0/solid-os/core/lib/armv7aLaiv/CT_\libsolid_cs.a(solid_vlink.o)
 .debug_pubtypes
                0x000022c2      0x1b2 C:/ProgramData/KMC/SOLID/SDK/2.0/solid-os/core/lib/armv7aLaiv/CT_\libsolid_cs.a(tasan.o)
 .debug_pubtypes
                0x00002474       0x4f C:/ProgramData/KMC/SOLID/SDK/2.0/solid-os/core/lib/armv7aLaiv/CT_\libsolid_cs.a(tasan_interceptors.o)
 .debug_pubtypes
                0x000024c3      0x1ac C:/ProgramData/KMC/SOLID/SDK/2.0/solid-os/core/lib/armv7aLaiv/CT_\libsolid_cs.a(solid_mem_mmu.o)
 .debug_pubtypes
                0x0000266f      0x15c C:/ProgramData/KMC/SOLID/SDK/2.0/solid-os/core/lib/armv7aLaiv/CT_\libsolid_cs.a(kmc_evttracker_core.o)
 .debug_pubtypes
                0x000027cb      0x15b C:/ProgramData/KMC/SOLID/SDK/2.0/solid-os/core/lib/armv7aLaiv/CT_\libsolid_cs.a(dlmalloc.o)
 .debug_pubtypes
                0x00002926       0x98 C:/ProgramData/KMC/SOLID/SDK/2.0/solid-os/core/lib/armv7aLaiv/CT_\libsolid_cs.a(solid_asan.o)
 .debug_pubtypes
                0x000029be       0x85 C:/ProgramData/KMC/SOLID/SDK/2.0/solid-os/core/lib/armv7aLaiv/CT_\libsolid_cs.a(solid_cs_args.o)
 .debug_pubtypes
                0x00002a43      0x1ab C:/ProgramData/KMC/SOLID/SDK/2.0/solid-os/net/lwIP/lib/armv7aLaiv/CT_\libnet.a(sys_arch.o)
 .debug_pubtypes
                0x00002bee      0x39a C:/ProgramData/KMC/SOLID/SDK/2.0/solid-os/net/lwIP/lib/armv7aLaiv/CT_\libnet.a(sockets.o)
 .debug_pubtypes
                0x00002f88      0x1fc C:/ProgramData/KMC/SOLID/SDK/2.0/solid-os/net/lwIP/lib/armv7aLaiv/CT_\libnet.a(tcpip.o)
 .debug_pubtypes
                0x00003184       0x92 C:/ProgramData/KMC/SOLID/SDK/2.0/solid-os/net/lwIP/lib/armv7aLaiv/CT_\libnet.a(def.o)
 .debug_pubtypes
                0x00003216       0x1a C:/ProgramData/KMC/SOLID/SDK/2.0/solid-os/net/lwIP/lib/armv7aLaiv/CT_\libnet.a(init.o)
 .debug_pubtypes
                0x00003230      0x1db C:/ProgramData/KMC/SOLID/SDK/2.0/solid-os/net/lwIP/lib/armv7aLaiv/CT_\libnet.a(ip4.o)
 .debug_pubtypes
                0x0000340b      0x16b C:/ProgramData/KMC/SOLID/SDK/2.0/solid-os/net/lwIP/lib/armv7aLaiv/CT_\libnet.a(ip4_addr.o)
 .debug_pubtypes
                0x00003576      0x20d C:/ProgramData/KMC/SOLID/SDK/2.0/solid-os/net/lwIP/lib/armv7aLaiv/CT_\libnet.a(ip4_frag.o)
 .debug_pubtypes
                0x00003783       0xd5 C:/ProgramData/KMC/SOLID/SDK/2.0/solid-os/net/lwIP/lib/armv7aLaiv/CT_\libnet.a(mem.o)
 .debug_pubtypes
                0x00003858       0xf5 C:/ProgramData/KMC/SOLID/SDK/2.0/solid-os/net/lwIP/lib/armv7aLaiv/CT_\libnet.a(memp.o)
 .debug_pubtypes
                0x0000394d      0x175 C:/ProgramData/KMC/SOLID/SDK/2.0/solid-os/net/lwIP/lib/armv7aLaiv/CT_\libnet.a(netif.o)
 .debug_pubtypes
                0x00003ac2      0x2a5 C:/ProgramData/KMC/SOLID/SDK/2.0/solid-os/net/lwIP/lib/armv7aLaiv/CT_\libnet.a(pbuf.o)
 .debug_pubtypes
                0x00003d67       0x9f C:/ProgramData/KMC/SOLID/SDK/2.0/solid-os/net/lwIP/lib/armv7aLaiv/CT_\libnet.a(stats.o)
 .debug_pubtypes
                0x00003e06      0x292 C:/ProgramData/KMC/SOLID/SDK/2.0/solid-os/net/lwIP/lib/armv7aLaiv/CT_\libnet.a(tcp.o)
 .debug_pubtypes
                0x00004098      0x271 C:/ProgramData/KMC/SOLID/SDK/2.0/solid-os/net/lwIP/lib/armv7aLaiv/CT_\libnet.a(tcp_in.o)
 .debug_pubtypes
                0x00004309      0x2ab C:/ProgramData/KMC/SOLID/SDK/2.0/solid-os/net/lwIP/lib/armv7aLaiv/CT_\libnet.a(tcp_out.o)
 .debug_pubtypes
                0x000045b4       0xef C:/ProgramData/KMC/SOLID/SDK/2.0/solid-os/net/lwIP/lib/armv7aLaiv/CT_\libnet.a(timeouts.o)
 .debug_pubtypes
                0x000046a3      0x1bf C:/ProgramData/KMC/SOLID/SDK/2.0/solid-os/net/lwIP/lib/armv7aLaiv/CT_\libnet.a(udp.o)
 .debug_pubtypes
                0x00004862      0x19e C:/ProgramData/KMC/SOLID/SDK/2.0/solid-os/net/lwIP/lib/armv7aLaiv/CT_\libnet.a(ethernet.o)
 .debug_pubtypes
                0x00004a00      0x1dc C:/ProgramData/KMC/SOLID/SDK/2.0/solid-os/net/lwIP/lib/armv7aLaiv/CT_\libnet.a(solid_net_if.o)
 .debug_pubtypes
                0x00004bdc       0x65 C:/ProgramData/KMC/SOLID/SDK/2.0/solid-os/net/lwIP/lib/armv7aLaiv/CT_\libnet.a(solid_net_registerapi.o)
 .debug_pubtypes
                0x00004c41      0x213 C:/ProgramData/KMC/SOLID/SDK/2.0/solid-os/net/lwIP/lib/armv7aLaiv/CT_\libnet.a(impl_net_stack.o)
 .debug_pubtypes
                0x00004e54       0x48 C:/ProgramData/KMC/SOLID/SDK/2.0/solid-os/net/lwIP/lib/armv7aLaiv/CT_\libnet.a(impl_net_stack_errno.o)
 .debug_pubtypes
                0x00004e9c      0x1ae C:/ProgramData/KMC/SOLID/SDK/2.0/solid-os/net/lwIP/lib/armv7aLaiv/CT_\libnet.a(ethernetif.o)
 .debug_pubtypes
                0x0000504a      0x2e2 C:/ProgramData/KMC/SOLID/SDK/2.0/solid-os/net/lwIP/lib/armv7aLaiv/CT_\libnet.a(api_lib.o)
 .debug_pubtypes
                0x0000532c      0x2ca C:/ProgramData/KMC/SOLID/SDK/2.0/solid-os/net/lwIP/lib/armv7aLaiv/CT_\libnet.a(api_msg.o)
 .debug_pubtypes
                0x000055f6       0x53 C:/ProgramData/KMC/SOLID/SDK/2.0/solid-os/net/lwIP/lib/armv7aLaiv/CT_\libnet.a(err.o)
 .debug_pubtypes
                0x00005649      0x10c C:/ProgramData/KMC/SOLID/SDK/2.0/solid-os/net/lwIP/lib/armv7aLaiv/CT_\libnet.a(netbuf.o)
 .debug_pubtypes
                0x00005755      0x1d5 C:/ProgramData/KMC/SOLID/SDK/2.0/solid-os/net/lwIP/lib/armv7aLaiv/CT_\libnet.a(netdb.o)
 .debug_pubtypes
                0x0000592a      0x1a8 C:/ProgramData/KMC/SOLID/SDK/2.0/solid-os/net/lwIP/lib/armv7aLaiv/CT_\libnet.a(dns.o)
 .debug_pubtypes
                0x00005ad2       0xea C:/ProgramData/KMC/SOLID/SDK/2.0/solid-os/net/lwIP/lib/armv7aLaiv/CT_\libnet.a(inet_chksum.o)
 .debug_pubtypes
                0x00005bbc      0x1a2 C:/ProgramData/KMC/SOLID/SDK/2.0/solid-os/net/lwIP/lib/armv7aLaiv/CT_\libnet.a(ip.o)
 .debug_pubtypes
                0x00005d5e      0x200 C:/ProgramData/KMC/SOLID/SDK/2.0/solid-os/net/lwIP/lib/armv7aLaiv/CT_\libnet.a(dhcp.o)
 .debug_pubtypes
                0x00005f5e      0x1e8 C:/ProgramData/KMC/SOLID/SDK/2.0/solid-os/net/lwIP/lib/armv7aLaiv/CT_\libnet.a(etharp.o)
 .debug_pubtypes
                0x00006146      0x1ea C:/ProgramData/KMC/SOLID/SDK/2.0/solid-os/net/lwIP/lib/armv7aLaiv/CT_\libnet.a(icmp.o)
 .debug_pubtypes
                0x00006330      0x37d C:/ProgramData/KMC/SOLID/SDK/2.0/solid-os/rtos/toppers_asp3/lib/armv7aLaiv/CT__\libkernel.a(dataqueue.o)
 .debug_pubtypes
                0x000066ad      0x176 C:/ProgramData/KMC/SOLID/SDK/2.0/solid-os/rtos/toppers_asp3/lib/armv7aLaiv/CT__\libkernel.a(interrupt.o)
 .debug_pubtypes
                0x00006823       0xb6 C:/ProgramData/KMC/SOLID/SDK/2.0/solid-os/rtos/toppers_asp3/lib/armv7aLaiv/CT__\libkernel.a(vasyslog.o)
 .debug_pubtypes
                0x000068d9      0x31a C:/ProgramData/KMC/SOLID/SDK/2.0/solid-os/rtos/toppers_asp3/lib/armv7aLaiv/CT__\libkernel.a(semaphore.o)
 .debug_pubtypes
                0x00006bf3       0x91 C:/ProgramData/KMC/SOLID/SDK/2.0/solid-os/rtos/toppers_asp3/lib/armv7aLaiv/CT__\libkernel.a(startup.o)
 .debug_pubtypes
                0x00006c84      0x1db C:/ProgramData/KMC/SOLID/SDK/2.0/solid-os/rtos/toppers_asp3/lib/armv7aLaiv/CT__\libkernel.a(sys_manage.o)
 .debug_pubtypes
                0x00006e5f      0x2ca C:/ProgramData/KMC/SOLID/SDK/2.0/solid-os/rtos/toppers_asp3/lib/armv7aLaiv/CT__\libkernel.a(task.o)
 .debug_pubtypes
                0x00007129      0x1d3 C:/ProgramData/KMC/SOLID/SDK/2.0/solid-os/rtos/toppers_asp3/lib/armv7aLaiv/CT__\libkernel.a(taskhook.o)
 .debug_pubtypes
                0x000072fc      0x206 C:/ProgramData/KMC/SOLID/SDK/2.0/solid-os/rtos/toppers_asp3/lib/armv7aLaiv/CT__\libkernel.a(task_manage.o)
 .debug_pubtypes
                0x00007502      0x141 C:/ProgramData/KMC/SOLID/SDK/2.0/solid-os/rtos/toppers_asp3/lib/armv7aLaiv/CT__\libkernel.a(time_event.o)
 .debug_pubtypes
                0x00007643      0x28a C:/ProgramData/KMC/SOLID/SDK/2.0/solid-os/rtos/toppers_asp3/lib/armv7aLaiv/CT__\libkernel.a(wait.o)
 .debug_pubtypes
                0x000078cd       0x66 C:/ProgramData/KMC/SOLID/SDK/2.0/solid-os/rtos/toppers_asp3/lib/armv7aLaiv/CT__\libkernel.a(solid_rtos_registerapi.o)
 .debug_pubtypes
                0x00007933       0x84 C:/ProgramData/KMC/SOLID/SDK/2.0/solid-os/rtos/toppers_asp3/lib/armv7aLaiv/CT__\libkernel.a(target_fput_log.o)
 .debug_pubtypes
                0x000079b7      0x16c C:/ProgramData/KMC/SOLID/SDK/2.0/solid-os/rtos/toppers_asp3/lib/armv7aLaiv/CT__\libkernel.a(target_intc_impl.o)
 .debug_pubtypes
                0x00007b23      0x109 C:/ProgramData/KMC/SOLID/SDK/2.0/solid-os/rtos/toppers_asp3/lib/armv7aLaiv/CT__\libkernel.a(target_timer_impl.o)
 .debug_pubtypes
                0x00007c2c      0x385 C:/ProgramData/KMC/SOLID/SDK/2.0/solid-os/rtos/toppers_asp3/lib/armv7aLaiv/CT__\libkernel.a(kmc_evttracker_rtos.o)
 .debug_pubtypes
                0x00007fb1      0x28e C:/ProgramData/KMC/SOLID/SDK/2.0/solid-os/rtos/toppers_asp3/lib/armv7aLaiv/CT__\libkernel.a(rtos_prof.o)
 .debug_pubtypes
                0x0000823f       0x59 C:/ProgramData/KMC/SOLID/SDK/2.0/solid-os/rtos/toppers_asp3/lib/armv7aLaiv/CT__\libkernel.a(kernel_cfg_intl.o)
 .debug_pubtypes
                0x00008298      0x219 C:/ProgramData/KMC/SOLID/SDK/2.0/solid-os/rtos/toppers_asp3/lib/armv7aLaiv/CT__\libkernel.a(alarm.o)
 .debug_pubtypes
                0x000084b1       0x97 C:/ProgramData/KMC/SOLID/SDK/2.0/solid-os/rtos/toppers_asp3/lib/armv7aLaiv/CT__\libkernel.a(core_kernel_impl.o)
 .debug_pubtypes
                0x00008548      0x167 C:/ProgramData/KMC/SOLID/SDK/2.0/solid-os/rtos/toppers_asp3/lib/armv7aLaiv/CT__\libkernel.a(cyclic.o)
 .debug_pubtypes
                0x000086af      0x32e C:/ProgramData/KMC/SOLID/SDK/2.0/solid-os/rtos/toppers_asp3/lib/armv7aLaiv/CT__\libkernel.a(eventflag.o)
 .debug_pubtypes
                0x000089dd       0x71 C:/ProgramData/KMC/SOLID/SDK/2.0/solid-os/rtos/toppers_asp3/lib/armv7aLaiv/CT__\libkernel.a(exception.o)
 .debug_pubtypes
                0x00008a4e      0x369 C:/ProgramData/KMC/SOLID/SDK/2.0/solid-os/rtos/toppers_asp3/lib/armv7aLaiv/CT__\libkernel.a(mempfix.o)
 .debug_pubtypes
                0x00008db7       0xb4 C:/ProgramData/KMC/SOLID/SDK/2.0/solid-os/rtos/toppers_asp3/lib/armv7aLaiv/CT__\libkernel.a(tSysLog.o)
 .debug_pubtypes
                0x00008e6b      0x317 C:/ProgramData/KMC/SOLID/SDK/2.0/solid-os/rtos/toppers_asp3/lib/armv7aLaiv/CT__\libkernel.a(mutex.o)
 .debug_pubtypes
                0x00009182      0x384 C:/ProgramData/KMC/SOLID/SDK/2.0/solid-os/rtos/toppers_asp3/lib/armv7aLaiv/CT__\libkernel.a(pridataq.o)
 .debug_pubtypes
                0x00009506      0x633 C:/ProgramData/KMC/SOLID/SDK/2.0/solid-os/rtos/toppers_asp3/lib/armv7aLaiv/CT__\libkernel.a(task_refer.o)
 .debug_pubtypes
                0x00009b39      0x208 C:/ProgramData/KMC/SOLID/SDK/2.0/solid-os/rtos/toppers_asp3/lib/armv7aLaiv/CT__\libkernel.a(task_sync.o)
 .debug_pubtypes
                0x00009d41      0x1db C:/ProgramData/KMC/SOLID/SDK/2.0/solid-os/rtos/toppers_asp3/lib/armv7aLaiv/CT__\libkernel.a(task_term.o)
 .debug_pubtypes
                0x00009f1c       0xaf C:/ProgramData/KMC/SOLID/SDK/2.0/solid-os/rtos/toppers_asp3/lib/armv7aLaiv/CT__\libkernel.a(time_manage.o)
 .debug_pubtypes
                0x00009fcb       0x8e C:/ProgramData/KMC/SOLID/SDK/2.0/solid-os/rtos/toppers_asp3/lib/armv7aLaiv/CT__\libkernel.a(log_output.o)
 .debug_pubtypes
                0x0000a059       0x7c C:/Users/admin/Documents/SOLID-IDE/Projects/lwip_server/Debug_tasan/exeClang_SOLID/\libbsp.a(impl_cs_event.o)
 .debug_pubtypes
                0x0000a0d5      0x1e9 C:/Users/admin/Documents/SOLID-IDE/Projects/lwip_server/Debug_tasan/exeClang_SOLID/\libbsp.a(impl_dmac.o)
 .debug_pubtypes
                0x0000a2be       0x9c C:/Users/admin/Documents/SOLID-IDE/Projects/lwip_server/Debug_tasan/exeClang_SOLID/\libbsp.a(impl_iores.o)
 .debug_pubtypes
                0x0000a35a       0xcc C:/Users/admin/Documents/SOLID-IDE/Projects/lwip_server/Debug_tasan/exeClang_SOLID/\libbsp.a(impl_log.o)
 .debug_pubtypes
                0x0000a426      0x26e C:/Users/admin/Documents/SOLID-IDE/Projects/lwip_server/Debug_tasan/exeClang_SOLID/\libbsp.a(impl_net_dev_ether.o)
 .debug_pubtypes
                0x0000a694       0xe6 C:/Users/admin/Documents/SOLID-IDE/Projects/lwip_server/Debug_tasan/exeClang_SOLID/\libbsp.a(impl_net_dev_get_macaddr.o)
 .debug_pubtypes
                0x0000a77a       0x7d C:/Users/admin/Documents/SOLID-IDE/Projects/lwip_server/Debug_tasan/exeClang_SOLID/\libbsp.a(impl_net_dev_getconfig.o)
 .debug_pubtypes
                0x0000a7f7       0xc7 C:/Users/admin/Documents/SOLID-IDE/Projects/lwip_server/Debug_tasan/exeClang_SOLID/\libbsp.a(impl_rtc.o)
 .debug_pubtypes
                0x0000a8be      0x117 C:/Users/admin/Documents/SOLID-IDE/Projects/lwip_server/Debug_tasan/exeClang_SOLID/\libbsp.a(impl_timer.o)
 .debug_pubtypes
                0x0000a9d5      0x105 C:/Users/admin/Documents/SOLID-IDE/Projects/lwip_server/Debug_tasan/exeClang_SOLID/\libbsp.a(rtc.o)
 .debug_pubtypes
                0x0000aada       0x6a C:/Users/admin/Documents/SOLID-IDE/Projects/lwip_server/Debug_tasan/exeClang_SOLID/\libbsp.a(rtc_userdef.o)
 .debug_pubtypes
                0x0000ab44       0x8a C:/Users/admin/Documents/SOLID-IDE/Projects/lwip_server/Debug_tasan/exeClang_SOLID/\libbsp.a(bsp_globals.o)
 .debug_pubtypes
                0x0000abce       0x9c C:/Users/admin/Documents/SOLID-IDE/Projects/lwip_server/Debug_tasan/exeClang_SOLID/\libbsp.a(rza_io_regrw.o)

.debug_ranges   0x00000000     0x3488
 .debug_ranges  0x00000000        0x0 C:/Users/admin/Documents/SOLID-IDE/Projects/lwip_server/Debug_tasan/exeClang_SOLID/lwip_server/lwip_server_all.o
 .debug_ranges  0x00000000       0x28 C:/ProgramData/KMC/SOLID/SDK/2.0/solid-os/core/lib/armv7aLaiv/CT_\libsolid_cs.a(solid_cs_asm.o)
 .debug_ranges  0x00000028        0x0 C:/ProgramData/KMC/SOLID/SDK/2.0/solid-os/core/lib/armv7aLaiv/CT_\libsolid_cs.a(solid_cs_main.o)
 .debug_ranges  0x00000028        0x0 C:/ProgramData/KMC/SOLID/SDK/2.0/solid-os/core/lib/armv7aLaiv/CT_\libsolid_cs.a(kmc_trace_mem_dummy.o)
 .debug_ranges  0x00000028        0x0 C:/ProgramData/KMC/SOLID/SDK/2.0/solid-os/core/lib/armv7aLaiv/CT_\libsolid_cs.a(solid_cs_event.o)
 .debug_ranges  0x00000028        0x0 C:/ProgramData/KMC/SOLID/SDK/2.0/solid-os/core/lib/armv7aLaiv/CT_\libsolid_cs.a(solid_debugger.o)
 .debug_ranges  0x00000028       0x70 C:/ProgramData/KMC/SOLID/SDK/2.0/solid-os/core/lib/armv7aLaiv/CT_\libsolid_cs.a(solid_dmac.o)
 .debug_ranges  0x00000098        0x0 C:/ProgramData/KMC/SOLID/SDK/2.0/solid-os/core/lib/armv7aLaiv/CT_\libsolid_cs.a(solid_exception.o)
 .debug_ranges  0x00000098       0x40 C:/ProgramData/KMC/SOLID/SDK/2.0/solid-os/core/lib/armv7aLaiv/CT_\libsolid_cs.a(solid_fs_base.o)
 .debug_ranges  0x000000d8        0x0 C:/ProgramData/KMC/SOLID/SDK/2.0/solid-os/core/lib/armv7aLaiv/CT_\libsolid_cs.a(solid_fs_mem.o)
 .debug_ranges  0x000000d8        0x0 C:/ProgramData/KMC/SOLID/SDK/2.0/solid-os/core/lib/armv7aLaiv/CT_\libsolid_cs.a(solid_fs_vlink.o)
 .debug_ranges  0x000000d8       0x68 C:/ProgramData/KMC/SOLID/SDK/2.0/solid-os/core/lib/armv7aLaiv/CT_\libsolid_cs.a(solid_intc.o)
 .debug_ranges  0x00000140        0x0 C:/ProgramData/KMC/SOLID/SDK/2.0/solid-os/core/lib/armv7aLaiv/CT_\libsolid_cs.a(solid_iores.o)
 .debug_ranges  0x00000140      0x158 C:/ProgramData/KMC/SOLID/SDK/2.0/solid-os/core/lib/armv7aLaiv/CT_\libsolid_cs.a(solid_loader.o)
 .debug_ranges  0x00000298        0x0 C:/ProgramData/KMC/SOLID/SDK/2.0/solid-os/core/lib/armv7aLaiv/CT_\libsolid_cs.a(solid_loader_fixed.o)
 .debug_ranges  0x00000298        0x0 C:/ProgramData/KMC/SOLID/SDK/2.0/solid-os/core/lib/armv7aLaiv/CT_\libsolid_cs.a(solid_log.o)
 .debug_ranges  0x00000298        0x0 C:/ProgramData/KMC/SOLID/SDK/2.0/solid-os/core/lib/armv7aLaiv/CT_\libsolid_cs.a(solid_malloc.o)
 .debug_ranges  0x00000298      0x1a0 C:/ProgramData/KMC/SOLID/SDK/2.0/solid-os/core/lib/armv7aLaiv/CT_\libsolid_cs.a(solid_mem.o)
 .debug_ranges  0x00000438        0x0 C:/ProgramData/KMC/SOLID/SDK/2.0/solid-os/core/lib/armv7aLaiv/CT_\libsolid_cs.a(solid_mem_cache.o)
 .debug_ranges  0x00000438        0x0 C:/ProgramData/KMC/SOLID/SDK/2.0/solid-os/core/lib/armv7aLaiv/CT_\libsolid_cs.a(solid_mutex.o)
 .debug_ranges  0x00000438        0x0 C:/ProgramData/KMC/SOLID/SDK/2.0/solid-os/core/lib/armv7aLaiv/CT_\libsolid_cs.a(solid_rtc.o)
 .debug_ranges  0x00000438       0x68 C:/ProgramData/KMC/SOLID/SDK/2.0/solid-os/core/lib/armv7aLaiv/CT_\libsolid_cs.a(solid_timer.o)
 .debug_ranges  0x000004a0        0x0 C:/ProgramData/KMC/SOLID/SDK/2.0/solid-os/core/lib/armv7aLaiv/CT_\libsolid_cs.a(solid_vector.o)
 .debug_ranges  0x000004a0        0x0 C:/ProgramData/KMC/SOLID/SDK/2.0/solid-os/core/lib/armv7aLaiv/CT_\libsolid_cs.a(solid_vlink.o)
 .debug_ranges  0x000004a0        0x0 C:/ProgramData/KMC/SOLID/SDK/2.0/solid-os/core/lib/armv7aLaiv/CT_\libsolid_cs.a(tasan.o)
 .debug_ranges  0x000004a0        0x0 C:/ProgramData/KMC/SOLID/SDK/2.0/solid-os/core/lib/armv7aLaiv/CT_\libsolid_cs.a(tasan_interceptors.o)
 .debug_ranges  0x000004a0        0x0 C:/ProgramData/KMC/SOLID/SDK/2.0/solid-os/core/lib/armv7aLaiv/CT_\libsolid_cs.a(solid_mem_mmu.o)
 .debug_ranges  0x000004a0        0x0 C:/ProgramData/KMC/SOLID/SDK/2.0/solid-os/core/lib/armv7aLaiv/CT_\libsolid_cs.a(kmc_evttracker_core.o)
 .debug_ranges  0x000004a0        0x0 C:/ProgramData/KMC/SOLID/SDK/2.0/solid-os/core/lib/armv7aLaiv/CT_\libsolid_cs.a(dlmalloc.o)
 .debug_ranges  0x000004a0        0x0 C:/ProgramData/KMC/SOLID/SDK/2.0/solid-os/core/lib/armv7aLaiv/CT_\libsolid_cs.a(solid_asan.o)
 .debug_ranges  0x000004a0        0x0 C:/ProgramData/KMC/SOLID/SDK/2.0/solid-os/core/lib/armv7aLaiv/CT_\libsolid_cs.a(solid_cs_args.o)
 .debug_ranges  0x000004a0        0x0 C:/ProgramData/KMC/SOLID/SDK/2.0/solid-os/net/lwIP/lib/armv7aLaiv/CT_\libnet.a(sys_arch.o)
 .debug_ranges  0x000004a0        0x0 C:/ProgramData/KMC/SOLID/SDK/2.0/solid-os/net/lwIP/lib/armv7aLaiv/CT_\libnet.a(sockets.o)
 .debug_ranges  0x000004a0        0x0 C:/ProgramData/KMC/SOLID/SDK/2.0/solid-os/net/lwIP/lib/armv7aLaiv/CT_\libnet.a(tcpip.o)
 .debug_ranges  0x000004a0        0x0 C:/ProgramData/KMC/SOLID/SDK/2.0/solid-os/net/lwIP/lib/armv7aLaiv/CT_\libnet.a(def.o)
 .debug_ranges  0x000004a0        0x0 C:/ProgramData/KMC/SOLID/SDK/2.0/solid-os/net/lwIP/lib/armv7aLaiv/CT_\libnet.a(init.o)
 .debug_ranges  0x000004a0        0x0 C:/ProgramData/KMC/SOLID/SDK/2.0/solid-os/net/lwIP/lib/armv7aLaiv/CT_\libnet.a(ip4.o)
 .debug_ranges  0x000004a0        0x0 C:/ProgramData/KMC/SOLID/SDK/2.0/solid-os/net/lwIP/lib/armv7aLaiv/CT_\libnet.a(ip4_addr.o)
 .debug_ranges  0x000004a0        0x0 C:/ProgramData/KMC/SOLID/SDK/2.0/solid-os/net/lwIP/lib/armv7aLaiv/CT_\libnet.a(ip4_frag.o)
 .debug_ranges  0x000004a0        0x0 C:/ProgramData/KMC/SOLID/SDK/2.0/solid-os/net/lwIP/lib/armv7aLaiv/CT_\libnet.a(mem.o)
 .debug_ranges  0x000004a0        0x0 C:/ProgramData/KMC/SOLID/SDK/2.0/solid-os/net/lwIP/lib/armv7aLaiv/CT_\libnet.a(memp.o)
 .debug_ranges  0x000004a0        0x0 C:/ProgramData/KMC/SOLID/SDK/2.0/solid-os/net/lwIP/lib/armv7aLaiv/CT_\libnet.a(netif.o)
 .debug_ranges  0x000004a0        0x0 C:/ProgramData/KMC/SOLID/SDK/2.0/solid-os/net/lwIP/lib/armv7aLaiv/CT_\libnet.a(pbuf.o)
 .debug_ranges  0x000004a0        0x0 C:/ProgramData/KMC/SOLID/SDK/2.0/solid-os/net/lwIP/lib/armv7aLaiv/CT_\libnet.a(stats.o)
 .debug_ranges  0x000004a0        0x0 C:/ProgramData/KMC/SOLID/SDK/2.0/solid-os/net/lwIP/lib/armv7aLaiv/CT_\libnet.a(tcp.o)
 .debug_ranges  0x000004a0        0x0 C:/ProgramData/KMC/SOLID/SDK/2.0/solid-os/net/lwIP/lib/armv7aLaiv/CT_\libnet.a(tcp_in.o)
 .debug_ranges  0x000004a0        0x0 C:/ProgramData/KMC/SOLID/SDK/2.0/solid-os/net/lwIP/lib/armv7aLaiv/CT_\libnet.a(tcp_out.o)
 .debug_ranges  0x000004a0        0x0 C:/ProgramData/KMC/SOLID/SDK/2.0/solid-os/net/lwIP/lib/armv7aLaiv/CT_\libnet.a(timeouts.o)
 .debug_ranges  0x000004a0        0x0 C:/ProgramData/KMC/SOLID/SDK/2.0/solid-os/net/lwIP/lib/armv7aLaiv/CT_\libnet.a(udp.o)
 .debug_ranges  0x000004a0        0x0 C:/ProgramData/KMC/SOLID/SDK/2.0/solid-os/net/lwIP/lib/armv7aLaiv/CT_\libnet.a(ethernet.o)
 .debug_ranges  0x000004a0        0x0 C:/ProgramData/KMC/SOLID/SDK/2.0/solid-os/net/lwIP/lib/armv7aLaiv/CT_\libnet.a(solid_net_if.o)
 .debug_ranges  0x000004a0        0x0 C:/ProgramData/KMC/SOLID/SDK/2.0/solid-os/net/lwIP/lib/armv7aLaiv/CT_\libnet.a(solid_net_registerapi.o)
 .debug_ranges  0x000004a0        0x0 C:/ProgramData/KMC/SOLID/SDK/2.0/solid-os/net/lwIP/lib/armv7aLaiv/CT_\libnet.a(impl_net_stack.o)
 .debug_ranges  0x000004a0        0x0 C:/ProgramData/KMC/SOLID/SDK/2.0/solid-os/net/lwIP/lib/armv7aLaiv/CT_\libnet.a(impl_net_stack_errno.o)
 .debug_ranges  0x000004a0        0x0 C:/ProgramData/KMC/SOLID/SDK/2.0/solid-os/net/lwIP/lib/armv7aLaiv/CT_\libnet.a(ethernetif.o)
 .debug_ranges  0x000004a0        0x0 C:/ProgramData/KMC/SOLID/SDK/2.0/solid-os/net/lwIP/lib/armv7aLaiv/CT_\libnet.a(api_lib.o)
 .debug_ranges  0x000004a0       0x18 C:/ProgramData/KMC/SOLID/SDK/2.0/solid-os/net/lwIP/lib/armv7aLaiv/CT_\libnet.a(api_msg.o)
 .debug_ranges  0x000004b8        0x0 C:/ProgramData/KMC/SOLID/SDK/2.0/solid-os/net/lwIP/lib/armv7aLaiv/CT_\libnet.a(err.o)
 .debug_ranges  0x000004b8        0x0 C:/ProgramData/KMC/SOLID/SDK/2.0/solid-os/net/lwIP/lib/armv7aLaiv/CT_\libnet.a(netbuf.o)
 .debug_ranges  0x000004b8        0x0 C:/ProgramData/KMC/SOLID/SDK/2.0/solid-os/net/lwIP/lib/armv7aLaiv/CT_\libnet.a(netdb.o)
 .debug_ranges  0x000004b8       0x18 C:/ProgramData/KMC/SOLID/SDK/2.0/solid-os/net/lwIP/lib/armv7aLaiv/CT_\libnet.a(dns.o)
 .debug_ranges  0x000004d0        0x0 C:/ProgramData/KMC/SOLID/SDK/2.0/solid-os/net/lwIP/lib/armv7aLaiv/CT_\libnet.a(inet_chksum.o)
 .debug_ranges  0x000004d0        0x0 C:/ProgramData/KMC/SOLID/SDK/2.0/solid-os/net/lwIP/lib/armv7aLaiv/CT_\libnet.a(ip.o)
 .debug_ranges  0x000004d0        0x0 C:/ProgramData/KMC/SOLID/SDK/2.0/solid-os/net/lwIP/lib/armv7aLaiv/CT_\libnet.a(dhcp.o)
 .debug_ranges  0x000004d0        0x0 C:/ProgramData/KMC/SOLID/SDK/2.0/solid-os/net/lwIP/lib/armv7aLaiv/CT_\libnet.a(etharp.o)
 .debug_ranges  0x000004d0        0x0 C:/ProgramData/KMC/SOLID/SDK/2.0/solid-os/net/lwIP/lib/armv7aLaiv/CT_\libnet.a(icmp.o)
 .debug_ranges  0x000004d0        0x0 C:/ProgramData/KMC/SOLID/SDK/2.0/solid-os/rtos/toppers_asp3/lib/armv7aLaiv/CT__\libkernel.a(dataqueue.o)
 .debug_ranges  0x000004d0        0x0 C:/ProgramData/KMC/SOLID/SDK/2.0/solid-os/rtos/toppers_asp3/lib/armv7aLaiv/CT__\libkernel.a(interrupt.o)
 .debug_ranges  0x000004d0        0x0 C:/ProgramData/KMC/SOLID/SDK/2.0/solid-os/rtos/toppers_asp3/lib/armv7aLaiv/CT__\libkernel.a(vasyslog.o)
 .debug_ranges  0x000004d0        0x0 C:/ProgramData/KMC/SOLID/SDK/2.0/solid-os/rtos/toppers_asp3/lib/armv7aLaiv/CT__\libkernel.a(semaphore.o)
 .debug_ranges  0x000004d0        0x0 C:/ProgramData/KMC/SOLID/SDK/2.0/solid-os/rtos/toppers_asp3/lib/armv7aLaiv/CT__\libkernel.a(startup.o)
 .debug_ranges  0x000004d0        0x0 C:/ProgramData/KMC/SOLID/SDK/2.0/solid-os/rtos/toppers_asp3/lib/armv7aLaiv/CT__\libkernel.a(sys_manage.o)
 .debug_ranges  0x000004d0        0x0 C:/ProgramData/KMC/SOLID/SDK/2.0/solid-os/rtos/toppers_asp3/lib/armv7aLaiv/CT__\libkernel.a(task.o)
 .debug_ranges  0x000004d0        0x0 C:/ProgramData/KMC/SOLID/SDK/2.0/solid-os/rtos/toppers_asp3/lib/armv7aLaiv/CT__\libkernel.a(taskhook.o)
 .debug_ranges  0x000004d0        0x0 C:/ProgramData/KMC/SOLID/SDK/2.0/solid-os/rtos/toppers_asp3/lib/armv7aLaiv/CT__\libkernel.a(task_manage.o)
 .debug_ranges  0x000004d0        0x0 C:/ProgramData/KMC/SOLID/SDK/2.0/solid-os/rtos/toppers_asp3/lib/armv7aLaiv/CT__\libkernel.a(time_event.o)
 .debug_ranges  0x000004d0        0x0 C:/ProgramData/KMC/SOLID/SDK/2.0/solid-os/rtos/toppers_asp3/lib/armv7aLaiv/CT__\libkernel.a(wait.o)
 .debug_ranges  0x000004d0        0x0 C:/ProgramData/KMC/SOLID/SDK/2.0/solid-os/rtos/toppers_asp3/lib/armv7aLaiv/CT__\libkernel.a(solid_rtos_registerapi.o)
 .debug_ranges  0x000004d0        0x0 C:/ProgramData/KMC/SOLID/SDK/2.0/solid-os/rtos/toppers_asp3/lib/armv7aLaiv/CT__\libkernel.a(target_fput_log.o)
 .debug_ranges  0x000004d0        0x0 C:/ProgramData/KMC/SOLID/SDK/2.0/solid-os/rtos/toppers_asp3/lib/armv7aLaiv/CT__\libkernel.a(target_intc_impl.o)
 .debug_ranges  0x000004d0        0x0 C:/ProgramData/KMC/SOLID/SDK/2.0/solid-os/rtos/toppers_asp3/lib/armv7aLaiv/CT__\libkernel.a(target_timer_impl.o)
 .debug_ranges  0x000004d0        0x0 C:/ProgramData/KMC/SOLID/SDK/2.0/solid-os/rtos/toppers_asp3/lib/armv7aLaiv/CT__\libkernel.a(kmc_evttracker_rtos.o)
 .debug_ranges  0x000004d0        0x0 C:/ProgramData/KMC/SOLID/SDK/2.0/solid-os/rtos/toppers_asp3/lib/armv7aLaiv/CT__\libkernel.a(rtos_prof.o)
 .debug_ranges  0x000004d0        0x0 C:/ProgramData/KMC/SOLID/SDK/2.0/solid-os/rtos/toppers_asp3/lib/armv7aLaiv/CT__\libkernel.a(kernel_cfg_intl.o)
 .debug_ranges  0x000004d0        0x0 C:/ProgramData/KMC/SOLID/SDK/2.0/solid-os/rtos/toppers_asp3/lib/armv7aLaiv/CT__\libkernel.a(alarm.o)
 .debug_ranges  0x000004d0        0x0 C:/ProgramData/KMC/SOLID/SDK/2.0/solid-os/rtos/toppers_asp3/lib/armv7aLaiv/CT__\libkernel.a(core_kernel_impl.o)
 .debug_ranges  0x000004d0        0x0 C:/ProgramData/KMC/SOLID/SDK/2.0/solid-os/rtos/toppers_asp3/lib/armv7aLaiv/CT__\libkernel.a(cyclic.o)
 .debug_ranges  0x000004d0        0x0 C:/ProgramData/KMC/SOLID/SDK/2.0/solid-os/rtos/toppers_asp3/lib/armv7aLaiv/CT__\libkernel.a(eventflag.o)
 .debug_ranges  0x000004d0        0x0 C:/ProgramData/KMC/SOLID/SDK/2.0/solid-os/rtos/toppers_asp3/lib/armv7aLaiv/CT__\libkernel.a(exception.o)
 .debug_ranges  0x000004d0        0x0 C:/ProgramData/KMC/SOLID/SDK/2.0/solid-os/rtos/toppers_asp3/lib/armv7aLaiv/CT__\libkernel.a(mempfix.o)
 .debug_ranges  0x000004d0        0x0 C:/ProgramData/KMC/SOLID/SDK/2.0/solid-os/rtos/toppers_asp3/lib/armv7aLaiv/CT__\libkernel.a(tSysLog.o)
 .debug_ranges  0x000004d0        0x0 C:/ProgramData/KMC/SOLID/SDK/2.0/solid-os/rtos/toppers_asp3/lib/armv7aLaiv/CT__\libkernel.a(mutex.o)
 .debug_ranges  0x000004d0        0x0 C:/ProgramData/KMC/SOLID/SDK/2.0/solid-os/rtos/toppers_asp3/lib/armv7aLaiv/CT__\libkernel.a(pridataq.o)
 .debug_ranges  0x000004d0        0x0 C:/ProgramData/KMC/SOLID/SDK/2.0/solid-os/rtos/toppers_asp3/lib/armv7aLaiv/CT__\libkernel.a(task_refer.o)
 .debug_ranges  0x000004d0        0x0 C:/ProgramData/KMC/SOLID/SDK/2.0/solid-os/rtos/toppers_asp3/lib/armv7aLaiv/CT__\libkernel.a(task_sync.o)
 .debug_ranges  0x000004d0        0x0 C:/ProgramData/KMC/SOLID/SDK/2.0/solid-os/rtos/toppers_asp3/lib/armv7aLaiv/CT__\libkernel.a(task_term.o)
 .debug_ranges  0x000004d0        0x0 C:/ProgramData/KMC/SOLID/SDK/2.0/solid-os/rtos/toppers_asp3/lib/armv7aLaiv/CT__\libkernel.a(time_manage.o)
 .debug_ranges  0x000004d0        0x0 C:/ProgramData/KMC/SOLID/SDK/2.0/solid-os/rtos/toppers_asp3/lib/armv7aLaiv/CT__\libkernel.a(log_output.o)
 .debug_ranges  0x000004d0        0x0 C:/Users/admin/Documents/SOLID-IDE/Projects/lwip_server/Debug_tasan/exeClang_SOLID/\libbsp.a(impl_cs_event.o)
 .debug_ranges  0x000004d0        0x0 C:/Users/admin/Documents/SOLID-IDE/Projects/lwip_server/Debug_tasan/exeClang_SOLID/\libbsp.a(impl_dmac.o)
 .debug_ranges  0x000004d0        0x0 C:/Users/admin/Documents/SOLID-IDE/Projects/lwip_server/Debug_tasan/exeClang_SOLID/\libbsp.a(impl_iores.o)
 .debug_ranges  0x000004d0        0x0 C:/Users/admin/Documents/SOLID-IDE/Projects/lwip_server/Debug_tasan/exeClang_SOLID/\libbsp.a(impl_log.o)
 .debug_ranges  0x000004d0        0x0 C:/Users/admin/Documents/SOLID-IDE/Projects/lwip_server/Debug_tasan/exeClang_SOLID/\libbsp.a(impl_net_dev_ether.o)
 .debug_ranges  0x000004d0        0x0 C:/Users/admin/Documents/SOLID-IDE/Projects/lwip_server/Debug_tasan/exeClang_SOLID/\libbsp.a(impl_net_dev_get_macaddr.o)
 .debug_ranges  0x000004d0        0x0 C:/Users/admin/Documents/SOLID-IDE/Projects/lwip_server/Debug_tasan/exeClang_SOLID/\libbsp.a(impl_net_dev_getconfig.o)
 .debug_ranges  0x000004d0        0x0 C:/Users/admin/Documents/SOLID-IDE/Projects/lwip_server/Debug_tasan/exeClang_SOLID/\libbsp.a(impl_rtc.o)
 .debug_ranges  0x000004d0        0x0 C:/Users/admin/Documents/SOLID-IDE/Projects/lwip_server/Debug_tasan/exeClang_SOLID/\libbsp.a(impl_timer.o)
 .debug_ranges  0x000004d0        0x0 C:/Users/admin/Documents/SOLID-IDE/Projects/lwip_server/Debug_tasan/exeClang_SOLID/\libbsp.a(rtc.o)
 .debug_ranges  0x000004d0        0x0 C:/Users/admin/Documents/SOLID-IDE/Projects/lwip_server/Debug_tasan/exeClang_SOLID/\libbsp.a(rtc_userdef.o)
 .debug_ranges  0x000004d0        0x0 C:/Users/admin/Documents/SOLID-IDE/Projects/lwip_server/Debug_tasan/exeClang_SOLID/\libbsp.a(bsp_globals.o)
 .debug_ranges  0x000004d0        0x0 C:/Users/admin/Documents/SOLID-IDE/Projects/lwip_server/Debug_tasan/exeClang_SOLID/\libbsp.a(rza_io_regrw.o)
 .debug_ranges  0x000004d0       0x90 C:/GCC4/ARM/s002/lib/armv7aLaiv\libstdc++.a(class_type_info.o)
 .debug_ranges  0x00000560       0x18 C:/GCC4/ARM/s002/lib/armv7aLaiv\libstdc++.a(new_handler.o)
 .debug_ranges  0x00000578       0x10 C:/GCC4/ARM/s002/lib/armv7aLaiv\libstdc++.a(del_ops.o)
 .debug_ranges  0x00000588       0x90 C:/GCC4/ARM/s002/lib/armv7aLaiv\libstdc++.a(si_class_type_info.o)
 .debug_ranges  0x00000618       0x10 C:/GCC4/ARM/s002/lib/armv7aLaiv\libstdc++.a(del_op.o)
 .debug_ranges  0x00000628       0x38 C:/GCC4/ARM/s002/lib/armv7aLaiv\libstdc++.a(tinfo.o)
 .debug_ranges  0x00000660       0x10 C:/GCC4/ARM/s002/lib/armv7aLaiv/libgcc.a(_udivmoddi4.o)
 .debug_ranges  0x00000670      0x200 C:/GCC4/ARM/s002/lib/armv7aLaiv/libgcc.a(unwind-arm.o)
 .debug_ranges  0x00000870       0x48 C:/GCC4/ARM/s002/lib/armv7aLaiv/libgcc.a(pr-support.o)
 .debug_ranges  0x000008b8       0x70 C:/GCC4/ARM/s002/lib/armv7aLaiv/libc.a(_m_init.o)
 .debug_ranges  0x00000928       0x18 C:/GCC4/ARM/s002/lib/armv7aLaiv/libc.a(abort.o)
 .debug_ranges  0x00000940       0x18 C:/GCC4/ARM/s002/lib/armv7aLaiv/libc.a(errno.o)
 .debug_ranges  0x00000958       0x10 C:/GCC4/ARM/s002/lib/armv7aLaiv/libc.a(atoi.o)
 .debug_ranges  0x00000968       0x18 C:/GCC4/ARM/s002/lib/armv7aLaiv/libc.a(rand.o)
 .debug_ranges  0x00000980       0x20 C:/GCC4/ARM/s002/lib/armv7aLaiv/libc.a(strtol.o)
 .debug_ranges  0x000009a0       0x20 C:/GCC4/ARM/s002/lib/armv7aLaiv/libc.a(strtoul.o)
 .debug_ranges  0x000009c0       0x68 C:/GCC4/ARM/s002/lib/armv7aLaiv/libc.a(atexit.o)
 .debug_ranges  0x00000a28       0xf8 C:/GCC4/ARM/s002/lib/armv7aLaiv/libc.a(isctype.o)
 .debug_ranges  0x00000b20       0x18 C:/GCC4/ARM/s002/lib/armv7aLaiv/libc.a(thread-stub-init.o)
 .debug_ranges  0x00000b38       0xa0 C:/GCC4/ARM/s002/lib/armv7aLaiv/libc.a(thread-stub.o)
 .debug_ranges  0x00000bd8       0x10 C:/GCC4/ARM/s002/lib/armv7aLaiv/libc.a(ssp_init.o)
 .debug_ranges  0x00000be8       0x48 C:/GCC4/ARM/s002/lib/armv7aLaiv/libc.a(findfp.o)
 .debug_ranges  0x00000c30       0x18 C:/GCC4/ARM/s002/lib/armv7aLaiv/libc.a(fprintf.o)
 .debug_ranges  0x00000c48       0x28 C:/GCC4/ARM/s002/lib/armv7aLaiv/libc.a(stdio.o)
 .debug_ranges  0x00000c70      0x640 C:/GCC4/ARM/s002/lib/armv7aLaiv/libc.a(vfprintf.o)
 .debug_ranges  0x000012b0       0x48 C:/GCC4/ARM/s002/lib/armv7aLaiv/libc.a(vsnprintf.o)
 .debug_ranges  0x000012f8       0x10 C:/GCC4/ARM/s002/lib/armv7aLaiv/libc.a(wsetup.o)
 .debug_ranges  0x00001308       0x18 C:/GCC4/ARM/s002/lib/armv7aLaiv/libc.a(makebuf.o)
 .debug_ranges  0x00001320       0x20 C:/GCC4/ARM/s002/lib/armv7aLaiv/libc.a(close.o)
 .debug_ranges  0x00001340       0x10 C:/GCC4/ARM/s002/lib/armv7aLaiv/libc.a(fstat.o)
 .debug_ranges  0x00001350       0x10 C:/GCC4/ARM/s002/lib/armv7aLaiv/libc.a(lseek.o)
 .debug_ranges  0x00001360       0x10 C:/GCC4/ARM/s002/lib/armv7aLaiv/libc.a(open.o)
 .debug_ranges  0x00001370      0x1c8 C:/GCC4/ARM/s002/lib/armv7aLaiv/libc.a(osemu.o)
 .debug_ranges  0x00001538       0x20 C:/GCC4/ARM/s002/lib/armv7aLaiv/libc.a(perror.o)
 .debug_ranges  0x00001558       0x30 C:/GCC4/ARM/s002/lib/armv7aLaiv/libc.a(read.o)
 .debug_ranges  0x00001588       0x10 C:/GCC4/ARM/s002/lib/armv7aLaiv/libc.a(u2dname.o)
 .debug_ranges  0x00001598       0x18 C:/GCC4/ARM/s002/lib/armv7aLaiv/libc.a(utime.o)
 .debug_ranges  0x000015b0       0x30 C:/GCC4/ARM/s002/lib/armv7aLaiv/libc.a(write.o)
 .debug_ranges  0x000015e0       0x78 C:/GCC4/ARM/s002/lib/armv7aLaiv/libc.a(_env.o)
 .debug_ranges  0x00001658       0x20 C:/GCC4/ARM/s002/lib/armv7aLaiv/libc.a(exit.o)
 .debug_ranges  0x00001678       0x18 C:/GCC4/ARM/s002/lib/armv7aLaiv/libc.a(signal.o)
 .debug_ranges  0x00001690       0xb8 C:/GCC4/ARM/s002/lib/armv7aLaiv/libc.a(localtime.o)
 .debug_ranges  0x00001748       0x10 C:/GCC4/ARM/s002/lib/armv7aLaiv/libc.a(lldiv.o)
 .debug_ranges  0x00001758       0x28 C:/GCC4/ARM/s002/lib/armv7aLaiv/libc.a(memchr.o)
 .debug_ranges  0x00001780       0x10 C:/GCC4/ARM/s002/lib/armv7aLaiv/libc.a(strcspn.o)
 .debug_ranges  0x00001790       0x28 C:/GCC4/ARM/s002/lib/armv7aLaiv/libc.a(strncasecmp.o)
 .debug_ranges  0x000017b8       0x10 C:/GCC4/ARM/s002/lib/armv7aLaiv/libc.a(strdup.o)
 .debug_ranges  0x000017c8       0x28 C:/GCC4/ARM/s002/lib/armv7aLaiv/libc.a(citrus_ctype.o)
 .debug_ranges  0x000017f0      0x130 C:/GCC4/ARM/s002/lib/armv7aLaiv/libc.a(citrus_none.o)
 .debug_ranges  0x00001920      0x3e0 C:/GCC4/ARM/s002/lib/armv7aLaiv/libc.a(citrus_mskanji.o)
 .debug_ranges  0x00001d00      0x440 C:/GCC4/ARM/s002/lib/armv7aLaiv/libc.a(citrus_utf8.o)
 .debug_ranges  0x00002140       0x18 C:/GCC4/ARM/s002/lib/armv7aLaiv/libc.a(localeconv.o)
 .debug_ranges  0x00002158      0x300 C:/GCC4/ARM/s002/lib/armv7aLaiv/libc.a(multibyte_amd1.o)
 .debug_ranges  0x00002458       0x10 C:/GCC4/ARM/s002/lib/armv7aLaiv/libc.a(dtoa.o)
 .debug_ranges  0x00002468       0x10 C:/GCC4/ARM/s002/lib/armv7aLaiv/libc.a(ldtoa.o)
 .debug_ranges  0x00002478       0x18 C:/GCC4/ARM/s002/lib/armv7aLaiv/libc.a(hdtoa.o)
 .debug_ranges  0x00002490       0x28 C:/GCC4/ARM/s002/lib/armv7aLaiv/libc.a(dmisc.o)
 .debug_ranges  0x000024b8       0xb0 C:/GCC4/ARM/s002/lib/armv7aLaiv/libc.a(misc.o)
 .debug_ranges  0x00002568      0xc90 C:/GCC4/ARM/s002/lib/armv7aLaiv/libc.a(softfloat.o)
 .debug_ranges  0x000031f8       0x10 C:/GCC4/ARM/s002/lib/armv7aLaiv/libc.a(__aeabi_dcmpeq.o)
 .debug_ranges  0x00003208       0x10 C:/GCC4/ARM/s002/lib/armv7aLaiv/libc.a(__aeabi_dcmpge.o)
 .debug_ranges  0x00003218       0x10 C:/GCC4/ARM/s002/lib/armv7aLaiv/libc.a(__aeabi_dcmpgt.o)
 .debug_ranges  0x00003228       0x10 C:/GCC4/ARM/s002/lib/armv7aLaiv/libc.a(__aeabi_dcmplt.o)
 .debug_ranges  0x00003238      0x178 C:/GCC4/ARM/s002/lib/armv7aLaiv/libc.a(rb.o)
 .debug_ranges  0x000033b0       0x30 C:/GCC4/ARM/s002/lib/armv7aLaiv/libc.a(fflush.o)
 .debug_ranges  0x000033e0       0x58 C:/GCC4/ARM/s002/lib/armv7aLaiv/libc.a(flockfile.o)
 .debug_ranges  0x00003438       0x10 C:/GCC4/ARM/s002/lib/armv7aLaiv/libc.a(fvwrite.o)
 .debug_ranges  0x00003448       0x10 C:/GCC4/ARM/s002/lib/armv7aLaiv/libc.a(fwalk.o)
 .debug_ranges  0x00003458       0x10 C:/GCC4/ARM/s002/lib/armv7aLaiv/libc.a(creat.o)
 .debug_ranges  0x00003468       0x10 C:/GCC4/ARM/s002/lib/armv7aLaiv/libc.a(fpclassifyd_ieee754.o)
 .debug_ranges  0x00003478       0x10 C:/GCC4/ARM/s002/lib/armv7aLaiv/libc.a(strcasecmp.o)
