Archive member included to satisfy reference by file (symbol)

C:/ProgramData/KMC/SOLID/SDK/2.0/solid-os/core/lib/armv7aLaiv/GR_\libsolid_cs.a(solid_cs_asm.o)
                              (solid_start)
C:/ProgramData/KMC/SOLID/SDK/2.0/solid-os/core/lib/armv7aLaiv/GR_\libsolid_cs.a(solid_cs_main.o)
                              C:/ProgramData/KMC/SOLID/SDK/2.0/solid-os/core/lib/armv7aLaiv/GR_\libsolid_cs.a(solid_cs_asm.o) (solid_cs_main)
C:/ProgramData/KMC/SOLID/SDK/2.0/solid-os/core/lib/armv7aLaiv/GR_\libsolid_cs.a(kmc_trace_mem_dummy.o)
                              C:/ProgramData/KMC/SOLID/SDK/2.0/solid-os/core/lib/armv7aLaiv/GR_\libsolid_cs.a(solid_cs_main.o) (SOLID_kmc_trace_init)
C:/ProgramData/KMC/SOLID/SDK/2.0/solid-os/core/lib/armv7aLaiv/GR_\libsolid_cs.a(solid_cs_event.o)
                              C:/ProgramData/KMC/SOLID/SDK/2.0/solid-os/core/lib/armv7aLaiv/GR_\libsolid_cs.a(solid_cs_main.o) (SOLID_CS_EventNotify)
C:/ProgramData/KMC/SOLID/SDK/2.0/solid-os/core/lib/armv7aLaiv/GR_\libsolid_cs.a(solid_debugger.o)
                              C:/ProgramData/KMC/SOLID/SDK/2.0/solid-os/core/lib/armv7aLaiv/GR_\libsolid_cs.a(solid_cs_event.o) (SOLID_DBG_EventNotify)
C:/ProgramData/KMC/SOLID/SDK/2.0/solid-os/core/lib/armv7aLaiv/GR_\libsolid_cs.a(solid_dmac.o)
                              C:/ProgramData/KMC/SOLID/SDK/2.0/solid-os/core/lib/armv7aLaiv/GR_\libsolid_cs.a(solid_cs_main.o) (SOLID_DMAC_Init)
C:/ProgramData/KMC/SOLID/SDK/2.0/solid-os/core/lib/armv7aLaiv/GR_\libsolid_cs.a(solid_exception.o)
                              C:/ProgramData/KMC/SOLID/SDK/2.0/solid-os/core/lib/armv7aLaiv/GR_\libsolid_cs.a(solid_cs_main.o) (SOLID_Exception_Init)
C:/ProgramData/KMC/SOLID/SDK/2.0/solid-os/core/lib/armv7aLaiv/GR_\libsolid_cs.a(solid_fs_base.o)
                              C:/ProgramData/KMC/SOLID/SDK/2.0/solid-os/core/lib/armv7aLaiv/GR_\libsolid_cs.a(solid_cs_main.o) (SOLID_FS_Init)
C:/ProgramData/KMC/SOLID/SDK/2.0/solid-os/core/lib/armv7aLaiv/GR_\libsolid_cs.a(solid_fs_mem.o)
                              C:/ProgramData/KMC/SOLID/SDK/2.0/solid-os/core/lib/armv7aLaiv/GR_\libsolid_cs.a(solid_cs_main.o) (SOLID_FS_MEM_Init)
C:/ProgramData/KMC/SOLID/SDK/2.0/solid-os/core/lib/armv7aLaiv/GR_\libsolid_cs.a(solid_fs_vlink.o)
                              C:/ProgramData/KMC/SOLID/SDK/2.0/solid-os/core/lib/armv7aLaiv/GR_\libsolid_cs.a(solid_cs_main.o) (SOLID_FS_VLink_Init)
C:/ProgramData/KMC/SOLID/SDK/2.0/solid-os/core/lib/armv7aLaiv/GR_\libsolid_cs.a(solid_intc.o)
                              C:/ProgramData/KMC/SOLID/SDK/2.0/solid-os/core/lib/armv7aLaiv/GR_\libsolid_cs.a(solid_cs_main.o) (SOLID_INTC_Init)
C:/ProgramData/KMC/SOLID/SDK/2.0/solid-os/core/lib/armv7aLaiv/GR_\libsolid_cs.a(solid_iores.o)
                              C:/ProgramData/KMC/SOLID/SDK/2.0/solid-os/core/lib/armv7aLaiv/GR_\libsolid_cs.a(solid_cs_main.o) (SOLID_IORES_Init)
C:/ProgramData/KMC/SOLID/SDK/2.0/solid-os/core/lib/armv7aLaiv/GR_\libsolid_cs.a(solid_loader.o)
                              C:/ProgramData/KMC/SOLID/SDK/2.0/solid-os/core/lib/armv7aLaiv/GR_\libsolid_cs.a(solid_cs_main.o) (SOLID_LDR_Init)
C:/ProgramData/KMC/SOLID/SDK/2.0/solid-os/core/lib/armv7aLaiv/GR_\libsolid_cs.a(solid_loader_fixed.o)
                              C:/ProgramData/KMC/SOLID/SDK/2.0/solid-os/core/lib/armv7aLaiv/GR_\libsolid_cs.a(solid_loader.o) (SOLID_LDR_FixedSymbol_Init)
C:/ProgramData/KMC/SOLID/SDK/2.0/solid-os/core/lib/armv7aLaiv/GR_\libsolid_cs.a(solid_log.o)
                              C:/ProgramData/KMC/SOLID/SDK/2.0/solid-os/core/lib/armv7aLaiv/GR_\libsolid_cs.a(solid_cs_main.o) (SOLID_LOG_Init)
C:/ProgramData/KMC/SOLID/SDK/2.0/solid-os/core/lib/armv7aLaiv/GR_\libsolid_cs.a(solid_malloc.o)
                              C:/ProgramData/KMC/SOLID/SDK/2.0/solid-os/core/lib/armv7aLaiv/GR_\libsolid_cs.a(solid_cs_main.o) (SOLID_init_memory_pool)
C:/ProgramData/KMC/SOLID/SDK/2.0/solid-os/core/lib/armv7aLaiv/GR_\libsolid_cs.a(solid_mem.o)
                              C:/ProgramData/KMC/SOLID/SDK/2.0/solid-os/core/lib/armv7aLaiv/GR_\libsolid_cs.a(solid_loader.o) (_ZN3kmg5solid7Align4KERmRj)
C:/ProgramData/KMC/SOLID/SDK/2.0/solid-os/core/lib/armv7aLaiv/GR_\libsolid_cs.a(solid_mem_cache.o)
                              C:/ProgramData/KMC/SOLID/SDK/2.0/solid-os/core/lib/armv7aLaiv/GR_\libsolid_cs.a(solid_mem.o) (_ZN3kmg5solid5CACHE4InitEv)
C:/ProgramData/KMC/SOLID/SDK/2.0/solid-os/core/lib/armv7aLaiv/GR_\libsolid_cs.a(solid_mutex.o)
                              C:/ProgramData/KMC/SOLID/SDK/2.0/solid-os/core/lib/armv7aLaiv/GR_\libsolid_cs.a(solid_malloc.o) (SOLID_InitializeCriticalSection)
C:/ProgramData/KMC/SOLID/SDK/2.0/solid-os/core/lib/armv7aLaiv/GR_\libsolid_cs.a(solid_rtc.o)
                              C:/ProgramData/KMC/SOLID/SDK/2.0/solid-os/core/lib/armv7aLaiv/GR_\libsolid_cs.a(solid_loader_fixed.o) (SOLID_RTC_ReadTime)
C:/ProgramData/KMC/SOLID/SDK/2.0/solid-os/core/lib/armv7aLaiv/GR_\libsolid_cs.a(solid_timer.o)
                              C:/ProgramData/KMC/SOLID/SDK/2.0/solid-os/core/lib/armv7aLaiv/GR_\libsolid_cs.a(solid_cs_main.o) (SOLID_TIMER_GetCurrentTick)
C:/ProgramData/KMC/SOLID/SDK/2.0/solid-os/core/lib/armv7aLaiv/GR_\libsolid_cs.a(solid_vector.o)
                              C:/ProgramData/KMC/SOLID/SDK/2.0/solid-os/core/lib/armv7aLaiv/GR_\libsolid_cs.a(solid_cs_main.o) (SOLID_VECTOR_Init)
C:/ProgramData/KMC/SOLID/SDK/2.0/solid-os/core/lib/armv7aLaiv/GR_\libsolid_cs.a(solid_vlink.o)
                              C:/ProgramData/KMC/SOLID/SDK/2.0/solid-os/core/lib/armv7aLaiv/GR_\libsolid_cs.a(solid_fs_vlink.o) (SOLID_VLINK_IsAvailable)
C:/ProgramData/KMC/SOLID/SDK/2.0/solid-os/core/lib/armv7aLaiv/GR_\libsolid_cs.a(solid_mem_mmu.o)
                              C:/ProgramData/KMC/SOLID/SDK/2.0/solid-os/core/lib/armv7aLaiv/GR_\libsolid_cs.a(solid_mem.o) (_ZN3kmg5solid3MMU3MapEmjmb)
C:/ProgramData/KMC/SOLID/SDK/2.0/solid-os/core/lib/armv7aLaiv/GR_\libsolid_cs.a(kmc_evttracker_core.o)
                              C:/ProgramData/KMC/SOLID/SDK/2.0/solid-os/core/lib/armv7aLaiv/GR_\libsolid_cs.a(solid_cs_main.o) (__kmc_toppers_event_log_init)
C:/ProgramData/KMC/SOLID/SDK/2.0/solid-os/core/lib/armv7aLaiv/GR_\libsolid_cs.a(dlmalloc.o)
                              C:/ProgramData/KMC/SOLID/SDK/2.0/solid-os/core/lib/armv7aLaiv/GR_\libsolid_cs.a(solid_malloc.o) (create_mspace_with_base)
C:/ProgramData/KMC/SOLID/SDK/2.0/solid-os/core/lib/armv7aLaiv/GR_\libsolid_cs.a(solid_asan.o)
                              C:/ProgramData/KMC/SOLID/SDK/2.0/solid-os/core/lib/armv7aLaiv/GR_\libsolid_cs.a(solid_loader_fixed.o) (SOLID_ASAN_Enabled)
C:/ProgramData/KMC/SOLID/SDK/2.0/solid-os/core/lib/armv7aLaiv/GR_\libsolid_cs.a(solid_cs_args.o)
                              C:/ProgramData/KMC/SOLID/SDK/2.0/solid-os/core/lib/armv7aLaiv/GR_\libsolid_cs.a(solid_mem_mmu.o) (solid_args)
C:/ProgramData/KMC/SOLID/SDK/2.0/solid-os/core/lib/armv7aLaiv/GR_\libsolid_cs.a(tasan.o)
                              C:/ProgramData/KMC/SOLID/SDK/2.0/solid-os/core/lib/armv7aLaiv/GR_\libsolid_cs.a(solid_asan.o) (asan_enabled)
C:/Users/admin/Documents/SOLID-IDE/Projects/cpptest/Release/exeGCC_SOLID/\libnet.a(sys_arch.o)
                              C:/Users/admin/Documents/SOLID-IDE/Projects/cpptest/Release/exeGCC_SOLID/cpptest/cpptest_all.o (lwip_thread_task)
C:/Users/admin/Documents/SOLID-IDE/Projects/cpptest/Release/exeGCC_SOLID/\libnet.a(tcpip.o)
                              C:/Users/admin/Documents/SOLID-IDE/Projects/cpptest/Release/exeGCC_SOLID/\libnet.a(sys_arch.o) (tcpip_init)
C:/Users/admin/Documents/SOLID-IDE/Projects/cpptest/Release/exeGCC_SOLID/\libnet.a(init.o)
                              C:/Users/admin/Documents/SOLID-IDE/Projects/cpptest/Release/exeGCC_SOLID/\libnet.a(tcpip.o) (lwip_init)
C:/Users/admin/Documents/SOLID-IDE/Projects/cpptest/Release/exeGCC_SOLID/\libnet.a(ip4.o)
                              C:/Users/admin/Documents/SOLID-IDE/Projects/cpptest/Release/exeGCC_SOLID/\libnet.a(tcpip.o) (ip4_input)
C:/Users/admin/Documents/SOLID-IDE/Projects/cpptest/Release/exeGCC_SOLID/\libnet.a(ip4_addr.o)
                              C:/Users/admin/Documents/SOLID-IDE/Projects/cpptest/Release/exeGCC_SOLID/\libnet.a(ip4.o) (ip4_addr_isbroadcast_u32)
C:/Users/admin/Documents/SOLID-IDE/Projects/cpptest/Release/exeGCC_SOLID/\libnet.a(ip4_frag.o)
                              C:/Users/admin/Documents/SOLID-IDE/Projects/cpptest/Release/exeGCC_SOLID/\libnet.a(ip4.o) (ip4_reass)
C:/Users/admin/Documents/SOLID-IDE/Projects/cpptest/Release/exeGCC_SOLID/\libnet.a(mem.o)
                              C:/Users/admin/Documents/SOLID-IDE/Projects/cpptest/Release/exeGCC_SOLID/\libnet.a(init.o) (mem_init)
C:/Users/admin/Documents/SOLID-IDE/Projects/cpptest/Release/exeGCC_SOLID/\libnet.a(memp.o)
                              C:/Users/admin/Documents/SOLID-IDE/Projects/cpptest/Release/exeGCC_SOLID/\libnet.a(init.o) (memp_init)
C:/Users/admin/Documents/SOLID-IDE/Projects/cpptest/Release/exeGCC_SOLID/\libnet.a(netif.o)
                              C:/Users/admin/Documents/SOLID-IDE/Projects/cpptest/Release/exeGCC_SOLID/\libnet.a(init.o) (netif_init)
C:/Users/admin/Documents/SOLID-IDE/Projects/cpptest/Release/exeGCC_SOLID/\libnet.a(pbuf.o)
                              C:/Users/admin/Documents/SOLID-IDE/Projects/cpptest/Release/exeGCC_SOLID/\libnet.a(ip4_frag.o) (pbuf_alloced_custom)
C:/Users/admin/Documents/SOLID-IDE/Projects/cpptest/Release/exeGCC_SOLID/\libnet.a(stats.o)
                              C:/Users/admin/Documents/SOLID-IDE/Projects/cpptest/Release/exeGCC_SOLID/\libnet.a(init.o) (stats_init)
C:/Users/admin/Documents/SOLID-IDE/Projects/cpptest/Release/exeGCC_SOLID/\libnet.a(tcp.o)
                              C:/Users/admin/Documents/SOLID-IDE/Projects/cpptest/Release/exeGCC_SOLID/\libnet.a(init.o) (tcp_init)
C:/Users/admin/Documents/SOLID-IDE/Projects/cpptest/Release/exeGCC_SOLID/\libnet.a(tcp_in.o)
                              C:/Users/admin/Documents/SOLID-IDE/Projects/cpptest/Release/exeGCC_SOLID/\libnet.a(ip4.o) (tcp_input)
C:/Users/admin/Documents/SOLID-IDE/Projects/cpptest/Release/exeGCC_SOLID/\libnet.a(tcp_out.o)
                              C:/Users/admin/Documents/SOLID-IDE/Projects/cpptest/Release/exeGCC_SOLID/\libnet.a(tcp.o) (tcp_enqueue_flags)
C:/Users/admin/Documents/SOLID-IDE/Projects/cpptest/Release/exeGCC_SOLID/\libnet.a(timeouts.o)
                              C:/Users/admin/Documents/SOLID-IDE/Projects/cpptest/Release/exeGCC_SOLID/\libnet.a(tcp.o) (tcp_timer_needed)
C:/Users/admin/Documents/SOLID-IDE/Projects/cpptest/Release/exeGCC_SOLID/\libnet.a(udp.o)
                              C:/Users/admin/Documents/SOLID-IDE/Projects/cpptest/Release/exeGCC_SOLID/\libnet.a(init.o) (udp_init)
C:/Users/admin/Documents/SOLID-IDE/Projects/cpptest/Release/exeGCC_SOLID/\libnet.a(ethernet.o)
                              C:/Users/admin/Documents/SOLID-IDE/Projects/cpptest/Release/exeGCC_SOLID/\libnet.a(tcpip.o) (ethernet_input)
C:/Users/admin/Documents/SOLID-IDE/Projects/cpptest/Release/exeGCC_SOLID/\libnet.a(solid_net_if.o)
                              C:/Users/admin/Documents/SOLID-IDE/Projects/cpptest/Release/exeGCC_SOLID/cpptest/cpptest_all.o (SOLID_NET_start_network)
C:/Users/admin/Documents/SOLID-IDE/Projects/cpptest/Release/exeGCC_SOLID/\libnet.a(solid_net_registerapi.o)
                              C:/Users/admin/Documents/SOLID-IDE/Projects/cpptest/Release/exeGCC_SOLID/\libnet.a(solid_net_if.o) (SOLID_NET_RegisterAPIs)
C:/Users/admin/Documents/SOLID-IDE/Projects/cpptest/Release/exeGCC_SOLID/\libnet.a(impl_net_stack.o)
                              C:/Users/admin/Documents/SOLID-IDE/Projects/cpptest/Release/exeGCC_SOLID/\libnet.a(solid_net_if.o) (IMPL_NET_STACK_Init)
C:/Users/admin/Documents/SOLID-IDE/Projects/cpptest/Release/exeGCC_SOLID/\libnet.a(ethernetif.o)
                              C:/Users/admin/Documents/SOLID-IDE/Projects/cpptest/Release/exeGCC_SOLID/\libnet.a(impl_net_stack.o) (ethernetif_init)
C:/Users/admin/Documents/SOLID-IDE/Projects/cpptest/Release/exeGCC_SOLID/\libnet.a(api_lib.o)
                              C:/Users/admin/Documents/SOLID-IDE/Projects/cpptest/Release/exeGCC_SOLID/\libnet.a(solid_net_registerapi.o) (netconn_delete)
C:/Users/admin/Documents/SOLID-IDE/Projects/cpptest/Release/exeGCC_SOLID/\libnet.a(api_msg.o)
                              C:/Users/admin/Documents/SOLID-IDE/Projects/cpptest/Release/exeGCC_SOLID/\libnet.a(api_lib.o) (lwip_netconn_do_newconn)
C:/Users/admin/Documents/SOLID-IDE/Projects/cpptest/Release/exeGCC_SOLID/\libnet.a(netbuf.o)
                              C:/Users/admin/Documents/SOLID-IDE/Projects/cpptest/Release/exeGCC_SOLID/\libnet.a(solid_net_registerapi.o) (netbuf_new)
C:/Users/admin/Documents/SOLID-IDE/Projects/cpptest/Release/exeGCC_SOLID/\libnet.a(netdb.o)
                              C:/Users/admin/Documents/SOLID-IDE/Projects/cpptest/Release/exeGCC_SOLID/\libnet.a(solid_net_registerapi.o) (lwip_gethostbyname)
C:/Users/admin/Documents/SOLID-IDE/Projects/cpptest/Release/exeGCC_SOLID/\libnet.a(sockets.o)
                              C:/Users/admin/Documents/SOLID-IDE/Projects/cpptest/Release/exeGCC_SOLID/\libnet.a(solid_net_registerapi.o) (lwip_accept)
C:/Users/admin/Documents/SOLID-IDE/Projects/cpptest/Release/exeGCC_SOLID/\libnet.a(def.o)
                              C:/Users/admin/Documents/SOLID-IDE/Projects/cpptest/Release/exeGCC_SOLID/\libnet.a(ip4.o) (lwip_htons)
C:/Users/admin/Documents/SOLID-IDE/Projects/cpptest/Release/exeGCC_SOLID/\libnet.a(dns.o)
                              C:/Users/admin/Documents/SOLID-IDE/Projects/cpptest/Release/exeGCC_SOLID/\libnet.a(init.o) (dns_init)
C:/Users/admin/Documents/SOLID-IDE/Projects/cpptest/Release/exeGCC_SOLID/\libnet.a(inet_chksum.o)
                              C:/Users/admin/Documents/SOLID-IDE/Projects/cpptest/Release/exeGCC_SOLID/\libnet.a(tcp_in.o) (ip_chksum_pseudo)
C:/Users/admin/Documents/SOLID-IDE/Projects/cpptest/Release/exeGCC_SOLID/\libnet.a(ip.o)
                              C:/Users/admin/Documents/SOLID-IDE/Projects/cpptest/Release/exeGCC_SOLID/\libnet.a(ip4.o) (ip_data)
C:/Users/admin/Documents/SOLID-IDE/Projects/cpptest/Release/exeGCC_SOLID/\libnet.a(dhcp.o)
                              C:/Users/admin/Documents/SOLID-IDE/Projects/cpptest/Release/exeGCC_SOLID/\libnet.a(impl_net_stack.o) (dhcp_set_struct)
C:/Users/admin/Documents/SOLID-IDE/Projects/cpptest/Release/exeGCC_SOLID/\libnet.a(etharp.o)
                              C:/Users/admin/Documents/SOLID-IDE/Projects/cpptest/Release/exeGCC_SOLID/\libnet.a(timeouts.o) (etharp_tmr)
C:/Users/admin/Documents/SOLID-IDE/Projects/cpptest/Release/exeGCC_SOLID/\libnet.a(icmp.o)
                              C:/Users/admin/Documents/SOLID-IDE/Projects/cpptest/Release/exeGCC_SOLID/\libnet.a(ip4.o) (icmp_input)
C:/Users/admin/Documents/SOLID-IDE/Projects/cpptest/Release/exeGCC_SOLID/\libnet.a(impl_net_stack_errno.o)
                              C:/Users/admin/Documents/SOLID-IDE/Projects/cpptest/Release/exeGCC_SOLID/\libnet.a(sockets.o) (_net_sys_errno)
C:/Users/admin/Documents/SOLID-IDE/Projects/cpptest/Release/exeGCC_SOLID/\libnet.a(err.o)
                              C:/Users/admin/Documents/SOLID-IDE/Projects/cpptest/Release/exeGCC_SOLID/\libnet.a(sockets.o) (err_to_errno)
C:/ProgramData/KMC/SOLID/SDK/2.0/solid-os/rtos/toppers_asp3/lib/armv7aLaiv/GR__\libkernel.a(dataqueue.o)
                              C:/Users/admin/Documents/SOLID-IDE/Projects/cpptest/Release/exeGCC_SOLID/\libnet.a(sys_arch.o) (snd_dtq)
C:/ProgramData/KMC/SOLID/SDK/2.0/solid-os/rtos/toppers_asp3/lib/armv7aLaiv/GR__\libkernel.a(interrupt.o)
                              C:/Users/admin/Documents/SOLID-IDE/Projects/cpptest/Release/exeGCC_SOLID/\libnet.a(solid_net_if.o) (ena_int)
C:/ProgramData/KMC/SOLID/SDK/2.0/solid-os/rtos/toppers_asp3/lib/armv7aLaiv/GR__\libkernel.a(tSysLog.o)
                              C:/Users/admin/Documents/SOLID-IDE/Projects/cpptest/Release/exeGCC_SOLID/cpptest/cpptest_all.o (syslog_msk_log)
C:/ProgramData/KMC/SOLID/SDK/2.0/solid-os/rtos/toppers_asp3/lib/armv7aLaiv/GR__\libkernel.a(vasyslog.o)
                              C:/Users/admin/Documents/SOLID-IDE/Projects/cpptest/Release/exeGCC_SOLID/cpptest/cpptest_all.o (syslog)
C:/ProgramData/KMC/SOLID/SDK/2.0/solid-os/rtos/toppers_asp3/lib/armv7aLaiv/GR__\libkernel.a(semaphore.o)
                              C:/Users/admin/Documents/SOLID-IDE/Projects/cpptest/Release/exeGCC_SOLID/\libnet.a(sys_arch.o) (sig_sem)
C:/ProgramData/KMC/SOLID/SDK/2.0/solid-os/rtos/toppers_asp3/lib/armv7aLaiv/GR__\libkernel.a(startup.o)
                              C:/ProgramData/KMC/SOLID/SDK/2.0/solid-os/core/lib/armv7aLaiv/GR_\libsolid_cs.a(solid_cs_main.o) (sta_ker)
C:/ProgramData/KMC/SOLID/SDK/2.0/solid-os/rtos/toppers_asp3/lib/armv7aLaiv/GR__\libkernel.a(sys_manage.o)
                              C:/Users/admin/Documents/SOLID-IDE/Projects/cpptest/Release/exeGCC_SOLID/\libnet.a(sys_arch.o) (get_tid)
C:/ProgramData/KMC/SOLID/SDK/2.0/solid-os/rtos/toppers_asp3/lib/armv7aLaiv/GR__\libkernel.a(task.o)
                              C:/ProgramData/KMC/SOLID/SDK/2.0/solid-os/rtos/toppers_asp3/lib/armv7aLaiv/GR__\libkernel.a(interrupt.o) (_kernel_search_schedtsk)
C:/ProgramData/KMC/SOLID/SDK/2.0/solid-os/rtos/toppers_asp3/lib/armv7aLaiv/GR__\libkernel.a(taskhook.o)
                              C:/ProgramData/KMC/SOLID/SDK/2.0/solid-os/rtos/toppers_asp3/lib/armv7aLaiv/GR__\libkernel.a(task.o) (_kernel_mtxhook_release_all)
C:/ProgramData/KMC/SOLID/SDK/2.0/solid-os/rtos/toppers_asp3/lib/armv7aLaiv/GR__\libkernel.a(task_manage.o)
                              C:/Users/admin/Documents/SOLID-IDE/Projects/cpptest/Release/exeGCC_SOLID/cpptest/cpptest_all.o (act_tsk)
C:/ProgramData/KMC/SOLID/SDK/2.0/solid-os/rtos/toppers_asp3/lib/armv7aLaiv/GR__\libkernel.a(time_event.o)
                              C:/ProgramData/KMC/SOLID/SDK/2.0/solid-os/rtos/toppers_asp3/lib/armv7aLaiv/GR__\libkernel.a(startup.o) (_kernel_initialize_tmevt)
C:/ProgramData/KMC/SOLID/SDK/2.0/solid-os/rtos/toppers_asp3/lib/armv7aLaiv/GR__\libkernel.a(wait.o)
                              C:/ProgramData/KMC/SOLID/SDK/2.0/solid-os/rtos/toppers_asp3/lib/armv7aLaiv/GR__\libkernel.a(dataqueue.o) (_kernel_make_wait_tmout)
C:/ProgramData/KMC/SOLID/SDK/2.0/solid-os/rtos/toppers_asp3/lib/armv7aLaiv/GR__\libkernel.a(solid_rtos_registerapi.o)
                              C:/ProgramData/KMC/SOLID/SDK/2.0/solid-os/rtos/toppers_asp3/lib/armv7aLaiv/GR__\libkernel.a(startup.o) (SOLID_RTOS_RegisterAPIs)
C:/ProgramData/KMC/SOLID/SDK/2.0/solid-os/rtos/toppers_asp3/lib/armv7aLaiv/GR__\libkernel.a(target_fput_log.o)
                              C:/ProgramData/KMC/SOLID/SDK/2.0/solid-os/rtos/toppers_asp3/lib/armv7aLaiv/GR__\libkernel.a(tSysLog.o) (target_fput_log)
C:/ProgramData/KMC/SOLID/SDK/2.0/solid-os/rtos/toppers_asp3/lib/armv7aLaiv/GR__\libkernel.a(target_intc_impl.o)
                              C:/ProgramData/KMC/SOLID/SDK/2.0/solid-os/rtos/toppers_asp3/lib/armv7aLaiv/GR__\libkernel.a(interrupt.o) (target_intc_setup)
C:/ProgramData/KMC/SOLID/SDK/2.0/solid-os/rtos/toppers_asp3/lib/armv7aLaiv/GR__\libkernel.a(target_timer_impl.o)
                              C:/ProgramData/KMC/SOLID/SDK/2.0/solid-os/rtos/toppers_asp3/lib/armv7aLaiv/GR__\libkernel.a(tSysLog.o) (target_hrt_get_current)
C:/ProgramData/KMC/SOLID/SDK/2.0/solid-os/rtos/toppers_asp3/lib/armv7aLaiv/GR__\libkernel.a(kmc_evttracker_rtos.o)
                              C:/ProgramData/KMC/SOLID/SDK/2.0/solid-os/rtos/toppers_asp3/lib/armv7aLaiv/GR__\libkernel.a(dataqueue.o) (__kmc_log_taskstat)
C:/ProgramData/KMC/SOLID/SDK/2.0/solid-os/rtos/toppers_asp3/lib/armv7aLaiv/GR__\libkernel.a(rtos_prof.o)
                              C:/ProgramData/KMC/SOLID/SDK/2.0/solid-os/rtos/toppers_asp3/lib/armv7aLaiv/GR__\libkernel.a(solid_rtos_registerapi.o) (RTOS_check_stack_overflow)
C:/ProgramData/KMC/SOLID/SDK/2.0/solid-os/rtos/toppers_asp3/lib/armv7aLaiv/GR__\libkernel.a(core_support.o)
                              C:/ProgramData/KMC/SOLID/SDK/2.0/solid-os/rtos/toppers_asp3/lib/armv7aLaiv/GR__\libkernel.a(dataqueue.o) (_kernel_dispatch)
C:/ProgramData/KMC/SOLID/SDK/2.0/solid-os/rtos/toppers_asp3/lib/armv7aLaiv/GR__\libkernel.a(kernel_cfg_intl.o)
                              C:/ProgramData/KMC/SOLID/SDK/2.0/solid-os/rtos/toppers_asp3/lib/armv7aLaiv/GR__\libkernel.a(startup.o) (_kernel_initialize_object)
C:/ProgramData/KMC/SOLID/SDK/2.0/solid-os/rtos/toppers_asp3/lib/armv7aLaiv/GR__\libkernel.a(alarm.o)
                              C:/ProgramData/KMC/SOLID/SDK/2.0/solid-os/rtos/toppers_asp3/lib/armv7aLaiv/GR__\libkernel.a(kernel_cfg_intl.o) (_kernel_initialize_alarm)
C:/ProgramData/KMC/SOLID/SDK/2.0/solid-os/rtos/toppers_asp3/lib/armv7aLaiv/GR__\libkernel.a(core_kernel_impl.o)
                              C:/ProgramData/KMC/SOLID/SDK/2.0/solid-os/rtos/toppers_asp3/lib/armv7aLaiv/GR__\libkernel.a(startup.o) (_kernel_core_initialize)
C:/ProgramData/KMC/SOLID/SDK/2.0/solid-os/rtos/toppers_asp3/lib/armv7aLaiv/GR__\libkernel.a(cyclic.o)
                              C:/ProgramData/KMC/SOLID/SDK/2.0/solid-os/rtos/toppers_asp3/lib/armv7aLaiv/GR__\libkernel.a(kernel_cfg_intl.o) (_kernel_initialize_cyclic)
C:/ProgramData/KMC/SOLID/SDK/2.0/solid-os/rtos/toppers_asp3/lib/armv7aLaiv/GR__\libkernel.a(eventflag.o)
                              C:/ProgramData/KMC/SOLID/SDK/2.0/solid-os/rtos/toppers_asp3/lib/armv7aLaiv/GR__\libkernel.a(kernel_cfg_intl.o) (_kernel_initialize_eventflag)
C:/ProgramData/KMC/SOLID/SDK/2.0/solid-os/rtos/toppers_asp3/lib/armv7aLaiv/GR__\libkernel.a(exception.o)
                              C:/ProgramData/KMC/SOLID/SDK/2.0/solid-os/rtos/toppers_asp3/lib/armv7aLaiv/GR__\libkernel.a(solid_rtos_registerapi.o) (xsns_dpn)
C:/ProgramData/KMC/SOLID/SDK/2.0/solid-os/rtos/toppers_asp3/lib/armv7aLaiv/GR__\libkernel.a(mempfix.o)
                              C:/ProgramData/KMC/SOLID/SDK/2.0/solid-os/rtos/toppers_asp3/lib/armv7aLaiv/GR__\libkernel.a(kernel_cfg_intl.o) (_kernel_initialize_mempfix)
C:/ProgramData/KMC/SOLID/SDK/2.0/solid-os/rtos/toppers_asp3/lib/armv7aLaiv/GR__\libkernel.a(log_output.o)
                              C:/ProgramData/KMC/SOLID/SDK/2.0/solid-os/rtos/toppers_asp3/lib/armv7aLaiv/GR__\libkernel.a(tSysLog.o) (syslog_print)
C:/ProgramData/KMC/SOLID/SDK/2.0/solid-os/rtos/toppers_asp3/lib/armv7aLaiv/GR__\libkernel.a(mutex.o)
                              C:/ProgramData/KMC/SOLID/SDK/2.0/solid-os/rtos/toppers_asp3/lib/armv7aLaiv/GR__\libkernel.a(kernel_cfg_intl.o) (_kernel_initialize_mutex)
C:/ProgramData/KMC/SOLID/SDK/2.0/solid-os/rtos/toppers_asp3/lib/armv7aLaiv/GR__\libkernel.a(pridataq.o)
                              C:/ProgramData/KMC/SOLID/SDK/2.0/solid-os/rtos/toppers_asp3/lib/armv7aLaiv/GR__\libkernel.a(kernel_cfg_intl.o) (_kernel_initialize_pridataq)
C:/ProgramData/KMC/SOLID/SDK/2.0/solid-os/rtos/toppers_asp3/lib/armv7aLaiv/GR__\libkernel.a(task_refer.o)
                              C:/ProgramData/KMC/SOLID/SDK/2.0/solid-os/rtos/toppers_asp3/lib/armv7aLaiv/GR__\libkernel.a(solid_rtos_registerapi.o) (ref_tsk)
C:/ProgramData/KMC/SOLID/SDK/2.0/solid-os/rtos/toppers_asp3/lib/armv7aLaiv/GR__\libkernel.a(task_sync.o)
                              C:/ProgramData/KMC/SOLID/SDK/2.0/solid-os/rtos/toppers_asp3/lib/armv7aLaiv/GR__\libkernel.a(solid_rtos_registerapi.o) (slp_tsk)
C:/ProgramData/KMC/SOLID/SDK/2.0/solid-os/rtos/toppers_asp3/lib/armv7aLaiv/GR__\libkernel.a(task_term.o)
                              C:/ProgramData/KMC/SOLID/SDK/2.0/solid-os/rtos/toppers_asp3/lib/armv7aLaiv/GR__\libkernel.a(solid_rtos_registerapi.o) (ext_tsk)
C:/ProgramData/KMC/SOLID/SDK/2.0/solid-os/rtos/toppers_asp3/lib/armv7aLaiv/GR__\libkernel.a(time_manage.o)
                              C:/ProgramData/KMC/SOLID/SDK/2.0/solid-os/rtos/toppers_asp3/lib/armv7aLaiv/GR__\libkernel.a(solid_rtos_registerapi.o) (set_tim)
C:/Users/admin/Documents/SOLID-IDE/Projects/cpptest/Release/exeGCC_SOLID/\libbsp.a(impl_cs_event.o)
                              C:/ProgramData/KMC/SOLID/SDK/2.0/solid-os/core/lib/armv7aLaiv/GR_\libsolid_cs.a(solid_cs_event.o) (IMPL_CS_EventNotify)
C:/Users/admin/Documents/SOLID-IDE/Projects/cpptest/Release/exeGCC_SOLID/\libbsp.a(impl_dmac.o)
                              C:/ProgramData/KMC/SOLID/SDK/2.0/solid-os/core/lib/armv7aLaiv/GR_\libsolid_cs.a(solid_dmac.o) (IMPL_DMAC_Init)
C:/Users/admin/Documents/SOLID-IDE/Projects/cpptest/Release/exeGCC_SOLID/\libbsp.a(impl_iores.o)
                              C:/ProgramData/KMC/SOLID/SDK/2.0/solid-os/core/lib/armv7aLaiv/GR_\libsolid_cs.a(solid_iores.o) (IMPL_IORES_GetConfig)
C:/Users/admin/Documents/SOLID-IDE/Projects/cpptest/Release/exeGCC_SOLID/\libbsp.a(impl_log.o)
                              C:/ProgramData/KMC/SOLID/SDK/2.0/solid-os/core/lib/armv7aLaiv/GR_\libsolid_cs.a(solid_log.o) (IMPL_LOG_Init)
C:/Users/admin/Documents/SOLID-IDE/Projects/cpptest/Release/exeGCC_SOLID/\libbsp.a(impl_net_dev_ether.o)
                              C:/Users/admin/Documents/SOLID-IDE/Projects/cpptest/Release/exeGCC_SOLID/\libnet.a(solid_net_if.o) (IMPL_NET_DEV_init)
C:/Users/admin/Documents/SOLID-IDE/Projects/cpptest/Release/exeGCC_SOLID/\libbsp.a(impl_net_dev_get_macaddr.o)
                              C:/Users/admin/Documents/SOLID-IDE/Projects/cpptest/Release/exeGCC_SOLID/\libnet.a(solid_net_if.o) (IMPL_NET_DEV_get_macaddr)
C:/Users/admin/Documents/SOLID-IDE/Projects/cpptest/Release/exeGCC_SOLID/\libbsp.a(impl_net_dev_getconfig.o)
                              C:/Users/admin/Documents/SOLID-IDE/Projects/cpptest/Release/exeGCC_SOLID/\libnet.a(solid_net_if.o) (IMPL_NET_DEV_get_netconfig)
C:/Users/admin/Documents/SOLID-IDE/Projects/cpptest/Release/exeGCC_SOLID/\libbsp.a(impl_rtc.o)
                              C:/ProgramData/KMC/SOLID/SDK/2.0/solid-os/core/lib/armv7aLaiv/GR_\libsolid_cs.a(solid_rtc.o) (IMPL_RTC_Init)
C:/Users/admin/Documents/SOLID-IDE/Projects/cpptest/Release/exeGCC_SOLID/\libbsp.a(impl_timer.o)
                              C:/ProgramData/KMC/SOLID/SDK/2.0/solid-os/core/lib/armv7aLaiv/GR_\libsolid_cs.a(solid_timer.o) (IMPL_TIMER_Init)
C:/Users/admin/Documents/SOLID-IDE/Projects/cpptest/Release/exeGCC_SOLID/\libbsp.a(rtc.o)
                              C:/Users/admin/Documents/SOLID-IDE/Projects/cpptest/Release/exeGCC_SOLID/\libbsp.a(impl_rtc.o) (R_RTC_Init)
C:/Users/admin/Documents/SOLID-IDE/Projects/cpptest/Release/exeGCC_SOLID/\libbsp.a(rtc_userdef.o)
                              C:/Users/admin/Documents/SOLID-IDE/Projects/cpptest/Release/exeGCC_SOLID/\libbsp.a(rtc.o) (Userdef_RTC_Init)
C:/Users/admin/Documents/SOLID-IDE/Projects/cpptest/Release/exeGCC_SOLID/\libbsp.a(bsp_globals.o)
                              C:/Users/admin/Documents/SOLID-IDE/Projects/cpptest/Release/exeGCC_SOLID/\libbsp.a(impl_cs_event.o) (IMPL_SYSTEM_IO_Initialize)
C:/Users/admin/Documents/SOLID-IDE/Projects/cpptest/Release/exeGCC_SOLID/\libbsp.a(rza_io_regrw.o)
                              C:/Users/admin/Documents/SOLID-IDE/Projects/cpptest/Release/exeGCC_SOLID/\libbsp.a(rtc.o) (RZA_IO_RegWrite_8)
C:/GCC4/ARM/s002/lib/armv7aLaiv\libstdc++.a(class_type_info.o)
                              C:/ProgramData/KMC/SOLID/SDK/2.0/solid-os/core/lib/armv7aLaiv/GR_\libsolid_cs.a(solid_dmac.o) (_ZTVN10__cxxabiv117__class_type_infoE)
C:/GCC4/ARM/s002/lib/armv7aLaiv\libstdc++.a(atexit_arm.o)
                              C:/ProgramData/KMC/SOLID/SDK/2.0/solid-os/core/lib/armv7aLaiv/GR_\libsolid_cs.a(solid_dmac.o) (__aeabi_atexit)
C:/GCC4/ARM/s002/lib/armv7aLaiv\libstdc++.a(del_ops.o)
                              C:/ProgramData/KMC/SOLID/SDK/2.0/solid-os/core/lib/armv7aLaiv/GR_\libsolid_cs.a(solid_dmac.o) (_ZdlPvj)
C:/GCC4/ARM/s002/lib/armv7aLaiv\libstdc++.a(si_class_type_info.o)
                              C:/ProgramData/KMC/SOLID/SDK/2.0/solid-os/core/lib/armv7aLaiv/GR_\libsolid_cs.a(solid_loader.o) (_ZTVN10__cxxabiv120__si_class_type_infoE)
C:/GCC4/ARM/s002/lib/armv7aLaiv\libstdc++.a(del_op.o)
                              C:/GCC4/ARM/s002/lib/armv7aLaiv\libstdc++.a(del_ops.o) (_ZdlPv)
C:/GCC4/ARM/s002/lib/armv7aLaiv\libstdc++.a(tinfo.o)
                              C:/GCC4/ARM/s002/lib/armv7aLaiv\libstdc++.a(class_type_info.o) (_ZNSt9type_infoD2Ev)
C:/GCC4/ARM/s002/lib/armv7aLaiv/libgcc.a(_udivsi3.o)
                              C:/ProgramData/KMC/SOLID/SDK/2.0/solid-os/core/lib/armv7aLaiv/GR_\libsolid_cs.a(solid_loader.o) (__aeabi_uidiv)
C:/GCC4/ARM/s002/lib/armv7aLaiv/libgcc.a(_dvmd_tls.o)
                              C:/GCC4/ARM/s002/lib/armv7aLaiv/libgcc.a(_udivsi3.o) (__aeabi_idiv0)
C:/GCC4/ARM/s002/lib/armv7aLaiv/libgcc.a(_aeabi_uldivmod.o)
                              C:/ProgramData/KMC/SOLID/SDK/2.0/solid-os/core/lib/armv7aLaiv/GR_\libsolid_cs.a(solid_timer.o) (__aeabi_uldivmod)
C:/GCC4/ARM/s002/lib/armv7aLaiv/libgcc.a(_udivmoddi4.o)
                              C:/GCC4/ARM/s002/lib/armv7aLaiv/libgcc.a(_aeabi_uldivmod.o) (__udivmoddi4)
C:/GCC4/ARM/s002/lib/armv7aLaiv/libgcc.a(unwind-arm.o)
                              C:/GCC4/ARM/s002/lib/armv7aLaiv\libstdc++.a(class_type_info.o) (__aeabi_unwind_cpp_pr0)
C:/GCC4/ARM/s002/lib/armv7aLaiv/libgcc.a(libunwind.o)
                              C:/GCC4/ARM/s002/lib/armv7aLaiv/libgcc.a(unwind-arm.o) (restore_core_regs)
C:/GCC4/ARM/s002/lib/armv7aLaiv/libgcc.a(pr-support.o)
                              C:/GCC4/ARM/s002/lib/armv7aLaiv/libgcc.a(unwind-arm.o) (__gnu_unwind_execute)
C:/GCC4/ARM/s002/lib/armv7aLaiv/libc.a(_m_init.o)
                              C:/ProgramData/KMC/SOLID/SDK/2.0/solid-os/core/lib/armv7aLaiv/GR_\libsolid_cs.a(solid_cs_main.o) (_m_init)
C:/GCC4/ARM/s002/lib/armv7aLaiv/libc.a(abort.o)
                              C:/ProgramData/KMC/SOLID/SDK/2.0/solid-os/core/lib/armv7aLaiv/GR_\libsolid_cs.a(dlmalloc.o) (abort)
C:/GCC4/ARM/s002/lib/armv7aLaiv/libc.a(errno.o)
                              C:/ProgramData/KMC/SOLID/SDK/2.0/solid-os/core/lib/armv7aLaiv/GR_\libsolid_cs.a(dlmalloc.o) (__get_errno_addr)
C:/GCC4/ARM/s002/lib/armv7aLaiv/libc.a(atoi.o)
                              C:/Users/admin/Documents/SOLID-IDE/Projects/cpptest/Release/exeGCC_SOLID/\libnet.a(netdb.o) (atoi)
C:/GCC4/ARM/s002/lib/armv7aLaiv/libc.a(rand.o)
                              C:/Users/admin/Documents/SOLID-IDE/Projects/cpptest/Release/exeGCC_SOLID/\libnet.a(dns.o) (rand)
C:/GCC4/ARM/s002/lib/armv7aLaiv/libc.a(strtol.o)
                              C:/GCC4/ARM/s002/lib/armv7aLaiv/libc.a(atoi.o) (strtol)
C:/GCC4/ARM/s002/lib/armv7aLaiv/libc.a(strtoul.o)
                              C:/ProgramData/KMC/SOLID/SDK/2.0/solid-os/core/lib/armv7aLaiv/GR_\libsolid_cs.a(solid_fs_mem.o) (strtoul)
C:/GCC4/ARM/s002/lib/armv7aLaiv/libc.a(atexit.o)
                              C:/GCC4/ARM/s002/lib/armv7aLaiv/libc.a(_m_init.o) (__libc_atexit_init)
C:/GCC4/ARM/s002/lib/armv7aLaiv/libc.a(memcmp.o)
                              C:/Users/admin/Documents/SOLID-IDE/Projects/cpptest/Release/exeGCC_SOLID/\libnet.a(ethernet.o) (memcmp)
C:/GCC4/ARM/s002/lib/armv7aLaiv/libc.a(memcpy.o)
                              C:/ProgramData/KMC/SOLID/SDK/2.0/solid-os/core/lib/armv7aLaiv/GR_\libsolid_cs.a(solid_fs_base.o) (memcpy)
C:/GCC4/ARM/s002/lib/armv7aLaiv/libc.a(memset.o)
                              C:/ProgramData/KMC/SOLID/SDK/2.0/solid-os/core/lib/armv7aLaiv/GR_\libsolid_cs.a(solid_fs_base.o) (memset)
C:/GCC4/ARM/s002/lib/armv7aLaiv/libc.a(strncpy.o)
                              C:/ProgramData/KMC/SOLID/SDK/2.0/solid-os/core/lib/armv7aLaiv/GR_\libsolid_cs.a(solid_fs_base.o) (strncpy)
C:/GCC4/ARM/s002/lib/armv7aLaiv/libc.a(strcmp.o)
                              C:/ProgramData/KMC/SOLID/SDK/2.0/solid-os/core/lib/armv7aLaiv/GR_\libsolid_cs.a(solid_fs_base.o) (strcmp)
C:/GCC4/ARM/s002/lib/armv7aLaiv/libc.a(strncmp.o)
                              C:/ProgramData/KMC/SOLID/SDK/2.0/solid-os/core/lib/armv7aLaiv/GR_\libsolid_cs.a(solid_fs_base.o) (strncmp)
C:/GCC4/ARM/s002/lib/armv7aLaiv/libc.a(strlen.o)
                              C:/ProgramData/KMC/SOLID/SDK/2.0/solid-os/core/lib/armv7aLaiv/GR_\libsolid_cs.a(solid_fs_base.o) (strlen)
C:/GCC4/ARM/s002/lib/armv7aLaiv/libc.a(isctype.o)
                              C:/GCC4/ARM/s002/lib/armv7aLaiv/libc.a(strtol.o) (isspace_l)
C:/GCC4/ARM/s002/lib/armv7aLaiv/libc.a(global_locale.o)
                              C:/GCC4/ARM/s002/lib/armv7aLaiv/libc.a(strtol.o) (_lc_global_locale)
C:/GCC4/ARM/s002/lib/armv7aLaiv/libc.a(runetable.o)
                              C:/GCC4/ARM/s002/lib/armv7aLaiv/libc.a(global_locale.o) (_DefaultRuneLocale)
C:/GCC4/ARM/s002/lib/armv7aLaiv/libc.a(thread-stub-init.o)
                              C:/GCC4/ARM/s002/lib/armv7aLaiv/libc.a(_m_init.o) (__libc_thr_init)
C:/GCC4/ARM/s002/lib/armv7aLaiv/libc.a(thread-stub.o)
                              C:/GCC4/ARM/s002/lib/armv7aLaiv/libc.a(atexit.o) (__libc_mutex_init)
C:/GCC4/ARM/s002/lib/armv7aLaiv/libc.a(ssp_init.o)
                              C:/GCC4/ARM/s002/lib/armv7aLaiv/libc.a(_m_init.o) (__guard_setup)
C:/GCC4/ARM/s002/lib/armv7aLaiv/libc.a(findfp.o)
                              C:/ProgramData/KMC/SOLID/SDK/2.0/solid-os/core/lib/armv7aLaiv/GR_\libsolid_cs.a(dlmalloc.o) (__sF)
C:/GCC4/ARM/s002/lib/armv7aLaiv/libc.a(fprintf.o)
                              C:/ProgramData/KMC/SOLID/SDK/2.0/solid-os/core/lib/armv7aLaiv/GR_\libsolid_cs.a(dlmalloc.o) (fprintf)
C:/GCC4/ARM/s002/lib/armv7aLaiv/libc.a(stdio.o)
                              C:/GCC4/ARM/s002/lib/armv7aLaiv/libc.a(findfp.o) (__sread)
C:/GCC4/ARM/s002/lib/armv7aLaiv/libc.a(vfprintf.o)
                              C:/GCC4/ARM/s002/lib/armv7aLaiv/libc.a(fprintf.o) (_vfprintf_l)
C:/GCC4/ARM/s002/lib/armv7aLaiv/libc.a(vsnprintf.o)
                              C:/ProgramData/KMC/SOLID/SDK/2.0/solid-os/core/lib/armv7aLaiv/GR_\libsolid_cs.a(solid_cs_event.o) (vsnprintf)
C:/GCC4/ARM/s002/lib/armv7aLaiv/libc.a(wsetup.o)
                              C:/GCC4/ARM/s002/lib/armv7aLaiv/libc.a(vfprintf.o) (__swsetup)
C:/GCC4/ARM/s002/lib/armv7aLaiv/libc.a(makebuf.o)
                              C:/GCC4/ARM/s002/lib/armv7aLaiv/libc.a(wsetup.o) (__smakebuf)
C:/GCC4/ARM/s002/lib/armv7aLaiv/libc.a(close.o)
                              C:/GCC4/ARM/s002/lib/armv7aLaiv/libc.a(stdio.o) (close)
C:/GCC4/ARM/s002/lib/armv7aLaiv/libc.a(fstat.o)
                              C:/GCC4/ARM/s002/lib/armv7aLaiv/libc.a(makebuf.o) (fstat)
C:/GCC4/ARM/s002/lib/armv7aLaiv/libc.a(lseek.o)
                              C:/GCC4/ARM/s002/lib/armv7aLaiv/libc.a(stdio.o) (lseek)
C:/GCC4/ARM/s002/lib/armv7aLaiv/libc.a(open.o)
                              C:/GCC4/ARM/s002/lib/armv7aLaiv/libc.a(close.o) (_fd_status)
C:/GCC4/ARM/s002/lib/armv7aLaiv/libc.a(osemu.o)
                              C:/GCC4/ARM/s002/lib/armv7aLaiv/libc.a(open.o) (_vlink_open)
C:/GCC4/ARM/s002/lib/armv7aLaiv/libc.a(read.o)
                              C:/GCC4/ARM/s002/lib/armv7aLaiv/libc.a(stdio.o) (read)
C:/GCC4/ARM/s002/lib/armv7aLaiv/libc.a(u2dname.o)
                              C:/GCC4/ARM/s002/lib/armv7aLaiv/libc.a(open.o) (_unix2dosname)
C:/GCC4/ARM/s002/lib/armv7aLaiv/libc.a(utime.o)
                              C:/GCC4/ARM/s002/lib/armv7aLaiv/libc.a(fstat.o) (_dos2unix_file_time)
C:/GCC4/ARM/s002/lib/armv7aLaiv/libc.a(write.o)
                              C:/GCC4/ARM/s002/lib/armv7aLaiv/libc.a(abort.o) (write)
C:/GCC4/ARM/s002/lib/armv7aLaiv/libc.a(_env.o)
                              C:/GCC4/ARM/s002/lib/armv7aLaiv/libc.a(_m_init.o) (__libc_env_init)
C:/GCC4/ARM/s002/lib/armv7aLaiv/libc.a(exit.o)
                              C:/GCC4/ARM/s002/lib/armv7aLaiv/libc.a(findfp.o) (__cleanup)
C:/GCC4/ARM/s002/lib/armv7aLaiv/libc.a(signal.o)
                              C:/GCC4/ARM/s002/lib/armv7aLaiv/libc.a(thread-stub-init.o) (raise)
C:/GCC4/ARM/s002/lib/armv7aLaiv/libc.a(localtime.o)
                              C:/GCC4/ARM/s002/lib/armv7aLaiv/libc.a(utime.o) (_dos2unix_time)
C:/GCC4/ARM/s002/lib/armv7aLaiv/libc.a(lldiv.o)
                              C:/GCC4/ARM/s002/lib/armv7aLaiv/libc.a(localtime.o) (lldiv)
C:/GCC4/ARM/s002/lib/armv7aLaiv/libc.a(memchr.o)
                              C:/GCC4/ARM/s002/lib/armv7aLaiv/libc.a(vfprintf.o) (memchr)
C:/GCC4/ARM/s002/lib/armv7aLaiv/libc.a(strcspn.o)
                              C:/GCC4/ARM/s002/lib/armv7aLaiv/libc.a(_env.o) (strcspn)
C:/GCC4/ARM/s002/lib/armv7aLaiv/libc.a(strncasecmp.o)
                              C:/GCC4/ARM/s002/lib/armv7aLaiv/libc.a(_env.o) (_strncasecmp)
C:/GCC4/ARM/s002/lib/armv7aLaiv/libc.a(strdup.o)
                              C:/GCC4/ARM/s002/lib/armv7aLaiv/libc.a(vfprintf.o) (_strdup)
C:/GCC4/ARM/s002/lib/armv7aLaiv/libc.a(ctype_.o)
                              C:/GCC4/ARM/s002/lib/armv7aLaiv/libc.a(isctype.o) (_ctype_tab_)
C:/GCC4/ARM/s002/lib/armv7aLaiv/libc.a(toupper_.o)
                              C:/GCC4/ARM/s002/lib/armv7aLaiv/libc.a(isctype.o) (_toupper_tab_)
C:/GCC4/ARM/s002/lib/armv7aLaiv/libc.a(tolower_.o)
                              C:/GCC4/ARM/s002/lib/armv7aLaiv/libc.a(isctype.o) (_tolower_tab_)
C:/GCC4/ARM/s002/lib/armv7aLaiv/libc.a(citrus_ctype.o)
                              C:/GCC4/ARM/s002/lib/armv7aLaiv/libc.a(runetable.o) (_citrus_ctype_default)
C:/GCC4/ARM/s002/lib/armv7aLaiv/libc.a(citrus_none.o)
                              C:/GCC4/ARM/s002/lib/armv7aLaiv/libc.a(citrus_ctype.o) (_citrus_NONE_ctype_ops)
C:/GCC4/ARM/s002/lib/armv7aLaiv/libc.a(citrus_mskanji.o)
                              C:/GCC4/ARM/s002/lib/armv7aLaiv/libc.a(citrus_ctype.o) (_citrus_MSKanji_ctype_ops)
C:/GCC4/ARM/s002/lib/armv7aLaiv/libc.a(citrus_utf8.o)
                              C:/GCC4/ARM/s002/lib/armv7aLaiv/libc.a(citrus_ctype.o) (_citrus_UTF8_ctype_ops)
C:/GCC4/ARM/s002/lib/armv7aLaiv/libc.a(localeconv.o)
                              C:/GCC4/ARM/s002/lib/armv7aLaiv/libc.a(vfprintf.o) (localeconv_l)
C:/GCC4/ARM/s002/lib/armv7aLaiv/libc.a(multibyte_amd1.o)
                              C:/GCC4/ARM/s002/lib/armv7aLaiv/libc.a(vfprintf.o) (wcrtomb_l)
C:/GCC4/ARM/s002/lib/armv7aLaiv/libc.a(__isthreaded.o)
                              C:/GCC4/ARM/s002/lib/armv7aLaiv/libc.a(thread-stub.o) (__isthreaded)
C:/GCC4/ARM/s002/lib/armv7aLaiv/libc.a(dtoa.o)
                              C:/GCC4/ARM/s002/lib/armv7aLaiv/libc.a(vfprintf.o) (__dtoa)
C:/GCC4/ARM/s002/lib/armv7aLaiv/libc.a(ldtoa.o)
                              C:/GCC4/ARM/s002/lib/armv7aLaiv/libc.a(vfprintf.o) (__ldtoa)
C:/GCC4/ARM/s002/lib/armv7aLaiv/libc.a(hdtoa.o)
                              C:/GCC4/ARM/s002/lib/armv7aLaiv/libc.a(vfprintf.o) (__hdtoa)
C:/GCC4/ARM/s002/lib/armv7aLaiv/libc.a(dmisc.o)
                              C:/GCC4/ARM/s002/lib/armv7aLaiv/libc.a(dtoa.o) (__rv_alloc_D2A)
C:/GCC4/ARM/s002/lib/armv7aLaiv/libc.a(misc.o)
                              C:/GCC4/ARM/s002/lib/armv7aLaiv/libc.a(dtoa.o) (__Balloc_D2A)
C:/GCC4/ARM/s002/lib/armv7aLaiv/libc.a(softfloat.o)
                              C:/GCC4/ARM/s002/lib/armv7aLaiv/libc.a(dtoa.o) (__aeabi_i2d)
C:/GCC4/ARM/s002/lib/armv7aLaiv/libc.a(__aeabi_dcmpeq.o)
                              C:/GCC4/ARM/s002/lib/armv7aLaiv/libc.a(dtoa.o) (__aeabi_dcmpeq)
C:/GCC4/ARM/s002/lib/armv7aLaiv/libc.a(__aeabi_dcmpge.o)
                              C:/GCC4/ARM/s002/lib/armv7aLaiv/libc.a(dtoa.o) (__aeabi_dcmpge)
C:/GCC4/ARM/s002/lib/armv7aLaiv/libc.a(__aeabi_dcmpgt.o)
                              C:/GCC4/ARM/s002/lib/armv7aLaiv/libc.a(dtoa.o) (__aeabi_dcmpgt)
C:/GCC4/ARM/s002/lib/armv7aLaiv/libc.a(__aeabi_dcmplt.o)
                              C:/GCC4/ARM/s002/lib/armv7aLaiv/libc.a(dtoa.o) (__aeabi_dcmplt)
C:/GCC4/ARM/s002/lib/armv7aLaiv/libc.a(rb.o)
                              C:/GCC4/ARM/s002/lib/armv7aLaiv/libc.a(_env.o) (_rb_tree_init)
C:/GCC4/ARM/s002/lib/armv7aLaiv/libc.a(fflush.o)
                              C:/GCC4/ARM/s002/lib/armv7aLaiv/libc.a(findfp.o) (fflush)
C:/GCC4/ARM/s002/lib/armv7aLaiv/libc.a(flockfile.o)
                              C:/GCC4/ARM/s002/lib/armv7aLaiv/libc.a(vfprintf.o) (__flockfile_internal)
C:/GCC4/ARM/s002/lib/armv7aLaiv/libc.a(fvwrite.o)
                              C:/GCC4/ARM/s002/lib/armv7aLaiv/libc.a(vfprintf.o) (__sfvwrite)
C:/GCC4/ARM/s002/lib/armv7aLaiv/libc.a(fwalk.o)
                              C:/GCC4/ARM/s002/lib/armv7aLaiv/libc.a(fflush.o) (_fwalk)
C:/GCC4/ARM/s002/lib/armv7aLaiv/libc.a(creat.o)
                              C:/GCC4/ARM/s002/lib/armv7aLaiv/libc.a(open.o) (creat)
C:/GCC4/ARM/s002/lib/armv7aLaiv/libc.a(fpclassifyd_ieee754.o)
                              C:/GCC4/ARM/s002/lib/armv7aLaiv/libc.a(hdtoa.o) (__fpclassifyd)
C:/GCC4/ARM/s002/lib/armv7aLaiv/libc.a(strcasecmp.o)
                              C:/GCC4/ARM/s002/lib/armv7aLaiv/libc.a(citrus_ctype.o) (strcasecmp)
C:/GCC4/ARM/s002/lib/armv7aLaiv/libc.a(gdtoa_locks.o)
                              C:/GCC4/ARM/s002/lib/armv7aLaiv/libc.a(misc.o) (__gdtoa_locks)
C:/GCC4/ARM/s002/lib/armv7aLaiv/libgcc.a(_divsi3.o)
                              C:/GCC4/ARM/s002/lib/armv7aLaiv/libc.a(strtol.o) (__aeabi_idiv)
C:/GCC4/ARM/s002/lib/armv7aLaiv/libgcc.a(_arm_addsubdf3.o)
                              C:/GCC4/ARM/s002/lib/armv7aLaiv/libc.a(dtoa.o) (__aeabi_ui2d)
C:/GCC4/ARM/s002/lib/armv7aLaiv/libgcc.a(_aeabi_ldivmod.o)
                              C:/GCC4/ARM/s002/lib/armv7aLaiv/libc.a(vfprintf.o) (__aeabi_ldivmod)

Allocating common symbols
Common symbol       size              file

memp_memory_NETDB_base
                    0x137             C:/Users/admin/Documents/SOLID-IDE/Projects/cpptest/Release/exeGCC_SOLID/\libnet.a(memp.o)
_kernel_isrcb_table
                    0x0               C:/Users/admin/Documents/SOLID-IDE/Projects/cpptest/Release/exeGCC_SOLID/cpptest/cpptest_all.o
g_MTU2Regs          0xc               C:/Users/admin/Documents/SOLID-IDE/Projects/cpptest/Release/exeGCC_SOLID/\libbsp.a(bsp_globals.o)
csMem               0x4               C:/ProgramData/KMC/SOLID/SDK/2.0/solid-os/core/lib/armv7aLaiv/GR_\libsolid_cs.a(solid_malloc.o)
_kernel_isr_queue_table
                    0x0               C:/Users/admin/Documents/SOLID-IDE/Projects/cpptest/Release/exeGCC_SOLID/cpptest/cpptest_all.o
_kernel_cyccb_table
                    0x0               C:/Users/admin/Documents/SOLID-IDE/Projects/cpptest/Release/exeGCC_SOLID/cpptest/cpptest_all.o
g_PFV1Regs          0xc               C:/Users/admin/Documents/SOLID-IDE/Projects/cpptest/Release/exeGCC_SOLID/\libbsp.a(bsp_globals.o)
netif_list          0x4               C:/Users/admin/Documents/SOLID-IDE/Projects/cpptest/Release/exeGCC_SOLID/\libnet.a(netif.o)
rtcreg              0x4               C:/Users/admin/Documents/SOLID-IDE/Projects/cpptest/Release/exeGCC_SOLID/\libbsp.a(rtc.o)
_kernel_p_schedtsk  0x4               C:/ProgramData/KMC/SOLID/SDK/2.0/solid-os/rtos/toppers_asp3/lib/armv7aLaiv/GR__\libkernel.a(task.o)
g_OSTM1Regs         0xc               C:/Users/admin/Documents/SOLID-IDE/Projects/cpptest/Release/exeGCC_SOLID/\libbsp.a(bsp_globals.o)
g_DISC0Regs         0xc               C:/Users/admin/Documents/SOLID-IDE/Projects/cpptest/Release/exeGCC_SOLID/\libbsp.a(bsp_globals.o)
g_SPDIFRegs         0xc               C:/Users/admin/Documents/SOLID-IDE/Projects/cpptest/Release/exeGCC_SOLID/\libbsp.a(bsp_globals.o)
_kernel_monotonic_evttim
                    0x4               C:/ProgramData/KMC/SOLID/SDK/2.0/solid-os/rtos/toppers_asp3/lib/armv7aLaiv/GR__\libkernel.a(time_event.o)
lock_tcpip_core     0x4               C:/Users/admin/Documents/SOLID-IDE/Projects/cpptest/Release/exeGCC_SOLID/\libnet.a(tcpip.o)
_kernel_mtxcb_table
                    0x0               C:/Users/admin/Documents/SOLID-IDE/Projects/cpptest/Release/exeGCC_SOLID/cpptest/cpptest_all.o
ip_data             0x18              C:/Users/admin/Documents/SOLID-IDE/Projects/cpptest/Release/exeGCC_SOLID/\libnet.a(ip.o)
g_SPIBSC0Regs       0xc               C:/Users/admin/Documents/SOLID-IDE/Projects/cpptest/Release/exeGCC_SOLID/\libbsp.a(bsp_globals.o)
memp_memory_NETBUF_base
                    0x23              C:/Users/admin/Documents/SOLID-IDE/Projects/cpptest/Release/exeGCC_SOLID/\libnet.a(memp.o)
tcp_active_pcbs_changed
                    0x1               C:/Users/admin/Documents/SOLID-IDE/Projects/cpptest/Release/exeGCC_SOLID/\libnet.a(tcp.o)
tcp_active_pcbs     0x4               C:/Users/admin/Documents/SOLID-IDE/Projects/cpptest/Release/exeGCC_SOLID/\libnet.a(tcp.o)
g_VDC50Regs         0xc               C:/Users/admin/Documents/SOLID-IDE/Projects/cpptest/Release/exeGCC_SOLID/\libbsp.a(bsp_globals.o)
udp_pcbs            0x4               C:/Users/admin/Documents/SOLID-IDE/Projects/cpptest/Release/exeGCC_SOLID/\libnet.a(udp.o)
g_BSCRegs           0xc               C:/Users/admin/Documents/SOLID-IDE/Projects/cpptest/Release/exeGCC_SOLID/\libbsp.a(bsp_globals.o)
_kernel_in_signal_time
                    0x4               C:/ProgramData/KMC/SOLID/SDK/2.0/solid-os/rtos/toppers_asp3/lib/armv7aLaiv/GR__\libkernel.a(time_event.o)
_kernel_apdqinib_table
                    0x0               C:/Users/admin/Documents/SOLID-IDE/Projects/cpptest/Release/exeGCC_SOLID/cpptest/cpptest_all.o
_kernel_pdqcb_table
                    0x0               C:/Users/admin/Documents/SOLID-IDE/Projects/cpptest/Release/exeGCC_SOLID/cpptest/cpptest_all.o
_kernel_boundary_evttim
                    0x4               C:/ProgramData/KMC/SOLID/SDK/2.0/solid-os/rtos/toppers_asp3/lib/armv7aLaiv/GR__\libkernel.a(time_event.o)
memp_memory_TCPIP_MSG_INPKT_base
                    0x203             C:/Users/admin/Documents/SOLID-IDE/Projects/cpptest/Release/exeGCC_SOLID/\libnet.a(memp.o)
_vlink_arg          0x4               C:/GCC4/ARM/s002/lib/armv7aLaiv/libc.a(osemu.o)
tcp_ticks           0x4               C:/Users/admin/Documents/SOLID-IDE/Projects/cpptest/Release/exeGCC_SOLID/\libnet.a(tcp.o)
tcp_listen_pcbs     0x4               C:/Users/admin/Documents/SOLID-IDE/Projects/cpptest/Release/exeGCC_SOLID/\libnet.a(tcp.o)
g_SSIF1Regs         0xc               C:/Users/admin/Documents/SOLID-IDE/Projects/cpptest/Release/exeGCC_SOLID/\libbsp.a(bsp_globals.o)
_kernel_ampfinib_table
                    0x0               C:/Users/admin/Documents/SOLID-IDE/Projects/cpptest/Release/exeGCC_SOLID/cpptest/cpptest_all.o
g_SCUXRegs          0xc               C:/Users/admin/Documents/SOLID-IDE/Projects/cpptest/Release/exeGCC_SOLID/\libbsp.a(bsp_globals.o)
_kernel_aisrinib_table
                    0x0               C:/Users/admin/Documents/SOLID-IDE/Projects/cpptest/Release/exeGCC_SOLID/cpptest/cpptest_all.o
_kernel_current_evttim
                    0x4               C:/ProgramData/KMC/SOLID/SDK/2.0/solid-os/rtos/toppers_asp3/lib/armv7aLaiv/GR__\libkernel.a(time_event.o)
memp_memory_TCP_SEG_base
                    0x323             C:/Users/admin/Documents/SOLID-IDE/Projects/cpptest/Release/exeGCC_SOLID/\libnet.a(memp.o)
g_USB200Regs        0xc               C:/Users/admin/Documents/SOLID-IDE/Projects/cpptest/Release/exeGCC_SOLID/\libbsp.a(bsp_globals.o)
_kernel_acyc_nfyinfo_table
                    0x0               C:/Users/admin/Documents/SOLID-IDE/Projects/cpptest/Release/exeGCC_SOLID/cpptest/cpptest_all.o
_kernel_dtqcb_table
                    0xa0              C:/Users/admin/Documents/SOLID-IDE/Projects/cpptest/Release/exeGCC_SOLID/cpptest/cpptest_all.o
g_LIN0Regs          0xc               C:/Users/admin/Documents/SOLID-IDE/Projects/cpptest/Release/exeGCC_SOLID/\libbsp.a(bsp_globals.o)
g_CPGRegs           0xc               C:/Users/admin/Documents/SOLID-IDE/Projects/cpptest/Release/exeGCC_SOLID/\libbsp.a(bsp_globals.o)
_vlink_end_fnc      0x4               C:/GCC4/ARM/s002/lib/armv7aLaiv/libc.a(osemu.o)
g_RIIC2Regs         0xc               C:/Users/admin/Documents/SOLID-IDE/Projects/cpptest/Release/exeGCC_SOLID/\libbsp.a(bsp_globals.o)
_eth_io_base1       0x4               C:/Users/admin/Documents/SOLID-IDE/Projects/cpptest/Release/exeGCC_SOLID/\libbsp.a(impl_net_dev_ether.o)
_kernel_aalm_nfyinfo_table
                    0x0               C:/Users/admin/Documents/SOLID-IDE/Projects/cpptest/Release/exeGCC_SOLID/cpptest/cpptest_all.o
memp_memory_PBUF_POOL_base
                    0x2fe03           C:/Users/admin/Documents/SOLID-IDE/Projects/cpptest/Release/exeGCC_SOLID/\libnet.a(memp.o)
g_pNestedContext    0x4               C:/ProgramData/KMC/SOLID/SDK/2.0/solid-os/core/lib/armv7aLaiv/GR_\libsolid_cs.a(solid_vector.o)
g_SDG3Regs          0xc               C:/Users/admin/Documents/SOLID-IDE/Projects/cpptest/Release/exeGCC_SOLID/\libbsp.a(bsp_globals.o)
_kernel_ready_queue
                    0x80              C:/ProgramData/KMC/SOLID/SDK/2.0/solid-os/rtos/toppers_asp3/lib/armv7aLaiv/GR__\libkernel.a(task.o)
_kernel_atinib_table
                    0x0               C:/Users/admin/Documents/SOLID-IDE/Projects/cpptest/Release/exeGCC_SOLID/cpptest/cpptest_all.o
_kernel_semcb_table
                    0x50              C:/Users/admin/Documents/SOLID-IDE/Projects/cpptest/Release/exeGCC_SOLID/cpptest/cpptest_all.o
g_LVDSRegs          0xc               C:/Users/admin/Documents/SOLID-IDE/Projects/cpptest/Release/exeGCC_SOLID/\libbsp.a(bsp_globals.o)
g_INBRegs           0xc               C:/Users/admin/Documents/SOLID-IDE/Projects/cpptest/Release/exeGCC_SOLID/\libbsp.a(bsp_globals.o)
memp_memory_FRAG_PBUF_base
                    0x16b             C:/Users/admin/Documents/SOLID-IDE/Projects/cpptest/Release/exeGCC_SOLID/\libnet.a(memp.o)
memp_memory_TCPIP_MSG_API_base
                    0x103             C:/Users/admin/Documents/SOLID-IDE/Projects/cpptest/Release/exeGCC_SOLID/\libnet.a(memp.o)
sys_semaphore_table
                    0x28              C:/Users/admin/Documents/SOLID-IDE/Projects/cpptest/Release/exeGCC_SOLID/\libnet.a(sys_arch.o)
__global_vlink_errno
                    0x4               C:/GCC4/ARM/s002/lib/armv7aLaiv/libc.a(errno.o)
g_SSIF5Regs         0xc               C:/Users/admin/Documents/SOLID-IDE/Projects/cpptest/Release/exeGCC_SOLID/\libbsp.a(bsp_globals.o)
_kernel_tmevt_heap  0x20              C:/Users/admin/Documents/SOLID-IDE/Projects/cpptest/Release/exeGCC_SOLID/cpptest/cpptest_all.o
_kernel_dspflg      0x4               C:/ProgramData/KMC/SOLID/SDK/2.0/solid-os/rtos/toppers_asp3/lib/armv7aLaiv/GR__\libkernel.a(task.o)
__atexit_mutex      0x1c              C:/GCC4/ARM/s002/lib/armv7aLaiv/libc.a(atexit.o)
g_USB201Regs        0xc               C:/Users/admin/Documents/SOLID-IDE/Projects/cpptest/Release/exeGCC_SOLID/\libbsp.a(bsp_globals.o)
h_errno             0x4               C:/Users/admin/Documents/SOLID-IDE/Projects/cpptest/Release/exeGCC_SOLID/\libnet.a(netdb.o)
_netif_store_       0x38              C:/Users/admin/Documents/SOLID-IDE/Projects/cpptest/Release/exeGCC_SOLID/\libnet.a(impl_net_stack.o)
_kernel_ready_primap
                    0x2               C:/ProgramData/KMC/SOLID/SDK/2.0/solid-os/rtos/toppers_asp3/lib/armv7aLaiv/GR__\libkernel.a(task.o)
_kernel_inhcb_table
                    0x0               C:/Users/admin/Documents/SOLID-IDE/Projects/cpptest/Release/exeGCC_SOLID/cpptest/cpptest_all.o
_kernel_almcb_table
                    0x0               C:/Users/admin/Documents/SOLID-IDE/Projects/cpptest/Release/exeGCC_SOLID/cpptest/cpptest_all.o
environ             0x4               C:/GCC4/ARM/s002/lib/armv7aLaiv/libc.a(_env.o)
g_RTCRegs           0xc               C:/Users/admin/Documents/SOLID-IDE/Projects/cpptest/Release/exeGCC_SOLID/\libbsp.a(bsp_globals.o)
tcp_input_pcb       0x4               C:/Users/admin/Documents/SOLID-IDE/Projects/cpptest/Release/exeGCC_SOLID/\libnet.a(tcp_in.o)
g_CEURegs           0xc               C:/Users/admin/Documents/SOLID-IDE/Projects/cpptest/Release/exeGCC_SOLID/\libbsp.a(bsp_globals.o)
g_SSIF2Regs         0xc               C:/Users/admin/Documents/SOLID-IDE/Projects/cpptest/Release/exeGCC_SOLID/\libbsp.a(bsp_globals.o)
__cleanup           0x4               C:/GCC4/ARM/s002/lib/armv7aLaiv/libc.a(exit.o)
_kernel_aflginib_table
                    0x0               C:/Users/admin/Documents/SOLID-IDE/Projects/cpptest/Release/exeGCC_SOLID/cpptest/cpptest_all.o
_kernel_free_tcb    0x8               C:/ProgramData/KMC/SOLID/SDK/2.0/solid-os/rtos/toppers_asp3/lib/armv7aLaiv/GR__\libkernel.a(task.o)
_malloc_start_fnc   0x4               C:/GCC4/ARM/s002/lib/armv7aLaiv/libc.a(_m_init.o)
g_RIIC0Regs         0xc               C:/Users/admin/Documents/SOLID-IDE/Projects/cpptest/Release/exeGCC_SOLID/\libbsp.a(bsp_globals.o)
sys_mutex_table     0x28              C:/Users/admin/Documents/SOLID-IDE/Projects/cpptest/Release/exeGCC_SOLID/\libnet.a(sys_arch.o)
_kernel_current_hrtcnt
                    0x4               C:/ProgramData/KMC/SOLID/SDK/2.0/solid-os/rtos/toppers_asp3/lib/armv7aLaiv/GR__\libkernel.a(time_event.o)
g_IRDARegs          0xc               C:/Users/admin/Documents/SOLID-IDE/Projects/cpptest/Release/exeGCC_SOLID/\libbsp.a(bsp_globals.o)
_kernel_isrinib_table
                    0x0               C:/Users/admin/Documents/SOLID-IDE/Projects/cpptest/Release/exeGCC_SOLID/cpptest/cpptest_all.o
_kernel_amtxinib_table
                    0x0               C:/Users/admin/Documents/SOLID-IDE/Projects/cpptest/Release/exeGCC_SOLID/cpptest/cpptest_all.o
g_RIIC1Regs         0xc               C:/Users/admin/Documents/SOLID-IDE/Projects/cpptest/Release/exeGCC_SOLID/\libbsp.a(bsp_globals.o)
dhcp_rx_options_given
                    0xa               C:/Users/admin/Documents/SOLID-IDE/Projects/cpptest/Release/exeGCC_SOLID/\libnet.a(dhcp.o)
g_SDG0Regs          0xc               C:/Users/admin/Documents/SOLID-IDE/Projects/cpptest/Release/exeGCC_SOLID/\libbsp.a(bsp_globals.o)
_vlink_env          0x4               C:/GCC4/ARM/s002/lib/armv7aLaiv/libc.a(osemu.o)
memp_memory_PBUF_base
                    0x103             C:/Users/admin/Documents/SOLID-IDE/Projects/cpptest/Release/exeGCC_SOLID/\libnet.a(memp.o)
_kernel_aalminib_table
                    0x0               C:/Users/admin/Documents/SOLID-IDE/Projects/cpptest/Release/exeGCC_SOLID/cpptest/cpptest_all.o
g_ROMDECRegs        0xc               C:/Users/admin/Documents/SOLID-IDE/Projects/cpptest/Release/exeGCC_SOLID/\libbsp.a(bsp_globals.o)
_kernel_p_runtsk    0x4               C:/ProgramData/KMC/SOLID/SDK/2.0/solid-os/rtos/toppers_asp3/lib/armv7aLaiv/GR__\libkernel.a(task.o)
g_DMACRegs          0xc               C:/Users/admin/Documents/SOLID-IDE/Projects/cpptest/Release/exeGCC_SOLID/\libbsp.a(impl_dmac.o)
tcp_bound_pcbs      0x4               C:/Users/admin/Documents/SOLID-IDE/Projects/cpptest/Release/exeGCC_SOLID/\libnet.a(tcp.o)
g_RSPI2Regs         0xc               C:/Users/admin/Documents/SOLID-IDE/Projects/cpptest/Release/exeGCC_SOLID/\libbsp.a(bsp_globals.o)
memp_memory_TCP_PCB_LISTEN_base
                    0x103             C:/Users/admin/Documents/SOLID-IDE/Projects/cpptest/Release/exeGCC_SOLID/\libnet.a(memp.o)
memp_memory_REASSDATA_base
                    0xa3              C:/Users/admin/Documents/SOLID-IDE/Projects/cpptest/Release/exeGCC_SOLID/\libnet.a(memp.o)
g_RIIC3Regs         0xc               C:/Users/admin/Documents/SOLID-IDE/Projects/cpptest/Release/exeGCC_SOLID/\libbsp.a(bsp_globals.o)
g_DVDEC1Regs        0xc               C:/Users/admin/Documents/SOLID-IDE/Projects/cpptest/Release/exeGCC_SOLID/\libbsp.a(bsp_globals.o)
g_DISC1Regs         0xc               C:/Users/admin/Documents/SOLID-IDE/Projects/cpptest/Release/exeGCC_SOLID/\libbsp.a(bsp_globals.o)
_kernel_mpfcb_table
                    0x0               C:/Users/admin/Documents/SOLID-IDE/Projects/cpptest/Release/exeGCC_SOLID/cpptest/cpptest_all.o
g_ADCRegs           0xc               C:/Users/admin/Documents/SOLID-IDE/Projects/cpptest/Release/exeGCC_SOLID/\libbsp.a(bsp_globals.o)
_kernel_tcb_table   0x1a4             C:/Users/admin/Documents/SOLID-IDE/Projects/cpptest/Release/exeGCC_SOLID/cpptest/cpptest_all.o
g_PWMRegs           0xc               C:/Users/admin/Documents/SOLID-IDE/Projects/cpptest/Release/exeGCC_SOLID/\libbsp.a(bsp_globals.o)
g_VDC51Regs         0xc               C:/Users/admin/Documents/SOLID-IDE/Projects/cpptest/Release/exeGCC_SOLID/\libbsp.a(bsp_globals.o)
g_SDG1Regs          0xc               C:/Users/admin/Documents/SOLID-IDE/Projects/cpptest/Release/exeGCC_SOLID/\libbsp.a(bsp_globals.o)
_malloc_end_fnc     0x4               C:/GCC4/ARM/s002/lib/armv7aLaiv/libc.a(_m_init.o)
g_SSIF4Regs         0xc               C:/Users/admin/Documents/SOLID-IDE/Projects/cpptest/Release/exeGCC_SOLID/\libbsp.a(bsp_globals.o)
_kernel_excpt_nest_count
                    0x4               C:/ProgramData/KMC/SOLID/SDK/2.0/solid-os/rtos/toppers_asp3/lib/armv7aLaiv/GR__\libkernel.a(core_kernel_impl.o)
_kernel_enadsp      0x4               C:/ProgramData/KMC/SOLID/SDK/2.0/solid-os/rtos/toppers_asp3/lib/armv7aLaiv/GR__\libkernel.a(task.o)
memp_memory_UDP_PCB_base
                    0x83              C:/Users/admin/Documents/SOLID-IDE/Projects/cpptest/Release/exeGCC_SOLID/\libnet.a(memp.o)
pbuf_free_ooseq_pending
                    0x1               C:/Users/admin/Documents/SOLID-IDE/Projects/cpptest/Release/exeGCC_SOLID/\libnet.a(pbuf.o)
__kmc_toppers_event_data_size
                    0x4               C:/ProgramData/KMC/SOLID/SDK/2.0/solid-os/core/lib/armv7aLaiv/GR_\libsolid_cs.a(kmc_evttracker_core.o)
g_WDTRegs           0xc               C:/Users/admin/Documents/SOLID-IDE/Projects/cpptest/Release/exeGCC_SOLID/\libbsp.a(bsp_globals.o)
g_SDG2Regs          0xc               C:/Users/admin/Documents/SOLID-IDE/Projects/cpptest/Release/exeGCC_SOLID/\libbsp.a(bsp_globals.o)
g_RSPI4Regs         0xc               C:/Users/admin/Documents/SOLID-IDE/Projects/cpptest/Release/exeGCC_SOLID/\libbsp.a(bsp_globals.o)
g_RSCAN0Regs        0xc               C:/Users/admin/Documents/SOLID-IDE/Projects/cpptest/Release/exeGCC_SOLID/\libbsp.a(bsp_globals.o)
__global_errno      0x4               C:/GCC4/ARM/s002/lib/armv7aLaiv/libc.a(errno.o)
g_IEBRegs           0xc               C:/Users/admin/Documents/SOLID-IDE/Projects/cpptest/Release/exeGCC_SOLID/\libbsp.a(bsp_globals.o)
g_LIN1Regs          0xc               C:/Users/admin/Documents/SOLID-IDE/Projects/cpptest/Release/exeGCC_SOLID/\libbsp.a(bsp_globals.o)
g_GPIORegs          0xc               C:/Users/admin/Documents/SOLID-IDE/Projects/cpptest/Release/exeGCC_SOLID/\libbsp.a(bsp_globals.o)
g_SSIF3Regs         0xc               C:/Users/admin/Documents/SOLID-IDE/Projects/cpptest/Release/exeGCC_SOLID/\libbsp.a(bsp_globals.o)
netconn_aborted     0x1               C:/Users/admin/Documents/SOLID-IDE/Projects/cpptest/Release/exeGCC_SOLID/\libnet.a(api_msg.o)
_dhcp               0x40              C:/Users/admin/Documents/SOLID-IDE/Projects/cpptest/Release/exeGCC_SOLID/\libnet.a(impl_net_stack.o)
g_PFV0Regs          0xc               C:/Users/admin/Documents/SOLID-IDE/Projects/cpptest/Release/exeGCC_SOLID/\libbsp.a(bsp_globals.o)
_kernel_isr_queue_list
                    0x0               C:/Users/admin/Documents/SOLID-IDE/Projects/cpptest/Release/exeGCC_SOLID/cpptest/cpptest_all.o
g_RSPI3Regs         0xc               C:/Users/admin/Documents/SOLID-IDE/Projects/cpptest/Release/exeGCC_SOLID/\libbsp.a(bsp_globals.o)
g_SPIBSC1Regs       0xc               C:/Users/admin/Documents/SOLID-IDE/Projects/cpptest/Release/exeGCC_SOLID/\libbsp.a(bsp_globals.o)
__kmc_eventlog_buffer
                    0x30020           C:/Users/admin/Documents/SOLID-IDE/Projects/cpptest/Release/exeGCC_SOLID/cpptest/cpptest_all.o
_eth_io_base3       0x4               C:/Users/admin/Documents/SOLID-IDE/Projects/cpptest/Release/exeGCC_SOLID/\libbsp.a(impl_net_dev_ether.o)
_kernel_systim_offset
                    0x8               C:/ProgramData/KMC/SOLID/SDK/2.0/solid-os/rtos/toppers_asp3/lib/armv7aLaiv/GR__\libkernel.a(time_event.o)
g_FLCTLRegs         0xc               C:/Users/admin/Documents/SOLID-IDE/Projects/cpptest/Release/exeGCC_SOLID/\libbsp.a(bsp_globals.o)
__kmc_toppers_event_data
                    0x4               C:/ProgramData/KMC/SOLID/SDK/2.0/solid-os/core/lib/armv7aLaiv/GR_\libsolid_cs.a(kmc_evttracker_core.o)
tcp_tw_pcbs         0x4               C:/Users/admin/Documents/SOLID-IDE/Projects/cpptest/Release/exeGCC_SOLID/\libnet.a(tcp.o)
memp_memory_NETCONN_base
                    0xc3              C:/Users/admin/Documents/SOLID-IDE/Projects/cpptest/Release/exeGCC_SOLID/\libnet.a(memp.o)
_kernel_aseminib_table
                    0x0               C:/Users/admin/Documents/SOLID-IDE/Projects/cpptest/Release/exeGCC_SOLID/cpptest/cpptest_all.o
lwip_stats          0x104             C:/Users/admin/Documents/SOLID-IDE/Projects/cpptest/Release/exeGCC_SOLID/\libnet.a(stats.o)
g_DMACRSRegs        0xc               C:/Users/admin/Documents/SOLID-IDE/Projects/cpptest/Release/exeGCC_SOLID/\libbsp.a(bsp_globals.o)
g_RSPI0Regs         0xc               C:/Users/admin/Documents/SOLID-IDE/Projects/cpptest/Release/exeGCC_SOLID/\libbsp.a(bsp_globals.o)
netif_default       0x4               C:/Users/admin/Documents/SOLID-IDE/Projects/cpptest/Release/exeGCC_SOLID/\libnet.a(netif.o)
_vlink_start_fnc    0x4               C:/GCC4/ARM/s002/lib/armv7aLaiv/libc.a(osemu.o)
__sdidinit          0x4               C:/GCC4/ARM/s002/lib/armv7aLaiv/libc.a(findfp.o)
_kernel_acycinib_table
                    0x0               C:/Users/admin/Documents/SOLID-IDE/Projects/cpptest/Release/exeGCC_SOLID/cpptest/cpptest_all.o
dhcp_rx_options_val
                    0x28              C:/Users/admin/Documents/SOLID-IDE/Projects/cpptest/Release/exeGCC_SOLID/\libnet.a(dhcp.o)
memp_memory_TCP_PCB_base
                    0x35f             C:/Users/admin/Documents/SOLID-IDE/Projects/cpptest/Release/exeGCC_SOLID/\libnet.a(memp.o)
memp_memory_SYS_TIMEOUT_base
                    0x63              C:/Users/admin/Documents/SOLID-IDE/Projects/cpptest/Release/exeGCC_SOLID/\libnet.a(memp.o)
_kernel_flgcb_table
                    0x0               C:/Users/admin/Documents/SOLID-IDE/Projects/cpptest/Release/exeGCC_SOLID/cpptest/cpptest_all.o
g_MLBRegs           0xc               C:/Users/admin/Documents/SOLID-IDE/Projects/cpptest/Release/exeGCC_SOLID/\libbsp.a(bsp_globals.o)
ram_heap            0x3e93            C:/Users/admin/Documents/SOLID-IDE/Projects/cpptest/Release/exeGCC_SOLID/\libnet.a(mem.o)
_eth_io_base2       0x4               C:/Users/admin/Documents/SOLID-IDE/Projects/cpptest/Release/exeGCC_SOLID/\libbsp.a(impl_net_dev_ether.o)
g_DMARSRegs         0xc               C:/Users/admin/Documents/SOLID-IDE/Projects/cpptest/Release/exeGCC_SOLID/\libbsp.a(impl_dmac.o)
g_SSIF0Regs         0xc               C:/Users/admin/Documents/SOLID-IDE/Projects/cpptest/Release/exeGCC_SOLID/\libbsp.a(bsp_globals.o)
_net_sys_errno      0x4               C:/Users/admin/Documents/SOLID-IDE/Projects/cpptest/Release/exeGCC_SOLID/\libnet.a(impl_net_stack_errno.o)
g_JCURegs           0xc               C:/Users/admin/Documents/SOLID-IDE/Projects/cpptest/Release/exeGCC_SOLID/\libbsp.a(bsp_globals.o)
sys_mbox_table      0x28              C:/Users/admin/Documents/SOLID-IDE/Projects/cpptest/Release/exeGCC_SOLID/\libnet.a(sys_arch.o)
g_DVDEC0Regs        0xc               C:/Users/admin/Documents/SOLID-IDE/Projects/cpptest/Release/exeGCC_SOLID/\libbsp.a(bsp_globals.o)
g_RSPI1Regs         0xc               C:/Users/admin/Documents/SOLID-IDE/Projects/cpptest/Release/exeGCC_SOLID/\libbsp.a(bsp_globals.o)
_kernel_adtqinib_table
                    0x0               C:/Users/admin/Documents/SOLID-IDE/Projects/cpptest/Release/exeGCC_SOLID/cpptest/cpptest_all.o
g_OSTM0Regs         0xc               C:/Users/admin/Documents/SOLID-IDE/Projects/cpptest/Release/exeGCC_SOLID/\libbsp.a(bsp_globals.o)
_kernel_free_isrcb  0x8               C:/ProgramData/KMC/SOLID/SDK/2.0/solid-os/rtos/toppers_asp3/lib/armv7aLaiv/GR__\libkernel.a(interrupt.o)

Discarded input sections

 .group         0x00000000        0xc C:/ProgramData/KMC/SOLID/SDK/2.0/solid-os/core/lib/armv7aLaiv/GR_\libsolid_cs.a(solid_dmac.o)
 .group         0x00000000        0x8 C:/ProgramData/KMC/SOLID/SDK/2.0/solid-os/core/lib/armv7aLaiv/GR_\libsolid_cs.a(solid_dmac.o)
 .group         0x00000000        0x8 C:/ProgramData/KMC/SOLID/SDK/2.0/solid-os/core/lib/armv7aLaiv/GR_\libsolid_cs.a(solid_dmac.o)
 .group         0x00000000        0x8 C:/ProgramData/KMC/SOLID/SDK/2.0/solid-os/core/lib/armv7aLaiv/GR_\libsolid_cs.a(solid_dmac.o)
 .group         0x00000000        0x8 C:/ProgramData/KMC/SOLID/SDK/2.0/solid-os/core/lib/armv7aLaiv/GR_\libsolid_cs.a(solid_fs_base.o)
 .group         0x00000000        0x8 C:/ProgramData/KMC/SOLID/SDK/2.0/solid-os/core/lib/armv7aLaiv/GR_\libsolid_cs.a(solid_fs_base.o)
 .group         0x00000000        0x8 C:/ProgramData/KMC/SOLID/SDK/2.0/solid-os/core/lib/armv7aLaiv/GR_\libsolid_cs.a(solid_intc.o)
 .group         0x00000000        0xc C:/ProgramData/KMC/SOLID/SDK/2.0/solid-os/core/lib/armv7aLaiv/GR_\libsolid_cs.a(solid_loader.o)
 .group         0x00000000        0x8 C:/ProgramData/KMC/SOLID/SDK/2.0/solid-os/core/lib/armv7aLaiv/GR_\libsolid_cs.a(solid_loader.o)
 .group         0x00000000        0x8 C:/ProgramData/KMC/SOLID/SDK/2.0/solid-os/core/lib/armv7aLaiv/GR_\libsolid_cs.a(solid_loader.o)
 .group         0x00000000        0x8 C:/ProgramData/KMC/SOLID/SDK/2.0/solid-os/core/lib/armv7aLaiv/GR_\libsolid_cs.a(solid_loader.o)
 .group         0x00000000        0x8 C:/ProgramData/KMC/SOLID/SDK/2.0/solid-os/core/lib/armv7aLaiv/GR_\libsolid_cs.a(solid_loader.o)
 .group         0x00000000        0x8 C:/ProgramData/KMC/SOLID/SDK/2.0/solid-os/core/lib/armv7aLaiv/GR_\libsolid_cs.a(solid_loader.o)
 .group         0x00000000        0x8 C:/ProgramData/KMC/SOLID/SDK/2.0/solid-os/core/lib/armv7aLaiv/GR_\libsolid_cs.a(solid_loader.o)
 .group         0x00000000        0x8 C:/ProgramData/KMC/SOLID/SDK/2.0/solid-os/core/lib/armv7aLaiv/GR_\libsolid_cs.a(solid_mem.o)
 .group         0x00000000        0x8 C:/ProgramData/KMC/SOLID/SDK/2.0/solid-os/core/lib/armv7aLaiv/GR_\libsolid_cs.a(solid_mem.o)
 .group         0x00000000        0x8 C:/ProgramData/KMC/SOLID/SDK/2.0/solid-os/core/lib/armv7aLaiv/GR_\libsolid_cs.a(solid_mem.o)
 .group         0x00000000        0xc C:/ProgramData/KMC/SOLID/SDK/2.0/solid-os/core/lib/armv7aLaiv/GR_\libsolid_cs.a(solid_mem.o)
 .group         0x00000000        0xc C:/ProgramData/KMC/SOLID/SDK/2.0/solid-os/core/lib/armv7aLaiv/GR_\libsolid_cs.a(solid_mem.o)
 .group         0x00000000        0x8 C:/ProgramData/KMC/SOLID/SDK/2.0/solid-os/core/lib/armv7aLaiv/GR_\libsolid_cs.a(solid_mem.o)
 .group         0x00000000        0x8 C:/ProgramData/KMC/SOLID/SDK/2.0/solid-os/core/lib/armv7aLaiv/GR_\libsolid_cs.a(solid_mem.o)
 .group         0x00000000        0x8 C:/ProgramData/KMC/SOLID/SDK/2.0/solid-os/core/lib/armv7aLaiv/GR_\libsolid_cs.a(solid_mem.o)
 .group         0x00000000        0x8 C:/ProgramData/KMC/SOLID/SDK/2.0/solid-os/core/lib/armv7aLaiv/GR_\libsolid_cs.a(solid_mem.o)
 .group         0x00000000        0x8 C:/ProgramData/KMC/SOLID/SDK/2.0/solid-os/core/lib/armv7aLaiv/GR_\libsolid_cs.a(solid_mem.o)
 .group         0x00000000        0x8 C:/ProgramData/KMC/SOLID/SDK/2.0/solid-os/core/lib/armv7aLaiv/GR_\libsolid_cs.a(solid_mem.o)
 .group         0x00000000        0x8 C:/ProgramData/KMC/SOLID/SDK/2.0/solid-os/core/lib/armv7aLaiv/GR_\libsolid_cs.a(solid_mem.o)
 .group         0x00000000        0x8 C:/ProgramData/KMC/SOLID/SDK/2.0/solid-os/core/lib/armv7aLaiv/GR_\libsolid_cs.a(solid_mem.o)
 .group         0x00000000        0x8 C:/ProgramData/KMC/SOLID/SDK/2.0/solid-os/core/lib/armv7aLaiv/GR_\libsolid_cs.a(solid_mem.o)
 .group         0x00000000        0x8 C:/ProgramData/KMC/SOLID/SDK/2.0/solid-os/core/lib/armv7aLaiv/GR_\libsolid_cs.a(solid_mem.o)
 .group         0x00000000        0x8 C:/ProgramData/KMC/SOLID/SDK/2.0/solid-os/core/lib/armv7aLaiv/GR_\libsolid_cs.a(solid_mem.o)
 .group         0x00000000        0x8 C:/ProgramData/KMC/SOLID/SDK/2.0/solid-os/core/lib/armv7aLaiv/GR_\libsolid_cs.a(solid_mem.o)
 .group         0x00000000        0x8 C:/ProgramData/KMC/SOLID/SDK/2.0/solid-os/core/lib/armv7aLaiv/GR_\libsolid_cs.a(solid_mem.o)
 .group         0x00000000        0x8 C:/ProgramData/KMC/SOLID/SDK/2.0/solid-os/core/lib/armv7aLaiv/GR_\libsolid_cs.a(solid_timer.o)
 .group         0x00000000        0x8 C:/ProgramData/KMC/SOLID/SDK/2.0/solid-os/core/lib/armv7aLaiv/GR_\libsolid_cs.a(solid_timer.o)
 .gnu.warning.__findenv
                0x00000000        0x0 C:/GCC4/ARM/s002/lib/armv7aLaiv/libc.a(_env.o)

Memory Configuration

Name             Origin             Length             Attributes
*default*        0x00000000         0xffffffff

Linker script and memory map

LOAD C:/Users/admin/Documents/SOLID-IDE/Projects/cpptest/Release/exeGCC_SOLID/cpptest/cpptest_all.o
START GROUP
LOAD C:/ProgramData/KMC/SOLID/SDK/2.0/solid-os/core/lib/armv7aLaiv/GR_\libsolid_cs.a
LOAD C:/Users/admin/Documents/SOLID-IDE/Projects/cpptest/Release/exeGCC_SOLID/\libnet.a
LOAD C:/ProgramData/KMC/SOLID/SDK/2.0/solid-os/rtos/toppers_asp3/lib/armv7aLaiv/GR__\libkernel.a
LOAD C:/Users/admin/Documents/SOLID-IDE/Projects/cpptest/Release/exeGCC_SOLID/\libbsp.a
LOAD C:/Users/admin/Documents/SOLID-IDE/Projects/cpptest/Release/exeGCC_SOLID/\libjcu.a
LOAD C:/Users/admin/Documents/SOLID-IDE/Projects/cpptest/Release/exeGCC_SOLID/\liblcd.a
LOAD C:/Users/admin/Documents/SOLID-IDE/Projects/cpptest/Release/exeGCC_SOLID/\libospl.a
LOAD C:/Users/admin/Documents/SOLID-IDE/Projects/cpptest/Release/exeGCC_SOLID/\libriic.a
LOAD C:/Users/admin/Documents/SOLID-IDE/Projects/cpptest/Release/exeGCC_SOLID/\libvdc5.a
END GROUP
LOAD C:/GCC4/ARM/s002/lib/armv7aLaiv\libstdc++.a
LOAD C:/GCC4/ARM/s002/lib/armv7aLaiv\libm.a
START GROUP
LOAD C:/GCC4/ARM/s002/lib/armv7aLaiv/libgcc.a
LOAD C:/GCC4/ARM/s002/lib/armv7aLaiv/libc.a
END GROUP
                0xf8000000                _smm_AddressSanitizer_MonitoringAddress = 0xf8000000
                0x00800000                _smm_AddressSanitizer_MonitoringSize = 0x800000
                0x20600000                _smm_AddressSanitizer_ShadowMemoryPhysicalAddress = 0x20600000
                0x40000000                _smm_AddressSanitizer_ShadowMemoryVirtualAddress = 0x40000000
                0x21000000                _smm_AddressSanitizer_ShadowMemoryOffset = 0x21000000
                0x20100000                _smm_RAM_PhysicalAddress = 0x20100000
                0x00180000                _smm_RAM_Size = 0x180000
                0x20280000                _smm_TRACE_POINT_PhysicalAddress = 0x20280000
                0xf5000000                _smm_TRACE_POINT_VirtualAddress = 0xf5000000
                0x00100000                _smm_TRACE_POINT_Size = 0x100000
                0x20380000                _smm_JPEG_PhysicalAddress = 0x20380000
                0xf6000000                _smm_JPEG_VirtualAddress = 0xf6000000
                0x00018000                _smm_JPEG_Size = 0x18000
                0x20398000                _smm_JPEG_READ_BUF_PhysicalAddress = 0x20398000
                0xf6018000                _smm_JPEG_READ_BUF_VirtualAddress = 0xf6018000
                0x000e8000                _smm_JPEG_READ_BUF_Size = 0xe8000
                0x20480000                _smm_FRAME_PhysicalAddress = 0x20480000
                0xf6100000                _smm_FRAME_VirtualAddress = 0xf6100000
                0x00180000                _smm_FRAME_Size = 0x180000
                0x20700000                _smm_MEMFS_PhysicalAddress = 0x20700000
                0xf7000000                _smm_MEMFS_VirtualAddress = 0xf7000000
                0x00100000                _smm_MEMFS_Size = 0x100000
                0x20800000                _smm_SOLID_PhysicalAddress = 0x20800000
                0xf8000000                _smm_SOLID_VirtualAddress = 0xf8000000
                0x00200000                _smm_SOLID_Size = 0x200000
                0xe8000000                _smm_SLV3_PhysicalAddress = 0xe8000000
                0xf0000000                _smm_SLV3_VirtualAddress = 0xf0000000
                0x00020000                _smm_SLV3_Size = 0x20000
                0xe8030000                _smm_SLV2_PhysicalAddress = 0xe8030000
                0xf0030000                _smm_SLV2_VirtualAddress = 0xf0030000
                0x00020000                _smm_SLV2_Size = 0x20000
                0xe8100000                _smm_SLV5_PhysicalAddress = 0xe8100000
                0xf0100000                _smm_SLV5_VirtualAddress = 0xf0100000
                0x00040000                _smm_SLV5_Size = 0x40000
                0xe8200000                _smm_SLV4_PhysicalAddress = 0xe8200000
                0xf0200000                _smm_SLV4_VirtualAddress = 0xf0200000
                0x00015800                _smm_SLV4_Size = 0x15800
                0xf0000000                _smm_CA9_PhysicalAddress = 0xf0000000
                0xf1000000                _smm_CA9_VirtualAddress = 0xf1000000
                0x00002000                _smm_CA9_Size = 0x2000
                0xfc000000                _smm_SLV6_PhysicalAddress = 0xfc000000
                0xf1100000                _smm_SLV6_VirtualAddress = 0xf1100000
                0x00080000                _smm_SLV6_Size = 0x80000
                0xfcfe0000                _smm_SLV1_PhysicalAddress = 0xfcfe0000
                0xf1200000                _smm_SLV1_VirtualAddress = 0xf1200000
                0x00010000                _smm_SLV1_Size = 0x10000
                0xfcff0000                _smm_SLV0_PhysicalAddress = 0xfcff0000
                0xf1210000                _smm_SLV0_VirtualAddress = 0xf1210000
                0x00010000                _smm_SLV0_Size = 0x10000
                0xfa000000                _smm_IOAREA_VirtualAddress = 0xfa000000
                0x01000000                _smm_IOAREA_Size = 0x1000000
                0xf8300000                _smm_OSSTACK_VirtualAddress = 0xf8300000
                0x00300000                _smm_OSSTACK_Size = 0x300000
                0xf8700000                _smm_SOLID_HEAP_VirtualAddress = 0xf8700000
                0x00080000                _smm_SOLID_HEAP_Size = 0x80000
                0xf8000000                . = _smm_SOLID_VirtualAddress
                0xf8000000                _solid_start = .
                0xf8010000                . = (. + 0x10000)

.text           0xf8010000    0x43b50
                0xf8010000                _solid_text_start = .
 *(.head)
 .head          0xf8010000       0xa0 C:/ProgramData/KMC/SOLID/SDK/2.0/solid-os/core/lib/armv7aLaiv/GR_\libsolid_cs.a(solid_cs_asm.o)
                0xf8010000                solid_header
 *(.solid_vector)
 .solid_vector  0xf80100a0      0x1f4 C:/ProgramData/KMC/SOLID/SDK/2.0/solid-os/core/lib/armv7aLaiv/GR_\libsolid_cs.a(solid_cs_asm.o)
                0xf80100a0                solid_vector
                0xf801028c                exit
 *(.text .stub .text.* .gnu.linkonce.t.*)
 .text          0xf8010294       0x68 C:/Users/admin/Documents/SOLID-IDE/Projects/cpptest/Release/exeGCC_SOLID/cpptest/cpptest_all.o
                0xf8010294                IMPL_MEM_GetConfig
                0xf80102ac                _Z10hello_taski
                0xf80102b0                _kernel_call_inirtn
                0xf80102cc                _kernel_call_terrtn
                0xf80102d0                root_task
 .text          0xf80102fc       0x90 C:/ProgramData/KMC/SOLID/SDK/2.0/solid-os/core/lib/armv7aLaiv/GR_\libsolid_cs.a(solid_cs_asm.o)
                0xf80102fc                solid_start
 .text          0xf801038c      0x230 C:/ProgramData/KMC/SOLID/SDK/2.0/solid-os/core/lib/armv7aLaiv/GR_\libsolid_cs.a(solid_cs_main.o)
                0xf801038c                _kmc_cpp_ctors
                0xf80103bc                _kmc_cpp_dtors
                0xf8010430                solid_cs_main
 .text          0xf80105bc        0x4 C:/ProgramData/KMC/SOLID/SDK/2.0/solid-os/core/lib/armv7aLaiv/GR_\libsolid_cs.a(kmc_trace_mem_dummy.o)
                0xf80105bc                SOLID_kmc_trace_init
 .text          0xf80105c0      0x1d8 C:/ProgramData/KMC/SOLID/SDK/2.0/solid-os/core/lib/armv7aLaiv/GR_\libsolid_cs.a(solid_cs_event.o)
                0xf80105c0                SOLID_CS_EventNotify
                0xf8010714                SOLID_CS_InitError
 .text          0xf8010798       0x84 C:/ProgramData/KMC/SOLID/SDK/2.0/solid-os/core/lib/armv7aLaiv/GR_\libsolid_cs.a(solid_debugger.o)
                0xf80107e0                SOLID_DBG_IsInDebugger
                0xf80107ec                SOLID_DBG_EventNotify
 .text          0xf801081c      0xd60 C:/ProgramData/KMC/SOLID/SDK/2.0/solid-os/core/lib/armv7aLaiv/GR_\libsolid_cs.a(solid_dmac.o)
                0xf801081c                _ZN3kmg5solid4dmac7Channel4InitEi
                0xf8010844                _ZN3kmg5solid4dmac7Channel11GetBufStateEPi
                0xf801085c                _ZN3kmg5solid4dmac7Channel11SetBufStateEi
                0xf8010870                _ZN3kmg5solid4dmac7Channel14AddTransactionEP24_SOLID_DMAC_TRANSACTION_
                0xf80109a4                _ZN3kmg5solid4dmac7Channel14GetTransactionEPP24_SOLID_DMAC_TRANSACTION_
                0xf80109bc                _ZN3kmg5solid4dmac7Channel16ClearTransactionEv
                0xf8010a5c                _ZN3kmg5solid4dmac7ChannelD2Ev
                0xf8010a5c                _ZN3kmg5solid4dmac7ChannelD1Ev
                0xf8010a70                _ZN3kmg5solid4dmac7Channel5AllocEv
                0xf8010af0                _ZN3kmg5solid4dmac7Channel4FreeEv
                0xf8010b80                _ZN3kmg5solid4dmac7Channel5AbortEv
                0xf8010bf4                _ZN3kmg5solid4dmac7Channel11SetCallbackEPFvPviiP24_SOLID_DMAC_TRANSACTION_ES3_
                0xf8010c18                _ZN3kmg5solid4dmac7Channel6NotifyEi
                0xf8010e50                _ZN3kmg5solid4dmac7Channel5TrashEP24_SOLID_DMAC_TRANSACTION_
                0xf8010e80                _ZN3kmg5solid4dmac7Channel10ClearTrashEv
                0xf8010eac                _ZN3kmg5solid4dmac10Controller4InitEv
                0xf8010f70                _ZN3kmg5solid4dmac10Controller7GetInfoEv
                0xf8010f84                _ZN3kmg5solid4dmac10Controller10GetChannelEi
                0xf8010fb0                SOLID_DMAC_Init
                0xf8010fbc                SOLID_DMAC_GetInfo
                0xf8010ffc                SOLID_DMAC_Alloc
                0xf8011034                SOLID_DMAC_Free
                0xf801106c                SOLID_DMAC_SetBufState
                0xf80110b4                SOLID_DMAC_GetBufState
                0xf8011108                SOLID_DMAC_AddTransaction
                0xf8011158                SOLID_DMAC_GetTransaction
                0xf80111bc                SOLID_DMAC_ClearTransaction
                0xf801120c                SOLID_DMAC_Abort
                0xf801125c                SOLID_DMAC_IsFinished
                0xf80112bc                SOLID_DMAC_SetCallback
                0xf8011330                SOLID_DMAC_Notify
                0xf8011360                SOLID_DMAC_GetConfigIdx
                0xf8011378                SOLID_DMAC_MaintBuffer
                0xf8011444                _ZN3kmg5solid4dmac7Channel5StartEv
                0xf801152c                SOLID_DMAC_Start
 .text._ZN3kmg5solid4dmac10ControllerD2Ev
                0xf801157c        0x4 C:/ProgramData/KMC/SOLID/SDK/2.0/solid-os/core/lib/armv7aLaiv/GR_\libsolid_cs.a(solid_dmac.o)
                0xf801157c                _ZN3kmg5solid4dmac10ControllerD1Ev
                0xf801157c                _ZN3kmg5solid4dmac10ControllerD2Ev
 .text._ZN3kmg5solid4dmac10ControllerD0Ev
                0xf8011580       0x18 C:/ProgramData/KMC/SOLID/SDK/2.0/solid-os/core/lib/armv7aLaiv/GR_\libsolid_cs.a(solid_dmac.o)
                0xf8011580                _ZN3kmg5solid4dmac10ControllerD0Ev
 .text.startup  0xf8011598       0x2c C:/ProgramData/KMC/SOLID/SDK/2.0/solid-os/core/lib/armv7aLaiv/GR_\libsolid_cs.a(solid_dmac.o)
 .text          0xf80115c4      0x18c C:/ProgramData/KMC/SOLID/SDK/2.0/solid-os/core/lib/armv7aLaiv/GR_\libsolid_cs.a(solid_exception.o)
                0xf8011700                SOLID_Exception_Init
                0xf8011740                SOLID_Register_Stack_Check
 .text          0xf8011750     0x101c C:/ProgramData/KMC/SOLID/SDK/2.0/solid-os/core/lib/armv7aLaiv/GR_\libsolid_cs.a(solid_fs_base.o)
                0xf8011750                _ZN5solid2fs14sysfs_closedirEPv
                0xf801176c                _ZN5solid2fs13sysfs_opendirEPKcPPv
                0xf8011810                _ZN5solid2fs7FileSys4InitEv
                0xf801181c                _ZN5solid2fs7FileSys8RegisterEP18_SOLID_FS_HANDLER_
                0xf80118e0                _ZN5solid2fs7FileSys10UnRegisterEP18_SOLID_FS_HANDLER_
                0xf801195c                _ZN5solid2fs7FileSys11FindHandlerEPKc
                0xf80119a0                _ZN5solid2fs7FileSys11EnumHandlerEPKcP18_SOLID_FS_HANDLER_
                0xf80119f8                _ZN5solid2fs13sysfs_readdirEPvP6dirent
                0xf8011aa4                _ZN5solid2fs10sysfs_InitEv
                0xf8011b24                _ZN5solid2fs11DescStocker4InitEv
                0xf8011b30                _ZN5solid2fs11DescStocker9AllocDescEi
                0xf8011b68                _ZN5solid2fs11DescStocker8FreeDescEi
                0xf8011b8c                _ZN5solid2fs11DescStocker7GetDescEi
                0xf8011b9c                SOLID_FS_Init
                0xf8011bc8                SOLID_FS_Register
                0xf8011bd8                SOLID_FS_UnRegister
                0xf8011c60                SOLID_FS_Close
                0xf8011cf0                SOLID_FS_Read
                0xf8011d8c                SOLID_FS_Write
                0xf8011e28                SOLID_FS_Lseek
                0xf8011fa0                SOLID_FS_Open
                0xf80120f4                SOLID_FS_Sync
                0xf801214c                SOLID_FS_Ftell
                0xf80121ac                SOLID_FS_Feof
                0xf801220c                SOLID_FS_Fsize
                0xf801226c                SOLID_FS_Truncate
                0xf80122d8                SOLID_FS_OpenDir
                0xf80123d8                SOLID_FS_CloseDir
                0xf8012468                SOLID_FS_ReadDir
                0xf80124c8                SOLID_FS_Stat
                0xf8012534                SOLID_FS_Unlink
                0xf8012590                SOLID_FS_Rename
                0xf8012640                SOLID_FS_Chmod
                0xf80126a4                SOLID_FS_Utime
                0xf8012710                SOLID_FS_Mkdir
 .text._ZN5solid2fs7FileSysD2Ev
                0xf801276c        0x4 C:/ProgramData/KMC/SOLID/SDK/2.0/solid-os/core/lib/armv7aLaiv/GR_\libsolid_cs.a(solid_fs_base.o)
                0xf801276c                _ZN5solid2fs7FileSysD2Ev
                0xf801276c                _ZN5solid2fs7FileSysD1Ev
 .text._ZN5solid2fs11DescStockerD2Ev
                0xf8012770        0x4 C:/ProgramData/KMC/SOLID/SDK/2.0/solid-os/core/lib/armv7aLaiv/GR_\libsolid_cs.a(solid_fs_base.o)
                0xf8012770                _ZN5solid2fs11DescStockerD1Ev
                0xf8012770                _ZN5solid2fs11DescStockerD2Ev
 .text.startup  0xf8012774       0x40 C:/ProgramData/KMC/SOLID/SDK/2.0/solid-os/core/lib/armv7aLaiv/GR_\libsolid_cs.a(solid_fs_base.o)
 .text          0xf80127b4      0x264 C:/ProgramData/KMC/SOLID/SDK/2.0/solid-os/core/lib/armv7aLaiv/GR_\libsolid_cs.a(solid_fs_mem.o)
                0xf8012970                SOLID_FS_MEM_Init
 .text          0xf8012a18      0x3bc C:/ProgramData/KMC/SOLID/SDK/2.0/solid-os/core/lib/armv7aLaiv/GR_\libsolid_cs.a(solid_fs_vlink.o)
                0xf8012cfc                SOLID_FS_VLink_Init
 .text          0xf8012dd4     0x1408 C:/ProgramData/KMC/SOLID/SDK/2.0/solid-os/core/lib/armv7aLaiv/GR_\libsolid_cs.a(solid_intc.o)
                0xf8012dd4                MyIntCallBack
                0xf8012e80                _ZN3kmg5solid19InterruptController7CheckIOEv
                0xf8012f00                _ZN3kmg5solid19InterruptController4InitEv
                0xf8013198                _ZN3kmg5solid19InterruptController10GetArchVerEv
                0xf80131a8                _ZN3kmg5solid19InterruptController6EnableEb
                0xf80131e0                _ZN3kmg5solid19InterruptController15SetPriorityMaskEi
                0xf80131f4                _ZN3kmg5solid19InterruptController15GetPriorityMaskEv
                0xf8013200                _ZN3kmg5solid19InterruptController8RegisterEP20_SOLID_INTC_HANDLER_i
                0xf801331c                _ZN3kmg5solid19InterruptController8RegisterEP20_SOLID_INTC_HANDLER_
                0xf8013324                _ZN3kmg5solid19InterruptController10UnRegisterEP20_SOLID_INTC_HANDLER_
                0xf80133a8                _ZN3kmg5solid19InterruptController7CallSGIEim
                0xf80133e0                _ZN3kmg5solid19InterruptController10ProcessIrqEP19_SOLID_CPU_CONTEXT_
                0xf801349c                _ZN3kmg5solid19InterruptController9NotifyIrqEPvP19_SOLID_CPU_CONTEXT_
                0xf80134ac                _ZN3kmg5solid19InterruptController9EnableIntEi
                0xf80134e8                _ZN3kmg5solid19InterruptController10DisableIntEi
                0xf8013524                _ZN3kmg5solid19InterruptController11SetPriorityEii
                0xf801358c                _ZN3kmg5solid19InterruptController11GetPriorityEiPi
                0xf80135e8                _ZN3kmg5solid19InterruptController15SetPriorityImplEii
                0xf8013600                _ZN3kmg5solid19InterruptController15GetPriorityImplEi
                0xf8013610                _ZN3kmg5solid19InterruptController16SetTargetProcessEic
                0xf801364c                _ZN3kmg5solid19InterruptController16GetTargetProcessEiPc
                0xf8013694                _ZN3kmg5solid19InterruptController20SetTargetProcessImplEii
                0xf80136ac                _ZN3kmg5solid19InterruptController20GetTargetProcessImplEi
                0xf80136bc                _ZN3kmg5solid19InterruptController6SetBPREi
                0xf80136cc                _ZN3kmg5solid19InterruptController6GetBPREv
                0xf80136d8                _ZN3kmg5solid19InterruptController9SetConfigEii
                0xf801374c                _ZN3kmg5solid19InterruptController9GetConfigEiPi
                0xf80137b8                _ZN3kmg5solid19InterruptController13SetConfigImplEii
                0xf8013808                _ZN3kmg5solid19InterruptController13GetConfigImplEi
                0xf8013844                _ZN3kmg5solid19InterruptController9IsEnabledEi
                0xf801387c                _ZN3kmg5solid19InterruptController9IsPendingEi
                0xf80138b4                _ZN3kmg5solid19InterruptController8IsActiveEi
                0xf80138ec                _ZN3kmg5solid19InterruptController7DisableEi
                0xf8013968                _ZN3kmg5solid19InterruptController6EnableEi
                0xf80139e4                _ZN3kmg5solid19InterruptController9GetStatusEiPm
                0xf8013a94                _ZN3kmg5solid19InterruptController7SetHookEP17_SOLID_INTC_HOOK_S3_
                0xf8013aa8                _ZN3kmg5solid19InterruptController12ClearPendingEi
                0xf8013b08                SOLID_INTC_Init
                0xf8013b14                SOLID_INTC_Register
                0xf8013b28                SOLID_INTC_UnRegister
                0xf8013bb0                SOLID_INTC_CallSGI
                0xf8013bf0                SOLID_INTC_Disable
                0xf8013c78                SOLID_INTC_Enable
                0xf8013d00                SOLID_INTC_GetStatus
                0xf8013d14                SOLID_INTC_SetPriorityMask
                0xf8013d40                SOLID_INTC_GetPriorityMask
                0xf8013d60                SOLID_INTC_GetPriorityLevel
                0xf8013d70                SOLID_INTC_GetMinIntNo
                0xf8013d80                SOLID_INTC_GetMaxIntNo
                0xf8013d90                SOLID_INTC_GetIntPriority
                0xf8013df4                SOLID_INTC_SetIntPriority
                0xf8013e60                SOLID_INTC_GetIntConfig
                0xf8013ed0                SOLID_INTC_SetIntConfig
                0xf8013f4c                SOLID_INTC_ClearPending
                0xf8013f5c                SOLID_INTC_SetHook
                0xf8013f74                test_unlock_cpu
                0xf8013f84                test_restore_cpu
                0xf8013f8c                SOLID_INTC_Test
 .text._ZN3kmg5solid19InterruptControllerD2Ev
                0xf80141dc        0x4 C:/ProgramData/KMC/SOLID/SDK/2.0/solid-os/core/lib/armv7aLaiv/GR_\libsolid_cs.a(solid_intc.o)
                0xf80141dc                _ZN3kmg5solid19InterruptControllerD2Ev
                0xf80141dc                _ZN3kmg5solid19InterruptControllerD1Ev
 .text.startup  0xf80141e0       0x1c C:/ProgramData/KMC/SOLID/SDK/2.0/solid-os/core/lib/armv7aLaiv/GR_\libsolid_cs.a(solid_intc.o)
 .text          0xf80141fc      0x718 C:/ProgramData/KMC/SOLID/SDK/2.0/solid-os/core/lib/armv7aLaiv/GR_\libsolid_cs.a(solid_iores.o)
                0xf80141fc                _ZN3kmg5solid5iores9IOManagerD1Ev
                0xf80141fc                _ZN3kmg5solid5iores9IOManagerD2Ev
                0xf8014258                _ZN3kmg5solid5iores9IOManagerD0Ev
                0xf8014278                _ZN3kmg5solid5iores9IOManagerC1Ev
                0xf8014278                _ZN3kmg5solid5iores9IOManagerC2Ev
                0xf8014288                _ZN3kmg5solid5iores9IOManager4InitEv
                0xf80142c8                _ZN3kmg5solid5iores9IOManager8FindNodeEPKc
                0xf8014374                _ZN3kmg5solid5iores9IOManager7FindMapEmjb
                0xf801451c                _ZN3kmg5solid5iores9IOManager8RegisterEP21_SOLID_IORES_REGINFO_b
                0xf801461c                _ZN3kmg5solid5iores9IOManager3UseEPKc
                0xf80146d0                _ZN3kmg5solid5iores9IOManager5UnuseEPKc
                0xf801472c                _ZN3kmg5solid5iores9IOManager9CheckInfoEPKc
                0xf8014740                _ZN3kmg5solid5iores9IOManager7GetInfoEPKcP18_SOLID_IORES_INFO_
                0xf80147d4                _ZN3kmg5solid5iores9IOManager8CalcHashEPKc
                0xf8014814                SOLID_IORES_Init
                0xf80148ac                SOLID_IORES_Register
                0xf80148c0                SOLID_IORES_CheckInfo
                0xf80148e0                SOLID_IORES_Use
                0xf80148f0                SOLID_IORES_Unuse
                0xf8014900                SOLID_IORES_GetInfo
 .text.startup  0xf8014914       0x2c C:/ProgramData/KMC/SOLID/SDK/2.0/solid-os/core/lib/armv7aLaiv/GR_\libsolid_cs.a(solid_iores.o)
 .text          0xf8014940     0x262c C:/ProgramData/KMC/SOLID/SDK/2.0/solid-os/core/lib/armv7aLaiv/GR_\libsolid_cs.a(solid_loader.o)
                0xf8014940                _ZN3kmg5solid3elf7SectionD1Ev
                0xf8014940                _ZN3kmg5solid3elf7SectionD2Ev
                0xf8014944                _ZN3kmg5solid3elf7SegmentD2Ev
                0xf8014944                _ZN3kmg5solid3elf7SegmentD1Ev
                0xf8014948                _ZN3kmg5solid3elf12RelocateInfoD1Ev
                0xf8014948                _ZN3kmg5solid3elf12RelocateInfoD2Ev
                0xf8014980                _ZN3kmg5solid3elf7SectionD0Ev
                0xf80149a4                _ZN3kmg5solid3elf7SegmentD0Ev
                0xf80149c8                _ZN3kmg5solid3elf12RelocateInfoD0Ev
                0xf8014a0c                _ZN3kmg5solid3elf9ELFObjectD2Ev
                0xf8014a0c                _ZN3kmg5solid3elf9ELFObjectD1Ev
                0xf8014aac                _ZN3kmg5solid3elf9ELFObjectD0Ev
                0xf8014ad4                _ZN3kmg5solid3elf6SymbolD0Ev
                0xf8014bdc                _ZN3kmg5solid3elf6SymbolD2Ev
                0xf8014bdc                _ZN3kmg5solid3elf6SymbolD1Ev
                0xf8014c20                _ZN3kmg5solid3elf8InitHeapEv
                0xf8014c48                _ZN3kmg5solid3elf15DuplicateStringEPKc
                0xf8014ca0                _ZN3kmg5solid3elf10FreeStringEPKc
                0xf8014cb8                _ZNK3kmg5solid3elf10LinkObject7GetNextEv
                0xf8014cc0                _ZN3kmg5solid3elf10LinkObject7GetFromEi
                0xf8014cec                _ZN3kmg5solid3elf10LinkObject7AddTailEPS2_
                0xf8014d08                _ZN3kmg5solid3elf10LinkObject6RemoveEPS2_
                0xf8014d2c                _ZN3kmg5solid3elf7SectionC1EPNS1_9ELFObjectE
                0xf8014d2c                _ZN3kmg5solid3elf7SectionC2EPNS1_9ELFObjectE
                0xf8014d4c                _ZN3kmg5solid3elf7Section4ReadEij
                0xf8014dc0                _ZN3kmg5solid3elf7Section10SetMemAttrEv
                0xf8014e34                _ZN3kmg5solid3elf7Section10GetMemAttrEv
                0xf8014e6c                _ZN3kmg5solid3elf7Section10GetAlignedERmRj
                0xf8014ebc                _ZN3kmg5solid3elf7Section6UnloadEv
                0xf8014ee0                _ZN3kmg5solid3elf7Section12ReadFileDataEimPvj
                0xf8014f8c                _ZN3kmg5solid3elf7Section8GetEntryEimPv
                0xf8014fac                _ZN3kmg5solid3elf7Section10ReadStringEimPvj
                0xf8014fe0                _ZN3kmg5solid3elf7Section9IsInSpaceEm
                0xf8015018                _ZN3kmg5solid3elf7SegmentC2EPNS1_9ELFObjectE
                0xf8015018                _ZN3kmg5solid3elf7SegmentC1EPNS1_9ELFObjectE
                0xf8015038                _ZN3kmg5solid3elf7Segment4ReadEij
                0xf80150ac                _ZN3kmg5solid3elf7Segment4LoadEi
                0xf80151d4                _ZN3kmg5solid3elf7Segment6UnloadEv
                0xf80151f8                _ZN3kmg5solid3elf7Segment10GetMemAttrEv
                0xf8015210                _ZN3kmg5solid3elf7Segment10GetAlignedERmRj
                0xf8015254                _ZN3kmg5solid3elf9ELFObjectC2EPKc
                0xf8015254                _ZN3kmg5solid3elf9ELFObjectC1EPKc
                0xf8015298                _ZNK3kmg5solid3elf9ELFObject7GetNameEv
                0xf80152a0                _ZNK3kmg5solid3elf9ELFObject7GetPathEv
                0xf80152a8                _ZNK3kmg5solid3elf9ELFObject10GetObjPathEv
                0xf80152bc                _ZN3kmg5solid3elf9ELFObject6UnloadEv
                0xf8015354                _ZN3kmg5solid3elf9ELFObject10SetMemAttrEv
                0xf8015388                _ZN3kmg5solid3elf9ELFObject10GetSectionEi
                0xf80153c0                _ZN3kmg5solid3elf9ELFObject20RegisterRelocateInfoEPNS1_12RelocateInfoE
                0xf80153e0                _ZN3kmg5solid3elf9ELFObject7CanExecEPm
                0xf8015430                _ZN3kmg5solid3elf9ELFObject18GetUnresolvedCountEv
                0xf801545c                _ZN3kmg5solid3elf9ELFObject13IsSameSectionEmm
                0xf80154c4                _ZN3kmg5solid3elf9ELFObject10NotifyNoteEPKcm
                0xf80154f0                _ZN3kmg5solid3elf9ELFObject10NotifyNoteEPKcS4_
                0xf8015528                _ZN3kmg5solid3elf7Section4LoadEi
                0xf801575c                _ZN3kmg5solid3elf9ELFObject22CheckOverlappedSectionEv
                0xf80158ac                _ZN3kmg5solid3elf9ELFObject22CheckOverlappedSegmentEv
                0xf80159c0                _ZN3kmg5solid3elf11LoadManager4InitEv
                0xf80159cc                _ZN3kmg5solid3elf11LoadManager6UnLoadEPKc
                0xf8015ae4                _ZN3kmg5solid3elf11LoadManager7CanExecEPKcPm
                0xf8015b48                _ZN3kmg5solid3elf11LoadManager15CheckUnresolvedEv
                0xf8015bac                _ZN3kmg5solid3elf11LoadManager10FindObjectEPKc
                0xf8015bec                _ZN3kmg5solid3elf12RelocateInfoC2EiimPKc
                0xf8015bec                _ZN3kmg5solid3elf12RelocateInfoC1EiimPKc
                0xf8015c28                _ZN3kmg5solid3elf12RelocateInfo14CheckVeneerARMEmPNS1_9ELFObjectEi
                0xf8015c88                _ZN3kmg5solid3elf12RelocateInfo17CheckVeneerThumb2EmPNS1_9ELFObjectEi
                0xf8015d30                _ZN3kmg5solid3elf12RelocateInfo10DoRelocateEmPNS1_9ELFObjectE
                0xf8015fdc                _ZN3kmg5solid3elf6SymbolC1EPKcmb
                0xf8015fdc                _ZN3kmg5solid3elf6SymbolC2EPKcmb
                0xf8016070                _ZN3kmg5solid3elf6Symbol11CheckNotifyEv
                0xf801608c                _ZN3kmg5solid3elf6Symbol8CalcHashEPKc
                0xf80160cc                _ZN3kmg5solid3elf13SymbolManager4InitEv
                0xf80160d8                _ZN3kmg5solid3elf13SymbolManager10FindSymbolEPKc
                0xf8016168                _ZN3kmg5solid3elf13SymbolManager7GetAddrEPKcPmPb
                0xf80161d4                _ZN3kmg5solid3elf9ELFObject21CheckUnresolvedSymbolEv
                0xf8016304                _ZN3kmg5solid3elf11LoadManager21CheckUnresolvedSymbolEv
                0xf801632c                _ZN3kmg5solid3elf7Section8DoImportEi
                0xf80166d0                _ZN3kmg5solid3elf13SymbolManager9AddSymbolEPKcmb
                0xf80168a4                _ZN3kmg5solid3elf7Section8DoExportEi
                0xf80168bc                _ZN3kmg5solid3elf9ELFObject4LoadEPKc
                0xf8016c0c                _ZN3kmg5solid3elf11LoadManager4LoadEPKcS4_
                0xf8016d80                _ZN3kmg5solid3elf13SymbolManager9DelSymbolEPKc
                0xf8016e14                SOLID_LDR_Init
                0xf8016e58                SOLID_LDR_GetAddr
                0xf8016eb0                SOLID_LDR_LoadFile
                0xf8016ec4                SOLID_LDR_CanExec
                0xf8016ed8                SOLID_LDR_UnLoad
                0xf8016ee8                SOLID_LDR_RegisterSymbol
                0xf8016f00                SOLID_LDR_CheckUnresolved
 .text._ZN3kmg5solid3elf11LoadManagerD2Ev
                0xf8016f6c        0x4 C:/ProgramData/KMC/SOLID/SDK/2.0/solid-os/core/lib/armv7aLaiv/GR_\libsolid_cs.a(solid_loader.o)
                0xf8016f6c                _ZN3kmg5solid3elf11LoadManagerD2Ev
                0xf8016f6c                _ZN3kmg5solid3elf11LoadManagerD1Ev
 .text._ZN3kmg5solid3elf13SymbolManagerD2Ev
                0xf8016f70        0x4 C:/ProgramData/KMC/SOLID/SDK/2.0/solid-os/core/lib/armv7aLaiv/GR_\libsolid_cs.a(solid_loader.o)
                0xf8016f70                _ZN3kmg5solid3elf13SymbolManagerD1Ev
                0xf8016f70                _ZN3kmg5solid3elf13SymbolManagerD2Ev
 .text._ZN3kmg5solid3elf11LoadManagerD0Ev
                0xf8016f74       0x18 C:/ProgramData/KMC/SOLID/SDK/2.0/solid-os/core/lib/armv7aLaiv/GR_\libsolid_cs.a(solid_loader.o)
                0xf8016f74                _ZN3kmg5solid3elf11LoadManagerD0Ev
 .text.startup  0xf8016f8c       0x4c C:/ProgramData/KMC/SOLID/SDK/2.0/solid-os/core/lib/armv7aLaiv/GR_\libsolid_cs.a(solid_loader.o)
 .text          0xf8016fd8       0x30 C:/ProgramData/KMC/SOLID/SDK/2.0/solid-os/core/lib/armv7aLaiv/GR_\libsolid_cs.a(solid_loader_fixed.o)
                0xf8016fd8                SOLID_LDR_FixedSymbol_Init
 .text          0xf8017008      0x264 C:/ProgramData/KMC/SOLID/SDK/2.0/solid-os/core/lib/armv7aLaiv/GR_\libsolid_cs.a(solid_log.o)
                0xf8017098                SOLID_LOG_SetMode
                0xf8017144                SOLID_LOG_Init
                0xf8017160                SOLID_LOG_PutChar
                0xf8017190                SOLID_LOG_puts
                0xf80171c0                SOLID_LOG_write
                0xf80171e0                SOLID_LOG_vprintf
                0xf8017240                SOLID_LOG_printf
 .text          0xf801726c      0x4d8 C:/ProgramData/KMC/SOLID/SDK/2.0/solid-os/core/lib/armv7aLaiv/GR_\libsolid_cs.a(solid_malloc.o)
                0xf8017288                SOLID_init_memory_pool
                0xf8017320                SOLID_malloc
                0xf801736c                SOLID_free
                0xf80173a4                SOLID_realloc
                0xf80173f8                SOLID_calloc
                0xf801744c                SOLID_mallinfo
                0xf8017520                SOLID_heap_create
                0xf8017560                SOLID_heap_destroy
                0xf801758c                SOLID_heap_alloc
                0xf80175d8                SOLID_heap_align
                0xf8017640                SOLID_heap_free
                0xf8017680                SOLID_heap_mallinfo
 .text          0xf8017744     0x1334 C:/ProgramData/KMC/SOLID/SDK/2.0/solid-os/core/lib/armv7aLaiv/GR_\libsolid_cs.a(solid_mem.o)
                0xf8017798                _ZN3kmg5solid7Align4KERmRj
                0xf80177dc                _ZN3kmg5solid9MemoryMap4InitEv
                0xf801781c                _ZN3kmg5solid9MemoryMap9AllocAreaEmPKcb
                0xf8017a00                _ZN3kmg5solid9MemoryMap13ReserveVAAreaEmjPKc
                0xf8017a80                _ZN3kmg5solid9MemoryMap11GetAreaInfoEPKcRmRj
                0xf8017b04                _ZN3kmg5solid9MemoryMap8FindAreaEmPPKc
                0xf8017b84                _ZN3kmg5solid9MemoryMap9FindPAIdxEPKc
                0xf8017be0                _ZN3kmg5solid9MemoryMap9FindVAIdxEPKc
                0xf8017c40                SOLID_MEM_Init_L2C
                0xf8017c4c                SOLID_MEM_IsFlat
                0xf8017cdc                SOLID_MEM_Map
                0xf8017d0c                SOLID_MEM_Unmap
                0xf8017d24                SOLID_MEM_IsValid
                0xf8017d40                SOLID_MEM_VA2PA
                0xf8017d60                SOLID_MEM_GetAttr
                0xf8017d80                SOLID_MEM_SetAttr
                0xf8017d98                SOLID_MEM_GetAddress
                0xf8017db0                SOLID_MEM_GetAreaName
                0xf8017e3c                SOLID_MEM_CACHE_InvalidateCode
                0xf8017e50                SOLID_MEM_CACHE_InvalidateCodeStrict
                0xf8017e64                SOLID_MEM_CACHE_Invalidate
                0xf8017e78                SOLID_MEM_CACHE_InvalidateStrict
                0xf8017e8c                SOLID_MEM_CACHE_Clean
                0xf8017ea0                SOLID_MEM_CACHE_CleanStrict
                0xf8017eb4                SOLID_MEM_CACHE_CleanAll
                0xf8017ec0                SOLID_MEM_CACHE_Flush
                0xf8017ed4                SOLID_MEM_CACHE_FlushStrict
                0xf8017ee8                SOLID_MEM_CACHE_FlushAll
                0xf8017ef4                SOLID_MEM_CheckIO
                0xf8017f88                SOLID_MEM_SetStackMode
                0xf8017fc8                SOLID_MEM_RamAccessTest
                0xf80180e4                _ZN3kmg5solid9MemoryMap9AllocHeapEjPm
                0xf8018170                SOLID_MEM_AllocHeap
                0xf8018184                SOLID_MEM_Alloc
                0xf8018264                SOLID_MEM_Realloc
                0xf8018314                SOLID_MEM_AllocFlat
                0xf80183b0                SOLID_MEM_AllocIO
                0xf801845c                SOLID_MEM_AllocPA
                0xf801847c                _ZN3kmg5solid9MemoryMap7AddAreaEmjmPKc
                0xf8018520                _ZN3kmg5solid9MemoryMap12InitHeapAreaEv
                0xf8018630                SOLID_MEM_Init
                0xf8018810                _ZN3kmg5solid9MemoryMap8FreeHeapEm
                0xf8018858                SOLID_MEM_FreeHeap
                0xf8018868                SOLID_MEM_Free
                0xf8018928                SOLID_MEM_FreeIO
                0xf8018970                SOLID_MEM_AllocStack
                0xf8018a60                SOLID_MEM_FreeStack
 .text._ZN3kmg5solid5CACHED2Ev
                0xf8018a78        0x4 C:/ProgramData/KMC/SOLID/SDK/2.0/solid-os/core/lib/armv7aLaiv/GR_\libsolid_cs.a(solid_mem.o)
                0xf8018a78                _ZN3kmg5solid5CACHED2Ev
                0xf8018a78                _ZN3kmg5solid5CACHED1Ev
 .text._ZN3kmg5solid3MMUD2Ev
                0xf8018a7c        0x4 C:/ProgramData/KMC/SOLID/SDK/2.0/solid-os/core/lib/armv7aLaiv/GR_\libsolid_cs.a(solid_mem.o)
                0xf8018a7c                _ZN3kmg5solid3MMUD1Ev
                0xf8018a7c                _ZN3kmg5solid3MMUD2Ev
 .text._ZN3kmg5solid9MemoryMapD2Ev
                0xf8018a80        0x4 C:/ProgramData/KMC/SOLID/SDK/2.0/solid-os/core/lib/armv7aLaiv/GR_\libsolid_cs.a(solid_mem.o)
                0xf8018a80                _ZN3kmg5solid9MemoryMapD1Ev
                0xf8018a80                _ZN3kmg5solid9MemoryMapD2Ev
 .text._ZN3kmg5solid10MemManagerImED2Ev
                0xf8018a84        0x4 C:/ProgramData/KMC/SOLID/SDK/2.0/solid-os/core/lib/armv7aLaiv/GR_\libsolid_cs.a(solid_mem.o)
                0xf8018a84                _ZN3kmg5solid10MemManagerImED2Ev
                0xf8018a84                _ZN3kmg5solid10MemManagerImED1Ev
 .text._ZN3kmg5solid12StackManagerImED2Ev
                0xf8018a88        0x4 C:/ProgramData/KMC/SOLID/SDK/2.0/solid-os/core/lib/armv7aLaiv/GR_\libsolid_cs.a(solid_mem.o)
                0xf8018a88                _ZN3kmg5solid12StackManagerImED2Ev
                0xf8018a88                _ZN3kmg5solid12StackManagerImED1Ev
 .text._ZN3kmg5solid10MemManagerImED0Ev
                0xf8018a8c       0x18 C:/ProgramData/KMC/SOLID/SDK/2.0/solid-os/core/lib/armv7aLaiv/GR_\libsolid_cs.a(solid_mem.o)
                0xf8018a8c                _ZN3kmg5solid10MemManagerImED0Ev
 .text._ZN3kmg5solid12StackManagerImED0Ev
                0xf8018aa4       0x18 C:/ProgramData/KMC/SOLID/SDK/2.0/solid-os/core/lib/armv7aLaiv/GR_\libsolid_cs.a(solid_mem.o)
                0xf8018aa4                _ZN3kmg5solid12StackManagerImED0Ev
 .text._ZN3kmg5solid10MemManagerImE5AllocEjPmPjb
                0xf8018abc      0x23c C:/ProgramData/KMC/SOLID/SDK/2.0/solid-os/core/lib/armv7aLaiv/GR_\libsolid_cs.a(solid_mem.o)
                0xf8018abc                _ZN3kmg5solid10MemManagerImE5AllocEjPmPjb
 .text._ZN3kmg5solid10MemManagerImE4InitEv
                0xf8018cf8       0x5c C:/ProgramData/KMC/SOLID/SDK/2.0/solid-os/core/lib/armv7aLaiv/GR_\libsolid_cs.a(solid_mem.o)
                0xf8018cf8                _ZN3kmg5solid10MemManagerImE4InitEv
 .text._ZN3kmg5solid10MemManagerImE12AllocAlignedEjmPm
                0xf8018d54      0x244 C:/ProgramData/KMC/SOLID/SDK/2.0/solid-os/core/lib/armv7aLaiv/GR_\libsolid_cs.a(solid_mem.o)
                0xf8018d54                _ZN3kmg5solid10MemManagerImE12AllocAlignedEjmPm
 .text._ZN3kmg5solid10MemManagerImE8AddChunkERPNS0_15SOLID_MEM_CHUNKImEES5_b
                0xf8018f98       0xc0 C:/ProgramData/KMC/SOLID/SDK/2.0/solid-os/core/lib/armv7aLaiv/GR_\libsolid_cs.a(solid_mem.o)
                0xf8018f98                _ZN3kmg5solid10MemManagerImE8AddChunkERPNS0_15SOLID_MEM_CHUNKImEES5_b
 .text._ZN3kmg5solid10MemManagerImE11AddFreeAreaEmj
                0xf8019058       0x48 C:/ProgramData/KMC/SOLID/SDK/2.0/solid-os/core/lib/armv7aLaiv/GR_\libsolid_cs.a(solid_mem.o)
                0xf8019058                _ZN3kmg5solid10MemManagerImE11AddFreeAreaEmj
 .text._ZN3kmg5solid10MemManagerImE4FreeEmPj
                0xf80190a0       0x8c C:/ProgramData/KMC/SOLID/SDK/2.0/solid-os/core/lib/armv7aLaiv/GR_\libsolid_cs.a(solid_mem.o)
                0xf80190a0                _ZN3kmg5solid10MemManagerImE4FreeEmPj
 .text._ZN3kmg5solid12StackManagerImE4FreeEm
                0xf801912c      0x160 C:/ProgramData/KMC/SOLID/SDK/2.0/solid-os/core/lib/armv7aLaiv/GR_\libsolid_cs.a(solid_mem.o)
                0xf801912c                _ZN3kmg5solid12StackManagerImE4FreeEm
 .text.startup  0xf801928c       0xdc C:/ProgramData/KMC/SOLID/SDK/2.0/solid-os/core/lib/armv7aLaiv/GR_\libsolid_cs.a(solid_mem.o)
 .text          0xf8019368      0x87c C:/ProgramData/KMC/SOLID/SDK/2.0/solid-os/core/lib/armv7aLaiv/GR_\libsolid_cs.a(solid_mem_cache.o)
                0xf80193d0                _ZN3kmg5solid5CACHE4InitEv
                0xf801956c                _ZN3kmg5solid5CACHE12EnableCachesEb
                0xf80195ac                _ZN3kmg5solid5CACHE7InitL2CEv
                0xf80195d4                _ZN3kmg5solid5CACHE7Init2ndEv
                0xf80195d8                _ZN3kmg5solid5CACHE4InvIEv
                0xf8019604                _ZN3kmg5solid5CACHE10InvIStrictEmj
                0xf8019654                _ZN3kmg5solid5CACHE4InvIEmj
                0xf8019668                _ZN3kmg5solid5CACHE10InvDStrictEmj
                0xf80197bc                _ZN3kmg5solid5CACHE5CleanEv
                0xf80198b4                _ZN3kmg5solid5CACHE11CleanStrictEmj
                0xf801998c                _ZN3kmg5solid5CACHE5CleanEmj
                0xf80199a0                _ZN3kmg5solid5CACHE5FlushEv
                0xf8019a3c                _ZN3kmg5solid5CACHE11FlushStrictEmj
                0xf8019b14                _ZN3kmg5solid5CACHE5FlushEmj
                0xf8019b28                _ZN3kmg5solid5CACHE4InvDEmj
 .text          0xf8019be4       0x64 C:/ProgramData/KMC/SOLID/SDK/2.0/solid-os/core/lib/armv7aLaiv/GR_\libsolid_cs.a(solid_mutex.o)
                0xf8019be4                SOLID_InitializeCriticalSection
                0xf8019bf4                SOLID_TryEnterCriticalSection
                0xf8019c18                SOLID_EnterCriticalSection
                0xf8019c1c                SOLID_LeaveCriticalSection
 .text          0xf8019c48       0x7c C:/ProgramData/KMC/SOLID/SDK/2.0/solid-os/core/lib/armv7aLaiv/GR_\libsolid_cs.a(solid_rtc.o)
                0xf8019c48                SOLID_RTC_Init
                0xf8019c4c                SOLID_RTC_ReadTime
                0xf8019c60                SOLID_RTC_SetTime
 .text          0xf8019cc4      0xbc4 C:/ProgramData/KMC/SOLID/SDK/2.0/solid-os/core/lib/armv7aLaiv/GR_\libsolid_cs.a(solid_timer.o)
                0xf8019cc4                _ZN3kmg5solid9TickCount4InitEP17_IMPL_TIMER_INFO_
                0xf8019cf8                _ZN3kmg5solid9TickCount14GetCurrentTickEv
                0xf8019d10                _ZN3kmg5solid9TickCount12CalcNextTickEm
                0xf8019d5c                _ZN3kmg5solid9TickCount6ToUsecEy
                0xf8019d84                _ZN3kmg5solid9TickCount6ToTickEm
                0xf8019db0                _ZN3kmg5solid9TickCount10UpdateTickEv
                0xf8019de4                _ZN3kmg5solid9TickCount7SuspendEv
                0xf8019de8                _ZN3kmg5solid9TickCount6ResumeEv
                0xf8019dec                _ZN3kmg5solid5Timer7ToTicksEy
                0xf8019e10                _ZN3kmg5solid5Timer8SetTimerEy
                0xf8019ecc                _ZN3kmg5solid5Timer10SetMaxTimeEv
                0xf8019eec                _ZN3kmg5solid5Timer10UnRegisterEP21_SOLID_TIMER_HANDLER_
                0xf8019fb0                _ZN3kmg5solid5Timer8AddQueueEP21_SOLID_TIMER_HANDLER_
                0xf801a064                _ZN3kmg5solid5Timer8RegisterEP21_SOLID_TIMER_HANDLER_
                0xf801a134                _ZN3kmg5solid5Timer11NotifyTimerEP19_SOLID_CPU_CONTEXT_
                0xf801a300                _ZN3kmg5solid5Timer12CallBackFuncEPvP19_SOLID_CPU_CONTEXT_
                0xf801a320                _ZN3kmg5solid5Timer7SuspendEv
                0xf801a334                _ZN3kmg5solid5Timer6ResumeEv
                0xf801a348                SOLID_TIMER_GetCurrentTick
                0xf801a368                SOLID_TIMER_ToUsec
                0xf801a398                SOLID_TIMER_RegisterTimer
                0xf801a3a8                SOLID_TIMER_UnRegisterTimer
                0xf801a3b8                SOLID_TIMER_WaitNsec
                0xf801a468                _ZN3kmg5solid5Timer4InitEv
                0xf801a7c0                SOLID_TIMER_Init
                0xf801a7cc                SOLID_TIMER_GetTicksPerSec
                0xf801a7dc                SOLID_TIMER_GetMaxTicks
                0xf801a824                SOLID_TIMER_GetMaxTimerTime
                0xf801a850                SOLID_TIMER_Suspend
                0xf801a86c                SOLID_TIMER_Resume
 .text._ZN3kmg5solid9TickCountD2Ev
                0xf801a888        0x4 C:/ProgramData/KMC/SOLID/SDK/2.0/solid-os/core/lib/armv7aLaiv/GR_\libsolid_cs.a(solid_timer.o)
                0xf801a888                _ZN3kmg5solid9TickCountD1Ev
                0xf801a888                _ZN3kmg5solid9TickCountD2Ev
 .text._ZN3kmg5solid5TimerD2Ev
                0xf801a88c        0x4 C:/ProgramData/KMC/SOLID/SDK/2.0/solid-os/core/lib/armv7aLaiv/GR_\libsolid_cs.a(solid_timer.o)
                0xf801a88c                _ZN3kmg5solid5TimerD2Ev
                0xf801a88c                _ZN3kmg5solid5TimerD1Ev
 .text.startup  0xf801a890       0x40 C:/ProgramData/KMC/SOLID/SDK/2.0/solid-os/core/lib/armv7aLaiv/GR_\libsolid_cs.a(solid_timer.o)
 .text          0xf801a8d0      0x384 C:/ProgramData/KMC/SOLID/SDK/2.0/solid-os/core/lib/armv7aLaiv/GR_\libsolid_cs.a(solid_vector.o)
                0xf801a950                SOLID_VECTOR_Init
                0xf801a9a4                SOLID_VECTOR_Register
                0xf801a9dc                SOLID_VECTOR_UnRegister
                0xf801aa54                SOLID_VECTOR_Notify
                0xf801aab8                SOLID_VECTOR_IsInInterrupt
                0xf801aad0                SOLID_SVC_Register
                0xf801aba0                SOLID_SVC_UnRegister
 .text          0xf801ac54      0x160 C:/ProgramData/KMC/SOLID/SDK/2.0/solid-os/core/lib/armv7aLaiv/GR_\libsolid_cs.a(solid_vlink.o)
                0xf801acb0                SOLID_VLINK_IsAvailable
                0xf801acc4                SOLID_VLINK_WriteConsole
                0xf801acd0                SOLID_VLINK_Init
                0xf801ad30                SOLID_VLINK_GetCwd
 .text          0xf801adb4      0xf54 C:/ProgramData/KMC/SOLID/SDK/2.0/solid-os/core/lib/armv7aLaiv/GR_\libsolid_cs.a(solid_mem_mmu.o)
                0xf801adb4                _ZN3kmg5solid3MMU9IsSectionEi
                0xf801add0                _ZN3kmg5solid3MMU6IsPageEi
                0xf801adec                _ZN3kmg5solid3MMU6ExpandEi
                0xf801af4c                _ZN3kmg5solid3MMU6ReductEi
                0xf801af90                _ZN3kmg5solid3MMU15Allocate2ndPageEv
                0xf801b01c                _ZN3kmg5solid3MMU11Free2ndPageEi
                0xf801b050                _ZN3kmg5solid3MMU13Get2ndPageIdxEi
                0xf801b07c                _ZN3kmg5solid3MMU3MapEmjmb
                0xf801b258                _ZN3kmg5solid3MMU5UnmapEmjb
                0xf801b404                _ZN3kmg5solid3MMU4InitEv
                0xf801b5e8                _ZN3kmg5solid3MMU7IsValidEmj
                0xf801b6f0                _ZN3kmg5solid3MMU9IsInvalidEmj
                0xf801b7fc                _ZN3kmg5solid3MMU9CheckAreaEmRbRjj
                0xf801b984                _ZN3kmg5solid3MMU5VA2PAEmPm
                0xf801ba18                _ZN3kmg5solid3MMU7GetAttrEmPi
                0xf801bacc                _ZN3kmg5solid3MMU7SetAttrEmi
                0xf801bb98                _ZN3kmg5solid3MMU7SetAttrEmji
 .text          0xf801bd08      0x228 C:/ProgramData/KMC/SOLID/SDK/2.0/solid-os/core/lib/armv7aLaiv/GR_\libsolid_cs.a(kmc_evttracker_core.o)
                0xf801bd08                __kmc_toppers_event_log_init
                0xf801bdf0                __kmc_toppers_event_logI
                0xf801be84                __kmc_toppers_event_set_int_mask
                0xf801be94                __kmc_toppers_event_clear_int_mask
                0xf801bea8                __kmc_log_inh_enter
                0xf801beec                __kmc_log_inh_leave
 .text          0xf801bf30     0x29f4 C:/ProgramData/KMC/SOLID/SDK/2.0/solid-os/core/lib/armv7aLaiv/GR_\libsolid_cs.a(dlmalloc.o)
                0xf801ca20                create_mspace
                0xf801ca4c                create_mspace_with_base
                0xf801cb84                mspace_track_large_chunks
                0xf801cb8c                destroy_mspace
                0xf801cba8                mspace_malloc
                0xf801d8f4                mspace_free
                0xf801dfc0                mspace_calloc
                0xf801e034                mspace_realloc
                0xf801e0e8                mspace_realloc_in_place
                0xf801e148                mspace_memalign
                0xf801e334                mspace_independent_calloc
                0xf801e35c                mspace_independent_comalloc
                0xf801e378                mspace_bulk_free
                0xf801e474                mspace_inspect_all
                0xf801e540                mspace_trim
                0xf801e584                mspace_malloc_stats
                0xf801e698                mspace_footprint
                0xf801e6a0                mspace_max_footprint
                0xf801e6a8                mspace_footprint_limit
                0xf801e6b8                mspace_set_footprint_limit
                0xf801e6e8                mspace_mallinfo
                0xf801e848                mspace_usable_size
                0xf801e880                mspace_mallopt
 .text          0xf801e924        0x8 C:/ProgramData/KMC/SOLID/SDK/2.0/solid-os/core/lib/armv7aLaiv/GR_\libsolid_cs.a(solid_asan.o)
                0xf801e924                SOLID_ASAN_Enabled
                0xf801e928                SOLID_ASAN_RegisterReporter
 .text          0xf801e92c        0x0 C:/ProgramData/KMC/SOLID/SDK/2.0/solid-os/core/lib/armv7aLaiv/GR_\libsolid_cs.a(solid_cs_args.o)
 .text          0xf801e92c        0xc C:/ProgramData/KMC/SOLID/SDK/2.0/solid-os/core/lib/armv7aLaiv/GR_\libsolid_cs.a(tasan.o)
                0xf801e92c                asan_enabled
                0xf801e934                asan_set_report_handler
 .text          0xf801e938      0x6fc C:/Users/admin/Documents/SOLID-IDE/Projects/cpptest/Release/exeGCC_SOLID/\libnet.a(sys_arch.o)
                0xf801e938                lwip_daemon_thread
                0xf801e98c                sys_init
                0xf801e990                sys_setup_OSresource
                0xf801ea8c                sys_arch_protect
                0xf801eaa0                sys_arch_unprotect
                0xf801eaa4                sys_sem_new
                0xf801eb3c                sys_sem_signal
                0xf801eb80                sys_sem_free
                0xf801eb90                sys_sem_valid
                0xf801ebc0                sys_sem_set_invalid
                0xf801ebcc                sys_mbox_new
                0xf801ec14                sys_mbox_post
                0xf801ec58                sys_mbox_trypost
                0xf801eca0                sys_arch_mbox_tryfetch
                0xf801ece4                sys_mbox_free
                0xf801ecf4                sys_mbox_valid
                0xf801ed24                sys_mbox_set_invalid
                0xf801ed30                sys_now
                0xf801ed4c                sys_arch_sem_wait
                0xf801edf4                sys_arch_mbox_fetch
                0xf801eeb4                sys_thread_new
                0xf801ef40                sys_start_daemon
                0xf801ef80                lwip_thread_task
 .text          0xf801f034      0x318 C:/Users/admin/Documents/SOLID-IDE/Projects/cpptest/Release/exeGCC_SOLID/\libnet.a(tcpip.o)
                0xf801f038                tcpip_inpkt
                0xf801f0ac                tcpip_input
                0xf801f0d0                tcpip_callback_with_block
                0xf801f154                tcpip_send_msg_wait_sem
                0xf801f18c                tcpip_api_call
                0xf801f1c8                tcpip_callbackmsg_new
                0xf801f1f4                tcpip_callbackmsg_delete
                0xf801f200                tcpip_trycallback
                0xf801f228                tcpip_init
                0xf801f324                pbuf_free_callback
                0xf801f338                mem_free_callback
 .text          0xf801f34c       0x2c C:/Users/admin/Documents/SOLID-IDE/Projects/cpptest/Release/exeGCC_SOLID/\libnet.a(init.o)
                0xf801f34c                lwip_init
 .text          0xf801f378      0x6b0 C:/Users/admin/Documents/SOLID-IDE/Projects/cpptest/Release/exeGCC_SOLID/\libnet.a(ip4.o)
                0xf801f378                ip4_route
                0xf801f42c                ip4_input
                0xf801f7b8                ip4_output_if_src
                0xf801f94c                ip4_output_if
                0xf801f990                ip4_output
 .text          0xf801fa28      0x3f8 C:/Users/admin/Documents/SOLID-IDE/Projects/cpptest/Release/exeGCC_SOLID/\libnet.a(ip4_addr.o)
                0xf801fa28                ip4_addr_isbroadcast_u32
                0xf801fa80                ip4_addr_netmask_valid
                0xf801fad0                ip4addr_aton
                0xf801fcdc                ipaddr_addr
                0xf801fd00                ip4addr_ntoa_r
                0xf801fe10                ip4addr_ntoa
 .text          0xf801fe20      0xa18 C:/Users/admin/Documents/SOLID-IDE/Projects/cpptest/Release/exeGCC_SOLID/\libnet.a(ip4_frag.o)
                0xf802003c                ip_reass_tmr
                0xf802009c                ip4_reass
                0xf802058c                ip4_frag
 .text          0xf8020838      0x558 C:/Users/admin/Documents/SOLID-IDE/Projects/cpptest/Release/exeGCC_SOLID/\libnet.a(mem.o)
                0xf8020838                mem_init
                0xf80208a0                mem_free
                0xf80209d0                mem_trim
                0xf8020b70                mem_malloc
                0xf8020d5c                mem_calloc
 .text          0xf8020d90      0x1f8 C:/Users/admin/Documents/SOLID-IDE/Projects/cpptest/Release/exeGCC_SOLID/\libnet.a(memp.o)
                0xf8020e04                memp_init_pool
                0xf8020e6c                memp_init
                0xf8020ea8                memp_malloc_pool
                0xf8020ebc                memp_malloc
                0xf8020ee8                memp_free_pool
                0xf8020f2c                memp_free
 .text          0xf8020f88      0x448 C:/Users/admin/Documents/SOLID-IDE/Projects/cpptest/Release/exeGCC_SOLID/\libnet.a(netif.o)
                0xf8020f9c                netif_init
                0xf8020fa0                netif_input
                0xf8020fb4                netif_find
                0xf8021030                netif_set_ipaddr
                0xf80210f8                netif_set_addr
                0xf8021160                netif_add
                0xf80211e8                netif_set_gw
                0xf80211f8                netif_set_netmask
                0xf8021208                netif_set_default
                0xf8021218                netif_set_up
                0xf8021268                netif_set_down
                0xf80212ac                netif_remove
                0xf802136c                netif_set_status_callback
                0xf8021378                netif_set_link_up
                0xf80213bc                netif_set_link_down
 .text          0xf80213d0      0xde0 C:/Users/admin/Documents/SOLID-IDE/Projects/cpptest/Release/exeGCC_SOLID/\libnet.a(pbuf.o)
                0xf8021698                pbuf_alloced_custom
                0xf802172c                pbuf_header
                0xf802174c                pbuf_header_force
                0xf8021768                pbuf_free
                0xf8021818                pbuf_alloc
                0xf80219ec                pbuf_realloc
                0xf8021aac                pbuf_clen
                0xf8021ad8                pbuf_ref
                0xf8021afc                pbuf_cat
                0xf8021b0c                pbuf_chain
                0xf8021b30                pbuf_dechain
                0xf8021b84                pbuf_copy
                0xf8021cd8                pbuf_copy_partial
                0xf8021d7c                pbuf_split_64k
                0xf8021e18                pbuf_skip
                0xf8021e5c                pbuf_take
                0xf8021ee4                pbuf_take_at
                0xf8021f90                pbuf_coalesce
                0xf8021fe0                pbuf_get_at
                0xf8022020                pbuf_try_get_at
                0xf802206c                pbuf_put_at
                0xf80220ac                pbuf_memcmp
                0xf80220d0                pbuf_memfind
                0xf8022150                pbuf_strstr
 .text          0xf80221b0       0x18 C:/Users/admin/Documents/SOLID-IDE/Projects/cpptest/Release/exeGCC_SOLID/\libnet.a(stats.o)
                0xf80221b0                stats_init
 .text          0xf80221c8     0x1954 C:/Users/admin/Documents/SOLID-IDE/Projects/cpptest/Release/exeGCC_SOLID/\libnet.a(tcp.o)
                0xf80222e8                tcp_init
                0xf80222ec                tcp_bind
                0xf80223d8                tcp_listen_with_backlog_and_err
                0xf8022504                tcp_listen_with_backlog
                0xf802250c                tcp_update_rcv_ann_wnd
                0xf8022570                tcp_recved
                0xf8022624                tcp_connect
                0xf8022804                tcp_txnow
                0xf8022850                tcp_seg_free
                0xf802287c                tcp_segs_free
                0xf80228a0                tcp_setprio
                0xf80228a8                tcp_seg_copy
                0xf80228f8                tcp_arg
                0xf8022904                tcp_recv
                0xf8022910                tcp_sent
                0xf802291c                tcp_err
                0xf8022928                tcp_accept
                0xf8022940                tcp_poll
                0xf802294c                tcp_pcb_purge
                0xf80229f4                tcp_slowtmr
                0xf8022eb8                tcp_pcb_remove
                0xf80231f4                tcp_close
                0xf8023210                tcp_recv_null
                0xf8023264                tcp_process_refused_data
                0xf802336c                tcp_fasttmr
                0xf802344c                tcp_tmr
                0xf802347c                tcp_shutdown
                0xf8023520                tcp_abandon
                0xf80236e4                tcp_abort
                0xf80237d0                tcp_alloc
                0xf8023a04                tcp_new
                0xf8023a0c                tcp_new_ip_type
                0xf8023a14                tcp_next_iss
                0xf8023a38                tcp_eff_send_mss_impl
                0xf8023a7c                tcp_netif_ip_addr_changed
                0xf8023b08                tcp_debug_state_str
 .text          0xf8023b1c     0x1d10 C:/Users/admin/Documents/SOLID-IDE/Projects/cpptest/Release/exeGCC_SOLID/\libnet.a(tcp_in.o)
                0xf802498c                tcp_input
                0xf8025814                tcp_trigger_input_pcb_close
 .text          0xf802582c     0x1640 C:/Users/admin/Documents/SOLID-IDE/Projects/cpptest/Release/exeGCC_SOLID/\libnet.a(tcp_out.o)
                0xf8025a8c                tcp_write
                0xf80261ac                tcp_enqueue_flags
                0xf8026310                tcp_send_fin
                0xf8026388                tcp_send_empty_ack
                0xf8026470                tcp_output
                0xf80269a4                tcp_rst
                0xf8026aac                tcp_rexmit_rto
                0xf8026b14                tcp_rexmit
                0xf8026bb0                tcp_rexmit_fast
                0xf8026c24                tcp_keepalive
                0xf8026ce8                tcp_zero_window_probe
 .text          0xf8026e6c      0x3a8 C:/Users/admin/Documents/SOLID-IDE/Projects/cpptest/Release/exeGCC_SOLID/\libnet.a(timeouts.o)
                0xf8026e6c                sys_timeout
                0xf8026f50                tcp_timer_needed
                0xf8027004                sys_timeouts_init
                0xf8027074                sys_untimeout
                0xf80270fc                sys_restart_timeouts
                0xf8027114                sys_timeouts_mbox_fetch
 .text          0xf8027214      0x878 C:/Users/admin/Documents/SOLID-IDE/Projects/cpptest/Release/exeGCC_SOLID/\libnet.a(udp.o)
                0xf8027214                udp_init
                0xf8027218                udp_input
                0xf80274ec                udp_bind
                0xf8027658                udp_sendto_if_src
                0xf80277b8                udp_sendto_if
                0xf8027820                udp_sendto
                0xf8027898                udp_send
                0xf80278b4                udp_connect
                0xf8027960                udp_disconnect
                0xf802797c                udp_recv
                0xf8027988                udp_remove
                0xf80279fc                udp_new
                0xf8027a2c                udp_new_ip_type
                0xf8027a30                udp_netif_ip_addr_changed
 .text          0xf8027a8c      0x1d0 C:/Users/admin/Documents/SOLID-IDE/Projects/cpptest/Release/exeGCC_SOLID/\libnet.a(ethernet.o)
                0xf8027a8c                ethernet_input
                0xf8027bd0                ethernet_output
 .text          0xf8027c5c      0x288 C:/Users/admin/Documents/SOLID-IDE/Projects/cpptest/Release/exeGCC_SOLID/\libnet.a(solid_net_if.o)
                0xf8027e20                SOLID_NET_start_network
                0xf8027e30                SOLID_NET_IF_Init
                0xf8027ed4                SOLID_NET_IF_GetAdapter
                0xf8027ee0                SOLID_NET_IF_Test
 .text          0xf8027ee4       0x30 C:/Users/admin/Documents/SOLID-IDE/Projects/cpptest/Release/exeGCC_SOLID/\libnet.a(solid_net_registerapi.o)
                0xf8027ee4                SOLID_NET_RegisterAPIs
 .text          0xf8027f14      0x4f4 C:/Users/admin/Documents/SOLID-IDE/Projects/cpptest/Release/exeGCC_SOLID/\libnet.a(impl_net_stack.o)
                0xf80280c8                IMPL_NET_STACK_Init
                0xf80280cc                IMPL_NET_STACK_Start
                0xf80280ec                IMPL_NET_STACK_AddInterface
                0xf8028374                IMPL_NET_STACK_InputPacket
                0xf80283d0                IMPL_NET_STACK_DriveProcess
                0xf80283d4                IMPL_NET_STACK_SetLinkUp
                0xf80283e8                IMPL_NET_STACK_SetLinkDown
                0xf80283fc                IMPL_NET_STACK_GetPacketBufferOps
 .text          0xf8028408       0xfc C:/Users/admin/Documents/SOLID-IDE/Projects/cpptest/Release/exeGCC_SOLID/\libnet.a(ethernetif.o)
                0xf8028458                ethernetif_init
 .text          0xf8028504      0x8c8 C:/Users/admin/Documents/SOLID-IDE/Projects/cpptest/Release/exeGCC_SOLID/\libnet.a(api_lib.o)
                0xf80286e4                netconn_new_with_proto_and_callback
                0xf8028788                netconn_delete
                0xf80287ec                netconn_getaddr
                0xf8028864                netconn_bind
                0xf80288cc                netconn_connect
                0xf8028934                netconn_disconnect
                0xf802897c                netconn_listen_with_backlog
                0xf80289c4                netconn_accept
                0xf8028aa4                netconn_recv_tcp_pbuf
                0xf8028ac8                netconn_recv
                0xf8028b7c                netconn_send
                0xf8028bcc                netconn_sendto
                0xf8028bf4                netconn_write_partly
                0xf8028ce8                netconn_close
                0xf8028cf0                netconn_shutdown
                0xf8028d0c                netconn_gethostbyname
 .text          0xf8028dcc     0x1930 C:/Users/admin/Documents/SOLID-IDE/Projects/cpptest/Release/exeGCC_SOLID/\libnet.a(api_msg.o)
                0xf802992c                lwip_netconn_do_newconn
                0xf80299fc                netconn_alloc
                0xf8029ab0                netconn_free
                0xf8029d80                lwip_netconn_do_delconn
                0xf8029ee8                lwip_netconn_do_bind
                0xf8029f8c                lwip_netconn_do_connect
                0xf802a0d0                lwip_netconn_do_disconnect
                0xf802a134                lwip_netconn_do_listen
                0xf802a2c0                lwip_netconn_do_send
                0xf802a36c                lwip_netconn_do_recv
                0xf802a3f8                lwip_netconn_do_write
                0xf802a4cc                lwip_netconn_do_getaddr
                0xf802a5b8                lwip_netconn_do_close
                0xf802a6a0                lwip_netconn_do_gethostbyname
 .text          0xf802a6fc      0x220 C:/Users/admin/Documents/SOLID-IDE/Projects/cpptest/Release/exeGCC_SOLID/\libnet.a(netbuf.o)
                0xf802a6fc                netbuf_new
                0xf802a724                netbuf_delete
                0xf802a75c                netbuf_alloc
                0xf802a7b0                netbuf_free
                0xf802a7dc                netbuf_ref
                0xf802a844                netbuf_chain
                0xf802a880                netbuf_data
                0xf802a8d8                netbuf_next
                0xf802a90c                netbuf_first
 .text          0xf802a91c      0x3b4 C:/Users/admin/Documents/SOLID-IDE/Projects/cpptest/Release/exeGCC_SOLID/\libnet.a(netdb.o)
                0xf802a91c                lwip_gethostbyname
                0xf802a9bc                lwip_gethostbyname_r
                0xf802aadc                lwip_freeaddrinfo
                0xf802ab04                lwip_getaddrinfo
 .text          0xf802acd0     0x24c0 C:/Users/admin/Documents/SOLID-IDE/Projects/cpptest/Release/exeGCC_SOLID/\libnet.a(sockets.o)
                0xf802b2b0                lwip_socket_thread_init
                0xf802b2b4                lwip_socket_thread_cleanup
                0xf802b2b8                lwip_accept
                0xf802b578                lwip_bind
                0xf802b678                lwip_close
                0xf802b748                lwip_connect
                0xf802b880                lwip_listen
                0xf802b94c                lwip_recvfrom
                0xf802bd00                lwip_read
                0xf802bd24                lwip_recv
                0xf802bd44                lwip_sendmsg
                0xf802c078                lwip_sendto
                0xf802c240                lwip_send
                0xf802c318                lwip_socket
                0xf802c404                lwip_write
                0xf802c40c                lwip_writev
                0xf802c448                lwip_select
                0xf802c8c4                lwip_shutdown
                0xf802c9d0                lwip_getpeername
                0xf802c9d8                lwip_getsockname
                0xf802c9e0                lwip_getsockopt
                0xf802cd7c                lwip_setsockopt
                0xf802d008                lwip_ioctl
                0xf802d0c4                lwip_fcntl
 .text          0xf802d190      0x200 C:/Users/admin/Documents/SOLID-IDE/Projects/cpptest/Release/exeGCC_SOLID/\libnet.a(def.o)
                0xf802d190                lwip_htons
                0xf802d19c                lwip_htonl
                0xf802d1a4                lwip_strnstr
                0xf802d230                lwip_stricmp
                0xf802d2a0                lwip_strnicmp
                0xf802d300                lwip_itoa
 .text          0xf802d390      0xc70 C:/Users/admin/Documents/SOLID-IDE/Projects/cpptest/Release/exeGCC_SOLID/\libnet.a(dns.o)
                0xf802dbb0                dns_init
                0xf802dbb4                dns_setserver
                0xf802dbec                dns_getserver
                0xf802dc08                dns_tmr
                0xf802dc30                dns_gethostbyname_addrtype
                0xf802dfe4                dns_gethostbyname
 .text          0xf802e000      0x330 C:/Users/admin/Documents/SOLID-IDE/Projects/cpptest/Release/exeGCC_SOLID/\libnet.a(inet_chksum.o)
                0xf802e000                lwip_standard_chksum
                0xf802e0bc                inet_chksum_pseudo
                0xf802e194                ip_chksum_pseudo
                0xf802e198                inet_chksum_pseudo_partial
                0xf802e298                ip_chksum_pseudo_partial
                0xf802e29c                inet_chksum
                0xf802e2b0                inet_chksum_pbuf
 .text          0xf802e330        0x0 C:/Users/admin/Documents/SOLID-IDE/Projects/cpptest/Release/exeGCC_SOLID/\libnet.a(ip.o)
 .text          0xf802e330     0x20c4 C:/Users/admin/Documents/SOLID-IDE/Projects/cpptest/Release/exeGCC_SOLID/\libnet.a(dhcp.o)
                0xf802f720                dhcp_set_struct
                0xf802f744                dhcp_cleanup
                0xf802f76c                dhcp_inform
                0xf802f8bc                dhcp_network_changed
                0xf802f920                dhcp_arp_reply
                0xf802fac0                dhcp_renew
                0xf802fcc0                dhcp_release
                0xf802fe98                dhcp_coarse_tmr
                0xf80301a8                dhcp_fine_tmr
                0xf8030290                dhcp_stop
                0xf8030300                dhcp_start
                0xf80303c8                dhcp_supplied_address
 .text.unlikely
                0xf80303f4      0x130 C:/Users/admin/Documents/SOLID-IDE/Projects/cpptest/Release/exeGCC_SOLID/\libnet.a(dhcp.o)
 .text          0xf8030524      0xd74 C:/Users/admin/Documents/SOLID-IDE/Projects/cpptest/Release/exeGCC_SOLID/\libnet.a(etharp.o)
                0xf8030a70                etharp_tmr
                0xf8030b48                etharp_add_static_entry
                0xf8030b7c                etharp_remove_static_entry
                0xf8030bc0                etharp_cleanup_netif
                0xf8030c0c                etharp_find_addr
                0xf8030c8c                etharp_get_entry
                0xf8030cf4                etharp_input
                0xf8030e4c                etharp_query
                0xf8031094                etharp_output
                0xf8031254                etharp_request
 .text          0xf8031298      0x38c C:/Users/admin/Documents/SOLID-IDE/Projects/cpptest/Release/exeGCC_SOLID/\libnet.a(icmp.o)
                0xf8031390                icmp_input
                0xf8031604                icmp_dest_unreach
                0xf8031614                icmp_time_exceeded
 .text          0xf8031624       0x4c C:/Users/admin/Documents/SOLID-IDE/Projects/cpptest/Release/exeGCC_SOLID/\libnet.a(impl_net_stack_errno.o)
                0xf8031624                IMPL_NET_STACK_strerror
 .text          0xf8031670       0x4c C:/Users/admin/Documents/SOLID-IDE/Projects/cpptest/Release/exeGCC_SOLID/\libnet.a(err.o)
                0xf8031670                err_to_errno
                0xf8031694                lwip_strerr
 .text          0xf80316bc      0xecc C:/ProgramData/KMC/SOLID/SDK/2.0/solid-os/rtos/toppers_asp3/lib/armv7aLaiv/GR__\libkernel.a(dataqueue.o)
                0xf80316bc                _kernel_initialize_dataqueue
                0xf80317f0                _kernel_enqueue_data
                0xf803182c                _kernel_force_enqueue_data
                0xf8031874                _kernel_dequeue_data
                0xf80318b4                _kernel_send_data
                0xf803199c                _kernel_force_send_data
                0xf8031a70                _kernel_receive_data
                0xf8031bd8                snd_dtq
                0xf8031cf0                psnd_dtq
                0xf8031da0                tsnd_dtq
                0xf8031eec                fsnd_dtq
                0xf8031fa8                rcv_dtq
                0xf8032104                prcv_dtq
                0xf80321b4                trcv_dtq
                0xf8032338                ini_dtq
                0xf80323f8                ref_dtq
 .text.unlikely
                0xf8032588       0x44 C:/ProgramData/KMC/SOLID/SDK/2.0/solid-os/rtos/toppers_asp3/lib/armv7aLaiv/GR__\libkernel.a(dataqueue.o)
 .text          0xf80325cc      0x684 C:/ProgramData/KMC/SOLID/SDK/2.0/solid-os/rtos/toppers_asp3/lib/armv7aLaiv/GR__\libkernel.a(interrupt.o)
                0xf80325cc                _kernel_initialize_isr
                0xf80328cc                _kernel_call_isr
                0xf8032928                _kernel_initialize_interrupt
                0xf8032a44                dis_int
                0xf8032ab4                ena_int
                0xf8032b24                chg_ipm
                0xf8032c00                get_ipm
 .text          0xf8032c50      0x25c C:/ProgramData/KMC/SOLID/SDK/2.0/solid-os/rtos/toppers_asp3/lib/armv7aLaiv/GR__\libkernel.a(tSysLog.o)
                0xf8032c54                syslog_wri_log
                0xf8032d24                syslog_rea_log
                0xf8032dac                syslog_msk_log
                0xf8032de0                syslog_ref_log
                0xf8032e30                syslog_fls_log
 .text          0xf8032eac      0x1ec C:/ProgramData/KMC/SOLID/SDK/2.0/solid-os/rtos/toppers_asp3/lib/armv7aLaiv/GR__\libkernel.a(vasyslog.o)
                0xf8032eac                syslog
 .text          0xf8033098      0x5ac C:/ProgramData/KMC/SOLID/SDK/2.0/solid-os/rtos/toppers_asp3/lib/armv7aLaiv/GR__\libkernel.a(semaphore.o)
                0xf8033098                _kernel_initialize_semaphore
                0xf80330e8                sig_sem
                0xf8033218                wai_sem
                0xf8033304                pol_sem
                0xf8033384                twai_sem
                0xf803349c                ini_sem
                0xf8033544                ref_sem
 .text          0xf8033644      0x148 C:/ProgramData/KMC/SOLID/SDK/2.0/solid-os/rtos/toppers_asp3/lib/armv7aLaiv/GR__\libkernel.a(startup.o)
                0xf8033644                sta_ker
                0xf80336b0                ext_ker
                0xf80336d8                _kernel_exit_kernel
                0xf8033720                _kernel_initialize_kmm
                0xf8033750                _kernel_kernel_malloc
                0xf8033778                _kernel_kernel_free
 .text          0xf803378c      0x430 C:/ProgramData/KMC/SOLID/SDK/2.0/solid-os/rtos/toppers_asp3/lib/armv7aLaiv/GR__\libkernel.a(sys_manage.o)
                0xf803378c                rot_rdq
                0xf8033844                get_tid
                0xf80338a0                get_lod
                0xf8033938                get_nth
                0xf8033a00                loc_cpu
                0xf8033a18                unl_cpu
                0xf8033a30                dis_dsp
                0xf8033a7c                ena_dsp
                0xf8033b28                sns_ctx
                0xf8033b40                sns_loc
                0xf8033b4c                sns_dsp
                0xf8033b64                sns_dpn
                0xf8033ba4                sns_ker
 .text          0xf8033bbc      0x8e0 C:/ProgramData/KMC/SOLID/SDK/2.0/solid-os/rtos/toppers_asp3/lib/armv7aLaiv/GR__\libkernel.a(task.o)
                0xf8033bbc                _kernel_search_schedtsk
                0xf8033be0                _kernel_make_runnable
                0xf8033c60                _kernel_make_non_runnable
                0xf8033de0                _kernel_make_dormant
                0xf8033e0c                _kernel_make_active
                0xf8033e6c                _kernel_initialize_task
                0xf80340b8                _kernel_change_priority
                0xf80342c4                _kernel_rotate_ready_queue
                0xf803437c                _kernel_task_terminate
 .text          0xf803449c        0x0 C:/ProgramData/KMC/SOLID/SDK/2.0/solid-os/rtos/toppers_asp3/lib/armv7aLaiv/GR__\libkernel.a(taskhook.o)
 .text          0xf803449c      0x58c C:/ProgramData/KMC/SOLID/SDK/2.0/solid-os/rtos/toppers_asp3/lib/armv7aLaiv/GR__\libkernel.a(task_manage.o)
                0xf803449c                act_tsk
                0xf80345b0                can_act
                0xf8034640                get_tst
                0xf8034720                chg_pri
                0xf803493c                get_pri
                0xf80349d8                get_inf
 .text          0xf8034a28      0x830 C:/ProgramData/KMC/SOLID/SDK/2.0/solid-os/rtos/toppers_asp3/lib/armv7aLaiv/GR__\libkernel.a(time_event.o)
                0xf8034a28                _kernel_initialize_tmevt
                0xf8034afc                _kernel_tmevt_up
                0xf8034b94                _kernel_tmevt_down
                0xf8034c40                _kernel_update_current_evttim
                0xf8034cc8                _kernel_set_hrt_event
                0xf8034d48                _kernel_tmevtb_register
                0xf8034df4                _kernel_tmevtb_enqueue
                0xf8034ef8                _kernel_tmevtb_dequeue
                0xf8035014                _kernel_check_adjtim
                0xf80350b4                _kernel_tmevt_lefttim
                0xf8035104                _kernel_signal_time
 .text          0xf8035258      0x568 C:/ProgramData/KMC/SOLID/SDK/2.0/solid-os/rtos/toppers_asp3/lib/armv7aLaiv/GR__\libkernel.a(wait.o)
                0xf8035258                _kernel_wait_tmout
                0xf803531c                _kernel_make_wait_tmout
                0xf80353cc                _kernel_wait_complete
                0xf803547c                _kernel_wait_tmout_ok
                0xf8035524                _kernel_wobj_make_wait
                0xf80355dc                _kernel_wobj_make_wait_tmout
                0xf80356a0                _kernel_init_wait_queue
 .text          0xf80357c0       0x40 C:/ProgramData/KMC/SOLID/SDK/2.0/solid-os/rtos/toppers_asp3/lib/armv7aLaiv/GR__\libkernel.a(solid_rtos_registerapi.o)
                0xf80357c0                SOLID_RTOS_RegisterAPIs
 .text          0xf8035800       0x14 C:/ProgramData/KMC/SOLID/SDK/2.0/solid-os/rtos/toppers_asp3/lib/armv7aLaiv/GR__\libkernel.a(target_fput_log.o)
                0xf8035800                target_fput_log
                0xf8035804                tSysLog_eSysLog_write
 .text          0xf8035814      0x27c C:/ProgramData/KMC/SOLID/SDK/2.0/solid-os/rtos/toppers_asp3/lib/armv7aLaiv/GR__\libkernel.a(target_intc_impl.o)
                0xf8035944                target_intc_setup
                0xf80359a0                target_config_int
                0xf8035a30                target_set_ipm
                0xf8035a48                target_get_ipm
                0xf8035a68                target_disable_int
                0xf8035a7c                target_enable_int
 .text          0xf8035a90      0x108 C:/ProgramData/KMC/SOLID/SDK/2.0/solid-os/rtos/toppers_asp3/lib/armv7aLaiv/GR__\libkernel.a(target_timer_impl.o)
                0xf8035ad0                target_hrt_get_current
                0xf8035ae0                target_hrt_set_event
                0xf8035b28                target_hrt_raise_event
                0xf8035b30                _kernel_target_hrt_initialize
                0xf8035b58                _kernel_target_hrt_terminate
                0xf8035b5c                target_hrt_get_config
                0xf8035b94                sil_dly_nse
 .text          0xf8035b98      0x17c C:/ProgramData/KMC/SOLID/SDK/2.0/solid-os/rtos/toppers_asp3/lib/armv7aLaiv/GR__\libkernel.a(kmc_evttracker_rtos.o)
                0xf8035b98                __kmc_log_taskstat
                0xf8035bc8                __kmc_log_dsp_enter
                0xf8035c44                __kmc_log_alm_enter
                0xf8035c78                __kmc_log_alm_leave
                0xf8035cac                __kmc_log_cyc_enter
                0xf8035ce0                __kmc_log_cyc_leave
 .text          0xf8035d14      0x354 C:/ProgramData/KMC/SOLID/SDK/2.0/solid-os/rtos/toppers_asp3/lib/armv7aLaiv/GR__\libkernel.a(rtos_prof.o)
                0xf8035d24                RTOS_PROF_update_stack
                0xf8035dd4                RTOS_PROF_get_stack_usage
                0xf8035e30                RTOS_PROF_get_max_stack_usage
                0xf8035e8c                RTOS_PROF_enum_stack_usage
                0xf8035f3c                RTOS_PROF_enum_max_stack_usage
                0xf8035fec                RTOS_PROF_set_stack_threshold
                0xf8035ffc                RTOS_check_stack_overflow
 .text          0xf8036068      0x148 C:/ProgramData/KMC/SOLID/SDK/2.0/solid-os/rtos/toppers_asp3/lib/armv7aLaiv/GR__\libkernel.a(core_support.o)
                0xf8036068                _kernel_dispatch
                0xf8036094                _kernel_start_dispatch
                0xf80360bc                _kernel_exit_and_dispatch
                0xf80360c4                dispatcher_0
                0xf80360c4                dispatcher
                0xf8036100                _kernel_call_exit_kernel
                0xf8036110                _kernel_start_r
                0xf8036128                _kernel_solid_iret
 .text          0xf80361b0       0x34 C:/ProgramData/KMC/SOLID/SDK/2.0/solid-os/rtos/toppers_asp3/lib/armv7aLaiv/GR__\libkernel.a(kernel_cfg_intl.o)
                0xf80361b0                _kernel_initialize_object
 .text          0xf80361e4      0x3f8 C:/ProgramData/KMC/SOLID/SDK/2.0/solid-os/rtos/toppers_asp3/lib/armv7aLaiv/GR__\libkernel.a(alarm.o)
                0xf80361e4                _kernel_call_alarm
                0xf803637c                _kernel_initialize_alarm
                0xf80363d8                sta_alm
                0xf803649c                stp_alm
                0xf8036528                ref_alm
 .text          0xf80365dc      0x2f4 C:/ProgramData/KMC/SOLID/SDK/2.0/solid-os/rtos/toppers_asp3/lib/armv7aLaiv/GR__\libkernel.a(core_kernel_impl.o)
                0xf80365dc                _kernel_core_initialize
                0xf80365f0                _kernel_core_terminate
                0xf80365f4                _kernel_xlog_sys
                0xf80366b0                _kernel_xlog_fsr
                0xf8036734                _kernel_default_int_handler
                0xf8036768                _kernel_default_exc_handler
 .text          0xf80368d0      0x2f4 C:/ProgramData/KMC/SOLID/SDK/2.0/solid-os/rtos/toppers_asp3/lib/armv7aLaiv/GR__\libkernel.a(cyclic.o)
                0xf80368d0                _kernel_call_cyclic
                0xf8036924                _kernel_initialize_cyclic
                0xf80369b4                sta_cyc
                0xf8036a70                stp_cyc
                0xf8036b10                ref_cyc
 .text          0xf8036bc4      0x86c C:/ProgramData/KMC/SOLID/SDK/2.0/solid-os/rtos/toppers_asp3/lib/armv7aLaiv/GR__\libkernel.a(eventflag.o)
                0xf8036bc4                _kernel_initialize_eventflag
                0xf8036c14                _kernel_check_flg_cond
                0xf8036c6c                set_flg
                0xf8036d80                clr_flg
                0xf8036df8                wai_flg
                0xf8036f9c                pol_flg
                0xf80370b0                twai_flg
                0xf8037288                ini_flg
                0xf8037330                ref_flg
 .text          0xf8037430       0x6c C:/ProgramData/KMC/SOLID/SDK/2.0/solid-os/rtos/toppers_asp3/lib/armv7aLaiv/GR__\libkernel.a(exception.o)
                0xf8037430                xsns_dpn
 .text          0xf803749c      0x870 C:/ProgramData/KMC/SOLID/SDK/2.0/solid-os/rtos/toppers_asp3/lib/armv7aLaiv/GR__\libkernel.a(mempfix.o)
                0xf803749c                _kernel_initialize_mempfix
                0xf8037678                _kernel_get_mpf_block
                0xf80376dc                get_mpf
                0xf80377d4                pget_mpf
                0xf803786c                tget_mpf
                0xf803799c                rel_mpf
                0xf8037b44                ini_mpf
                0xf8037c04                ref_mpf
 .text          0xf8037d0c      0x398 C:/ProgramData/KMC/SOLID/SDK/2.0/solid-os/rtos/toppers_asp3/lib/armv7aLaiv/GR__\libkernel.a(log_output.o)
                0xf8037e2c                syslog_printf
                0xf8038034                syslog_print
                0xf8038070                syslog_lostmsg
 .text          0xf80380a4      0xc08 C:/ProgramData/KMC/SOLID/SDK/2.0/solid-os/rtos/toppers_asp3/lib/armv7aLaiv/GR__\libkernel.a(mutex.o)
                0xf80380a4                _kernel_mutex_check_ceilpri
                0xf8038138                _kernel_mutex_scan_ceilmtx
                0xf8038178                _kernel_initialize_mutex
                0xf803820c                mutex_calc_priority
                0xf8038260                _kernel_mutex_drop_priority
                0xf80382ec                _kernel_mutex_acquire
                0xf8038344                _kernel_mutex_release
                0xf80384b0                _kernel_mutex_release_all
                0xf8038548                loc_mtx
                0xf80386c4                ploc_mtx
                0xf80387f8                tloc_mtx
                0xf80389b0                unl_mtx
                0xf8038aa4                ini_mtx
                0xf8038b78                ref_mtx
 .text          0xf8038cac      0xdd0 C:/ProgramData/KMC/SOLID/SDK/2.0/solid-os/rtos/toppers_asp3/lib/armv7aLaiv/GR__\libkernel.a(pridataq.o)
                0xf8038cac                _kernel_initialize_pridataq
                0xf8038de8                _kernel_enqueue_pridata
                0xf8038e68                _kernel_dequeue_pridata
                0xf8038ea4                _kernel_send_pridata
                0xf8038f70                _kernel_receive_pridata
                0xf80390d4                snd_pdq
                0xf8039210                psnd_pdq
                0xf80392e4                tsnd_pdq
                0xf8039454                rcv_pdq
                0xf80395c8                prcv_pdq
                0xf803967c                trcv_pdq
                0xf8039818                ini_pdq
                0xf80398e0                ref_pdq
 .text.unlikely
                0xf8039a7c       0x44 C:/ProgramData/KMC/SOLID/SDK/2.0/solid-os/rtos/toppers_asp3/lib/armv7aLaiv/GR__\libkernel.a(pridataq.o)
 .text          0xf8039ac0      0x414 C:/ProgramData/KMC/SOLID/SDK/2.0/solid-os/rtos/toppers_asp3/lib/armv7aLaiv/GR__\libkernel.a(task_refer.o)
                0xf8039ac0                ref_tsk
 .text          0xf8039ed4      0x7f8 C:/ProgramData/KMC/SOLID/SDK/2.0/solid-os/rtos/toppers_asp3/lib/armv7aLaiv/GR__\libkernel.a(task_sync.o)
                0xf8039ed4                slp_tsk
                0xf8039f90                tslp_tsk
                0xf803a070                wup_tsk
                0xf803a18c                can_wup
                0xf803a228                rel_wai
                0xf803a3ac                sus_tsk
                0xf803a4f8                rsm_tsk
                0xf803a5e4                dly_tsk
 .text          0xf803a6cc      0x3b4 C:/ProgramData/KMC/SOLID/SDK/2.0/solid-os/rtos/toppers_asp3/lib/armv7aLaiv/GR__\libkernel.a(task_term.o)
                0xf803a6cc                ext_tsk
                0xf803a76c                ras_ter
                0xf803a8c0                dis_ter
                0xf803a90c                ena_ter
                0xf803a988                sns_ter
                0xf803a9ac                ter_tsk
 .text          0xf803aa80      0x1e0 C:/ProgramData/KMC/SOLID/SDK/2.0/solid-os/rtos/toppers_asp3/lib/armv7aLaiv/GR__\libkernel.a(time_manage.o)
                0xf803aa80                set_tim
                0xf803aaf0                get_tim
                0xf803ab60                adj_tim
                0xf803ac38                fch_hrt
 .text          0xf803ac60       0x28 C:/Users/admin/Documents/SOLID-IDE/Projects/cpptest/Release/exeGCC_SOLID/\libbsp.a(impl_cs_event.o)
                0xf803ac60                IMPL_CS_EventNotify
 .text          0xf803ac88      0x44c C:/Users/admin/Documents/SOLID-IDE/Projects/cpptest/Release/exeGCC_SOLID/\libbsp.a(impl_dmac.o)
                0xf803acdc                IMPL_DMAC_Init
                0xf803ad80                IMPL_DMAC_Use
                0xf803adf0                IMPL_DMAC_UnUse
                0xf803ae1c                IMPL_DMAC_StartTransfer
                0xf803b018                IMPL_DMAC_AbortTransfer
                0xf803b078                IMPL_DMAC_GetConfigIdx
 .text          0xf803b0d4       0x18 C:/Users/admin/Documents/SOLID-IDE/Projects/cpptest/Release/exeGCC_SOLID/\libbsp.a(impl_iores.o)
                0xf803b0d4                IMPL_IORES_GetConfig
 .text          0xf803b0ec       0xf8 C:/Users/admin/Documents/SOLID-IDE/Projects/cpptest/Release/exeGCC_SOLID/\libbsp.a(impl_log.o)
                0xf803b0ec                IMPL_LOG_Init
                0xf803b1ac                IMPL_LOG_Putc
 .text          0xf803b1e4     0x1228 C:/Users/admin/Documents/SOLID-IDE/Projects/cpptest/Release/exeGCC_SOLID/\libbsp.a(impl_net_dev_ether.o)
                0xf803bff0                IMPL_NET_DEV_init
 .text          0xf803c40c      0x4c4 C:/Users/admin/Documents/SOLID-IDE/Projects/cpptest/Release/exeGCC_SOLID/\libbsp.a(impl_net_dev_get_macaddr.o)
                0xf803c468                IMPL_NET_DEV_get_macaddr
 .text          0xf803c8d0        0xc C:/Users/admin/Documents/SOLID-IDE/Projects/cpptest/Release/exeGCC_SOLID/\libbsp.a(impl_net_dev_getconfig.o)
                0xf803c8d0                IMPL_NET_DEV_get_netconfig
 .text          0xf803c8dc      0x134 C:/Users/admin/Documents/SOLID-IDE/Projects/cpptest/Release/exeGCC_SOLID/\libbsp.a(impl_rtc.o)
                0xf803c8dc                IMPL_RTC_Init
                0xf803c910                IMPL_RTC_ReadTime
                0xf803c990                IMPL_RTC_SetTime
 .text          0xf803ca10      0x1ac C:/Users/admin/Documents/SOLID-IDE/Projects/cpptest/Release/exeGCC_SOLID/\libbsp.a(impl_timer.o)
                0xf803ca10                IMPL_TIMER_Init
                0xf803ca6c                IMPL_TIMER_GetTimerTick
                0xf803ca80                IMPL_TIMER_SetTimer
                0xf803cab8                IMPL_TIMER_ClearInterrupt
                0xf803cabc                IMPL_TIMER_Suspend
                0xf803cad8                IMPL_TIMER_Resume
                0xf803caf4                IMPL_GLOBAL_TICK_Init
                0xf803cb6c                IMPL_GLOBAL_TICK_GetCurrent
                0xf803cb84                IMPL_GLOBAL_TICK_Suspend
                0xf803cba0                IMPL_GLOBAL_TICK_Resume
 .text          0xf803cbbc      0xd9c C:/Users/admin/Documents/SOLID-IDE/Projects/cpptest/Release/exeGCC_SOLID/\libbsp.a(rtc.o)
                0xf803d098                R_RTC_Init
                0xf803d0b4                R_RTC_Open
                0xf803d104                R_RTC_Close
                0xf803d154                R_RTC_SetCnt
                0xf803d2dc                R_RTC_GetCnt
                0xf803d3e0                R_RTC_SetAlarm
                0xf803d71c                R_RTC_GetAlarm
 .text          0xf803d958      0x1b0 C:/Users/admin/Documents/SOLID-IDE/Projects/cpptest/Release/exeGCC_SOLID/\libbsp.a(rtc_userdef.o)
                0xf803d958                Userdef_RTC_Init
 .text          0xf803db08      0x124 C:/Users/admin/Documents/SOLID-IDE/Projects/cpptest/Release/exeGCC_SOLID/\libbsp.a(bsp_globals.o)
                0xf803db08                IMPL_SYSTEM_IO_Initialize
 .text          0xf803dc2c       0xf8 C:/Users/admin/Documents/SOLID-IDE/Projects/cpptest/Release/exeGCC_SOLID/\libbsp.a(rza_io_regrw.o)
                0xf803dc2c                RZA_IO_RegWrite_8
                0xf803dc58                RZA_IO_RegWrite_16
                0xf803dc84                RZA_IO_RegWrite_32
                0xf803dcac                RZA_IO_RegRead_8
                0xf803dcd4                RZA_IO_RegRead_16
                0xf803dcfc                RZA_IO_RegRead_32
 .text          0xf803dd24        0x0 C:/GCC4/ARM/s002/lib/armv7aLaiv\libstdc++.a(class_type_info.o)
 .text._ZNK10__cxxabiv117__class_type_info11__do_upcastEPKS0_PPv
                0xf803dd24       0x5c C:/GCC4/ARM/s002/lib/armv7aLaiv\libstdc++.a(class_type_info.o)
                0xf803dd24                _ZNK10__cxxabiv117__class_type_info11__do_upcastEPKS0_PPv
 .text._ZNK10__cxxabiv117__class_type_info20__do_find_public_srcEiPKvPKS0_S2_
                0xf803dd80       0x14 C:/GCC4/ARM/s002/lib/armv7aLaiv\libstdc++.a(class_type_info.o)
                0xf803dd80                _ZNK10__cxxabiv117__class_type_info20__do_find_public_srcEiPKvPKS0_S2_
 .text._ZN10__cxxabiv117__class_type_infoD2Ev
                0xf803dd94       0x20 C:/GCC4/ARM/s002/lib/armv7aLaiv\libstdc++.a(class_type_info.o)
                0xf803dd94                _ZN10__cxxabiv117__class_type_infoD2Ev
                0xf803dd94                _ZN10__cxxabiv117__class_type_infoD1Ev
 .text._ZN10__cxxabiv117__class_type_infoD0Ev
                0xf803ddb4       0x2c C:/GCC4/ARM/s002/lib/armv7aLaiv\libstdc++.a(class_type_info.o)
                0xf803ddb4                _ZN10__cxxabiv117__class_type_infoD0Ev
 .text._ZNK10__cxxabiv117__class_type_info11__do_upcastEPKS0_PKvRNS0_15__upcast_resultE
                0xf803dde0       0x2c C:/GCC4/ARM/s002/lib/armv7aLaiv\libstdc++.a(class_type_info.o)
                0xf803dde0                _ZNK10__cxxabiv117__class_type_info11__do_upcastEPKS0_PKvRNS0_15__upcast_resultE
 .text._ZNK10__cxxabiv117__class_type_info10__do_catchEPKSt9type_infoPPvj
                0xf803de0c       0x44 C:/GCC4/ARM/s002/lib/armv7aLaiv\libstdc++.a(class_type_info.o)
                0xf803de0c                _ZNK10__cxxabiv117__class_type_info10__do_catchEPKSt9type_infoPPvj
 .text._ZNK10__cxxabiv117__class_type_info12__do_dyncastEiNS0_10__sub_kindEPKS0_PKvS3_S5_RNS0_16__dyncast_resultE
                0xf803de50       0x78 C:/GCC4/ARM/s002/lib/armv7aLaiv\libstdc++.a(class_type_info.o)
                0xf803de50                _ZNK10__cxxabiv117__class_type_info12__do_dyncastEiNS0_10__sub_kindEPKS0_PKvS3_S5_RNS0_16__dyncast_resultE
 .text          0xf803dec8        0x0 C:/GCC4/ARM/s002/lib/armv7aLaiv\libstdc++.a(atexit_arm.o)
 .text.__aeabi_atexit
                0xf803dec8       0x10 C:/GCC4/ARM/s002/lib/armv7aLaiv\libstdc++.a(atexit_arm.o)
                0xf803dec8                __aeabi_atexit
 .text          0xf803ded8        0x0 C:/GCC4/ARM/s002/lib/armv7aLaiv\libstdc++.a(del_ops.o)
 .text._ZdlPvj  0xf803ded8        0x4 C:/GCC4/ARM/s002/lib/armv7aLaiv\libstdc++.a(del_ops.o)
                0xf803ded8                _ZdlPvj
 .text          0xf803dedc        0x0 C:/GCC4/ARM/s002/lib/armv7aLaiv\libstdc++.a(si_class_type_info.o)
 .text._ZN10__cxxabiv120__si_class_type_infoD2Ev
                0xf803dedc       0x20 C:/GCC4/ARM/s002/lib/armv7aLaiv\libstdc++.a(si_class_type_info.o)
                0xf803dedc                _ZN10__cxxabiv120__si_class_type_infoD1Ev
                0xf803dedc                _ZN10__cxxabiv120__si_class_type_infoD2Ev
 .text._ZN10__cxxabiv120__si_class_type_infoD0Ev
                0xf803defc       0x2c C:/GCC4/ARM/s002/lib/armv7aLaiv\libstdc++.a(si_class_type_info.o)
                0xf803defc                _ZN10__cxxabiv120__si_class_type_infoD0Ev
 .text._ZNK10__cxxabiv120__si_class_type_info20__do_find_public_srcEiPKvPKNS_17__class_type_infoES2_
                0xf803df28       0x6c C:/GCC4/ARM/s002/lib/armv7aLaiv\libstdc++.a(si_class_type_info.o)
                0xf803df28                _ZNK10__cxxabiv120__si_class_type_info20__do_find_public_srcEiPKvPKNS_17__class_type_infoES2_
 .text._ZNK10__cxxabiv120__si_class_type_info12__do_dyncastEiNS_17__class_type_info10__sub_kindEPKS1_PKvS4_S6_RNS1_16__dyncast_resultE
                0xf803df94       0xe0 C:/GCC4/ARM/s002/lib/armv7aLaiv\libstdc++.a(si_class_type_info.o)
                0xf803df94                _ZNK10__cxxabiv120__si_class_type_info12__do_dyncastEiNS_17__class_type_info10__sub_kindEPKS1_PKvS4_S6_RNS1_16__dyncast_resultE
 .text._ZNK10__cxxabiv120__si_class_type_info11__do_upcastEPKNS_17__class_type_infoEPKvRNS1_15__upcast_resultE
                0xf803e074       0x44 C:/GCC4/ARM/s002/lib/armv7aLaiv\libstdc++.a(si_class_type_info.o)
                0xf803e074                _ZNK10__cxxabiv120__si_class_type_info11__do_upcastEPKNS_17__class_type_infoEPKvRNS1_15__upcast_resultE
 .text          0xf803e0b8        0x0 C:/GCC4/ARM/s002/lib/armv7aLaiv\libstdc++.a(del_op.o)
 .text._ZdlPv   0xf803e0b8        0x4 C:/GCC4/ARM/s002/lib/armv7aLaiv\libstdc++.a(del_op.o)
                0xf803e0b8                _ZdlPv
 .text          0xf803e0bc        0x0 C:/GCC4/ARM/s002/lib/armv7aLaiv\libstdc++.a(tinfo.o)
 .text._ZNSt9type_infoD2Ev
                0xf803e0bc        0x4 C:/GCC4/ARM/s002/lib/armv7aLaiv\libstdc++.a(tinfo.o)
                0xf803e0bc                _ZNSt9type_infoD2Ev
                0xf803e0bc                _ZNSt9type_infoD1Ev
 .text._ZNKSt9type_info15__is_function_pEv
                0xf803e0c0        0x8 C:/GCC4/ARM/s002/lib/armv7aLaiv\libstdc++.a(tinfo.o)
                0xf803e0c0                _ZNKSt9type_info14__is_pointer_pEv
                0xf803e0c0                _ZNKSt9type_info15__is_function_pEv
 .text._ZNKSt9type_info11__do_upcastEPKN10__cxxabiv117__class_type_infoEPPv
                0xf803e0c8        0x8 C:/GCC4/ARM/s002/lib/armv7aLaiv\libstdc++.a(tinfo.o)
                0xf803e0c8                _ZNKSt9type_info11__do_upcastEPKN10__cxxabiv117__class_type_infoEPPv
 .text._ZNSt9type_infoD0Ev
                0xf803e0d0       0x18 C:/GCC4/ARM/s002/lib/armv7aLaiv\libstdc++.a(tinfo.o)
                0xf803e0d0                _ZNSt9type_infoD0Ev
 .text._ZNKSt9type_infoeqERKS_
                0xf803e0e8       0x4c C:/GCC4/ARM/s002/lib/armv7aLaiv\libstdc++.a(tinfo.o)
                0xf803e0e8                _ZNKSt9type_infoeqERKS_
 .text._ZNKSt9type_info10__do_catchEPKS_PPvj
                0xf803e134        0x4 C:/GCC4/ARM/s002/lib/armv7aLaiv\libstdc++.a(tinfo.o)
                0xf803e134                _ZNKSt9type_info10__do_catchEPKS_PPvj
 .text          0xf803e138      0x20c C:/GCC4/ARM/s002/lib/armv7aLaiv/libgcc.a(_udivsi3.o)
                0xf803e138                __aeabi_uidiv
                0xf803e138                __udivsi3
                0xf803e324                __aeabi_uidivmod
 .text          0xf803e344        0x4 C:/GCC4/ARM/s002/lib/armv7aLaiv/libgcc.a(_dvmd_tls.o)
                0xf803e344                __aeabi_idiv0
                0xf803e344                __aeabi_ldiv0
 .text          0xf803e348       0x3c C:/GCC4/ARM/s002/lib/armv7aLaiv/libgcc.a(_aeabi_uldivmod.o)
                0xf803e348                __aeabi_uldivmod
 .text          0xf803e384        0x0 C:/GCC4/ARM/s002/lib/armv7aLaiv/libgcc.a(_udivmoddi4.o)
 .text.__udivmoddi4
                0xf803e384      0x128 C:/GCC4/ARM/s002/lib/armv7aLaiv/libgcc.a(_udivmoddi4.o)
                0xf803e384                __udivmoddi4
 .text          0xf803e4ac        0x0 C:/GCC4/ARM/s002/lib/armv7aLaiv/libgcc.a(unwind-arm.o)
 .text.selfrel_offset31
                0xf803e4ac       0x18 C:/GCC4/ARM/s002/lib/armv7aLaiv/libgcc.a(unwind-arm.o)
 .text.search_EIT_table
                0xf803e4c4       0x8c C:/GCC4/ARM/s002/lib/armv7aLaiv/libgcc.a(unwind-arm.o)
 .text.__gnu_unwind_get_pr_addr
                0xf803e550       0x3c C:/GCC4/ARM/s002/lib/armv7aLaiv/libgcc.a(unwind-arm.o)
 .text.get_eit_entry
                0xf803e58c      0x114 C:/GCC4/ARM/s002/lib/armv7aLaiv/libgcc.a(unwind-arm.o)
 .text.restore_non_core_regs
                0xf803e6a0       0x88 C:/GCC4/ARM/s002/lib/armv7aLaiv/libgcc.a(unwind-arm.o)
 .text._Unwind_decode_typeinfo_ptr.isra.0
                0xf803e728       0x14 C:/GCC4/ARM/s002/lib/armv7aLaiv/libgcc.a(unwind-arm.o)
 .text.__gnu_unwind_24bit.isra.1
                0xf803e73c        0x8 C:/GCC4/ARM/s002/lib/armv7aLaiv/libgcc.a(unwind-arm.o)
 .text._Unwind_DebugHook
                0xf803e744        0x4 C:/GCC4/ARM/s002/lib/armv7aLaiv/libgcc.a(unwind-arm.o)
 .text.unwind_phase2
                0xf803e748       0x68 C:/GCC4/ARM/s002/lib/armv7aLaiv/libgcc.a(unwind-arm.o)
 .text.unwind_phase2_forced
                0xf803e7b0      0x160 C:/GCC4/ARM/s002/lib/armv7aLaiv/libgcc.a(unwind-arm.o)
 .text._Unwind_GetCFA
                0xf803e910        0x8 C:/GCC4/ARM/s002/lib/armv7aLaiv/libgcc.a(unwind-arm.o)
                0xf803e910                _Unwind_GetCFA
 .text.__gnu_Unwind_RaiseException
                0xf803e918       0xa8 C:/GCC4/ARM/s002/lib/armv7aLaiv/libgcc.a(unwind-arm.o)
                0xf803e918                __gnu_Unwind_RaiseException
 .text.__gnu_Unwind_ForcedUnwind
                0xf803e9c0       0x24 C:/GCC4/ARM/s002/lib/armv7aLaiv/libgcc.a(unwind-arm.o)
                0xf803e9c0                __gnu_Unwind_ForcedUnwind
 .text.__gnu_Unwind_Resume
                0xf803e9e4       0x74 C:/GCC4/ARM/s002/lib/armv7aLaiv/libgcc.a(unwind-arm.o)
                0xf803e9e4                __gnu_Unwind_Resume
 .text.__gnu_Unwind_Resume_or_Rethrow
                0xf803ea58       0x20 C:/GCC4/ARM/s002/lib/armv7aLaiv/libgcc.a(unwind-arm.o)
                0xf803ea58                __gnu_Unwind_Resume_or_Rethrow
 .text._Unwind_Complete
                0xf803ea78        0x4 C:/GCC4/ARM/s002/lib/armv7aLaiv/libgcc.a(unwind-arm.o)
                0xf803ea78                _Unwind_Complete
 .text._Unwind_DeleteException
                0xf803ea7c       0x18 C:/GCC4/ARM/s002/lib/armv7aLaiv/libgcc.a(unwind-arm.o)
                0xf803ea7c                _Unwind_DeleteException
 .text._Unwind_VRS_Get
                0xf803ea94       0x5c C:/GCC4/ARM/s002/lib/armv7aLaiv/libgcc.a(unwind-arm.o)
                0xf803ea94                _Unwind_VRS_Get
 .text._Unwind_GetGR
                0xf803eaf0       0x2c C:/GCC4/ARM/s002/lib/armv7aLaiv/libgcc.a(unwind-arm.o)
 .text._Unwind_VRS_Set
                0xf803eb1c       0x5c C:/GCC4/ARM/s002/lib/armv7aLaiv/libgcc.a(unwind-arm.o)
                0xf803eb1c                _Unwind_VRS_Set
 .text._Unwind_SetGR
                0xf803eb78       0x2c C:/GCC4/ARM/s002/lib/armv7aLaiv/libgcc.a(unwind-arm.o)
 .text.__gnu_Unwind_Backtrace
                0xf803eba4       0xc0 C:/GCC4/ARM/s002/lib/armv7aLaiv/libgcc.a(unwind-arm.o)
                0xf803eba4                __gnu_Unwind_Backtrace
 .text.__gnu_unwind_pr_common
                0xf803ec64      0x474 C:/GCC4/ARM/s002/lib/armv7aLaiv/libgcc.a(unwind-arm.o)
 .text.__aeabi_unwind_cpp_pr0
                0xf803f0d8        0x8 C:/GCC4/ARM/s002/lib/armv7aLaiv/libgcc.a(unwind-arm.o)
                0xf803f0d8                __aeabi_unwind_cpp_pr0
 .text.__aeabi_unwind_cpp_pr1
                0xf803f0e0        0x8 C:/GCC4/ARM/s002/lib/armv7aLaiv/libgcc.a(unwind-arm.o)
                0xf803f0e0                __aeabi_unwind_cpp_pr1
 .text.__aeabi_unwind_cpp_pr2
                0xf803f0e8        0x8 C:/GCC4/ARM/s002/lib/armv7aLaiv/libgcc.a(unwind-arm.o)
                0xf803f0e8                __aeabi_unwind_cpp_pr2
 .text._Unwind_VRS_Pop
                0xf803f0f0      0x3d0 C:/GCC4/ARM/s002/lib/armv7aLaiv/libgcc.a(unwind-arm.o)
                0xf803f0f0                _Unwind_VRS_Pop
 .text          0xf803f4c0      0x1a8 C:/GCC4/ARM/s002/lib/armv7aLaiv/libgcc.a(libunwind.o)
                0xf803f4c0                __restore_core_regs
                0xf803f4c0                restore_core_regs
                0xf803f4d4                __gnu_Unwind_Restore_VFP
                0xf803f4dc                __gnu_Unwind_Save_VFP
                0xf803f4e4                __gnu_Unwind_Restore_VFP_D
                0xf803f4ec                __gnu_Unwind_Save_VFP_D
                0xf803f4f4                __gnu_Unwind_Restore_VFP_D_16_to_31
                0xf803f4fc                __gnu_Unwind_Save_VFP_D_16_to_31
                0xf803f504                __gnu_Unwind_Restore_WMMXD
                0xf803f548                __gnu_Unwind_Save_WMMXD
                0xf803f58c                __gnu_Unwind_Restore_WMMXC
                0xf803f5a0                __gnu_Unwind_Save_WMMXC
                0xf803f5b4                ___Unwind_RaiseException
                0xf803f5b4                _Unwind_RaiseException
                0xf803f5d8                _Unwind_Resume
                0xf803f5d8                ___Unwind_Resume
                0xf803f5fc                _Unwind_Resume_or_Rethrow
                0xf803f5fc                ___Unwind_Resume_or_Rethrow
                0xf803f620                _Unwind_ForcedUnwind
                0xf803f620                ___Unwind_ForcedUnwind
                0xf803f644                ___Unwind_Backtrace
                0xf803f644                _Unwind_Backtrace
 .text          0xf803f668        0x0 C:/GCC4/ARM/s002/lib/armv7aLaiv/libgcc.a(pr-support.o)
 .text.next_unwind_byte
                0xf803f668       0x64 C:/GCC4/ARM/s002/lib/armv7aLaiv/libgcc.a(pr-support.o)
 .text._Unwind_GetGR.constprop.0
                0xf803f6cc       0x2c C:/GCC4/ARM/s002/lib/armv7aLaiv/libgcc.a(pr-support.o)
 .text.unwind_UCB_from_context
                0xf803f6f8        0x4 C:/GCC4/ARM/s002/lib/armv7aLaiv/libgcc.a(pr-support.o)
 .text.__gnu_unwind_execute
                0xf803f6fc      0x404 C:/GCC4/ARM/s002/lib/armv7aLaiv/libgcc.a(pr-support.o)
                0xf803f6fc                __gnu_unwind_execute
 .text.__gnu_unwind_frame
                0xf803fb00       0x40 C:/GCC4/ARM/s002/lib/armv7aLaiv/libgcc.a(pr-support.o)
                0xf803fb00                __gnu_unwind_frame
 .text._Unwind_GetRegionStart
                0xf803fb40       0x10 C:/GCC4/ARM/s002/lib/armv7aLaiv/libgcc.a(pr-support.o)
                0xf803fb40                _Unwind_GetRegionStart
 .text._Unwind_GetLanguageSpecificData
                0xf803fb50       0x1c C:/GCC4/ARM/s002/lib/armv7aLaiv/libgcc.a(pr-support.o)
                0xf803fb50                _Unwind_GetLanguageSpecificData
 .text._Unwind_GetTextRelBase
                0xf803fb6c        0x8 C:/GCC4/ARM/s002/lib/armv7aLaiv/libgcc.a(pr-support.o)
                0xf803fb6c                _Unwind_GetTextRelBase
 .text._Unwind_GetDataRelBase
                0xf803fb74        0x8 C:/GCC4/ARM/s002/lib/armv7aLaiv/libgcc.a(pr-support.o)
                0xf803fb74                _Unwind_GetDataRelBase
 .text          0xf803fb7c        0x0 C:/GCC4/ARM/s002/lib/armv7aLaiv/libc.a(_m_init.o)
 .text._m_init  0xf803fb7c       0x68 C:/GCC4/ARM/s002/lib/armv7aLaiv/libc.a(_m_init.o)
                0xf803fb7c                _m_init
 .text.startup  0xf803fbe4       0x34 C:/GCC4/ARM/s002/lib/armv7aLaiv/libc.a(_m_init.o)
                0xf803fbe4                _libc_init
 .text.__kmc_get_current_mspace
                0xf803fc18       0x10 C:/GCC4/ARM/s002/lib/armv7aLaiv/libc.a(_m_init.o)
                0xf803fc18                __kmc_get_current_mspace
 .text.malloc   0xf803fc28       0x70 C:/GCC4/ARM/s002/lib/armv7aLaiv/libc.a(_m_init.o)
                0xf803fc28                malloc
 .text.free     0xf803fc98       0x5c C:/GCC4/ARM/s002/lib/armv7aLaiv/libc.a(_m_init.o)
                0xf803fc98                free
 .text.realloc  0xf803fcf4       0x78 C:/GCC4/ARM/s002/lib/armv7aLaiv/libc.a(_m_init.o)
                0xf803fcf4                realloc
 .text.calloc   0xf803fd6c       0x78 C:/GCC4/ARM/s002/lib/armv7aLaiv/libc.a(_m_init.o)
                0xf803fd6c                calloc
 .text.mallinfo
                0xf803fde4       0x6c C:/GCC4/ARM/s002/lib/armv7aLaiv/libc.a(_m_init.o)
                0xf803fde4                mallinfo
 .text.memalign
                0xf803fe50       0x78 C:/GCC4/ARM/s002/lib/armv7aLaiv/libc.a(_m_init.o)
                0xf803fe50                memalign
 .text.malloc_footprint
                0xf803fec8       0x68 C:/GCC4/ARM/s002/lib/armv7aLaiv/libc.a(_m_init.o)
                0xf803fec8                malloc_footprint
 .text.malloc_max_footprint
                0xf803ff30       0x68 C:/GCC4/ARM/s002/lib/armv7aLaiv/libc.a(_m_init.o)
                0xf803ff30                malloc_max_footprint
 .text.malloc_footprint_limit
                0xf803ff98       0x68 C:/GCC4/ARM/s002/lib/armv7aLaiv/libc.a(_m_init.o)
                0xf803ff98                malloc_footprint_limit
 .text.malloc_set_footprint_limit
                0xf8040000       0x74 C:/GCC4/ARM/s002/lib/armv7aLaiv/libc.a(_m_init.o)
                0xf8040000                malloc_set_footprint_limit
 .text          0xf8040074        0x0 C:/GCC4/ARM/s002/lib/armv7aLaiv/libc.a(abort.o)
 .text._abort   0xf8040074       0x28 C:/GCC4/ARM/s002/lib/armv7aLaiv/libc.a(abort.o)
                0xf8040074                _abort
 .text.abort    0xf804009c       0x14 C:/GCC4/ARM/s002/lib/armv7aLaiv/libc.a(abort.o)
                0xf804009c                abort
 .text          0xf80400b0        0x0 C:/GCC4/ARM/s002/lib/armv7aLaiv/libc.a(errno.o)
 .text.__get_errno_addr
                0xf80400b0        0xc C:/GCC4/ARM/s002/lib/armv7aLaiv/libc.a(errno.o)
                0xf80400b0                __get_errno_addr
 .text.__get_vlink_errno_addr
                0xf80400bc        0xc C:/GCC4/ARM/s002/lib/armv7aLaiv/libc.a(errno.o)
                0xf80400bc                __get_vlink_errno_addr
 .text          0xf80400c8        0x0 C:/GCC4/ARM/s002/lib/armv7aLaiv/libc.a(atoi.o)
 .text.atoi     0xf80400c8        0xc C:/GCC4/ARM/s002/lib/armv7aLaiv/libc.a(atoi.o)
                0xf80400c8                atoi
 .text          0xf80400d4        0x0 C:/GCC4/ARM/s002/lib/armv7aLaiv/libc.a(rand.o)
 .text.rand     0xf80400d4       0x28 C:/GCC4/ARM/s002/lib/armv7aLaiv/libc.a(rand.o)
                0xf80400d4                rand
 .text.srand    0xf80400fc       0x10 C:/GCC4/ARM/s002/lib/armv7aLaiv/libc.a(rand.o)
                0xf80400fc                srand
 .text          0xf804010c        0x0 C:/GCC4/ARM/s002/lib/armv7aLaiv/libc.a(strtol.o)
 .text._int_strtol_l
                0xf804010c      0x2a4 C:/GCC4/ARM/s002/lib/armv7aLaiv/libc.a(strtol.o)
 .text.strtol   0xf80403b0        0xc C:/GCC4/ARM/s002/lib/armv7aLaiv/libc.a(strtol.o)
                0xf80403b0                strtol
 .text.strtol_l
                0xf80403bc        0x4 C:/GCC4/ARM/s002/lib/armv7aLaiv/libc.a(strtol.o)
                0xf80403bc                strtol_l
 .text          0xf80403c0        0x0 C:/GCC4/ARM/s002/lib/armv7aLaiv/libc.a(strtoul.o)
 .text._int_strtoul_l
                0xf80403c0      0x214 C:/GCC4/ARM/s002/lib/armv7aLaiv/libc.a(strtoul.o)
 .text.strtoul  0xf80405d4        0xc C:/GCC4/ARM/s002/lib/armv7aLaiv/libc.a(strtoul.o)
                0xf80405d4                strtoul
 .text.strtoul_l
                0xf80405e0        0x4 C:/GCC4/ARM/s002/lib/armv7aLaiv/libc.a(strtoul.o)
                0xf80405e0                strtoul_l
 .text          0xf80405e4        0x0 C:/GCC4/ARM/s002/lib/armv7aLaiv/libc.a(atexit.o)
 .text.startup  0xf80405e4       0x34 C:/GCC4/ARM/s002/lib/armv7aLaiv/libc.a(atexit.o)
                0xf80405e4                __libc_atexit_init
 .text.__cxa_atexit
                0xf8040618       0xc4 C:/GCC4/ARM/s002/lib/armv7aLaiv/libc.a(atexit.o)
                0xf8040618                __cxa_atexit
 .text.__cxa_finalize
                0xf80406dc      0x178 C:/GCC4/ARM/s002/lib/armv7aLaiv/libc.a(atexit.o)
                0xf80406dc                __cxa_finalize
 .text.atexit   0xf8040854        0xc C:/GCC4/ARM/s002/lib/armv7aLaiv/libc.a(atexit.o)
                0xf8040854                atexit
 .text          0xf8040860       0xd0 C:/GCC4/ARM/s002/lib/armv7aLaiv/libc.a(memcmp.o)
                0xf8040860                memcmp
                0xf8040860                __aeabi_memcmp
 .text          0xf8040930      0x240 C:/GCC4/ARM/s002/lib/armv7aLaiv/libc.a(memcpy.o)
                0xf8040930                __aeabi_memcpy
                0xf8040930                __aeabi_memcpy4
                0xf8040930                __aeabi_memcpy8
                0xf8040930                memcpy
 .text          0xf8040b70      0x148 C:/GCC4/ARM/s002/lib/armv7aLaiv/libc.a(memset.o)
                0xf8040b70                __aeabi_memset4
                0xf8040b70                __aeabi_memset8
                0xf8040b70                __aeabi_memset
                0xf8040b80                __aeabi_memclr
                0xf8040b80                __aeabi_memclr4
                0xf8040b80                __aeabi_memclr8
                0xf8040b8c                memset
 .text          0xf8040cb8      0x1e4 C:/GCC4/ARM/s002/lib/armv7aLaiv/libc.a(strncpy.o)
                0xf8040cb8                strncpy
 .text          0xf8040e9c       0x1c C:/GCC4/ARM/s002/lib/armv7aLaiv/libc.a(strcmp.o)
                0xf8040e9c                strcmp
 .text          0xf8040eb8       0x30 C:/GCC4/ARM/s002/lib/armv7aLaiv/libc.a(strncmp.o)
                0xf8040eb8                strncmp
 .text          0xf8040ee8       0x50 C:/GCC4/ARM/s002/lib/armv7aLaiv/libc.a(strlen.o)
                0xf8040ee8                strlen
 .text          0xf8040f38        0x0 C:/GCC4/ARM/s002/lib/armv7aLaiv/libc.a(isctype.o)
 .text.isalnum  0xf8040f38       0x1c C:/GCC4/ARM/s002/lib/armv7aLaiv/libc.a(isctype.o)
                0xf8040f38                isalnum
 .text.isalnum_l
                0xf8040f54       0x18 C:/GCC4/ARM/s002/lib/armv7aLaiv/libc.a(isctype.o)
                0xf8040f54                isalnum_l
 .text.isalpha  0xf8040f6c       0x1c C:/GCC4/ARM/s002/lib/armv7aLaiv/libc.a(isctype.o)
                0xf8040f6c                isalpha
 .text.isalpha_l
                0xf8040f88       0x18 C:/GCC4/ARM/s002/lib/armv7aLaiv/libc.a(isctype.o)
                0xf8040f88                isalpha_l
 .text.isblank  0xf8040fa0       0x1c C:/GCC4/ARM/s002/lib/armv7aLaiv/libc.a(isctype.o)
                0xf8040fa0                isblank
 .text.isblank_l
                0xf8040fbc       0x18 C:/GCC4/ARM/s002/lib/armv7aLaiv/libc.a(isctype.o)
                0xf8040fbc                isblank_l
 .text.iscntrl  0xf8040fd4       0x1c C:/GCC4/ARM/s002/lib/armv7aLaiv/libc.a(isctype.o)
                0xf8040fd4                iscntrl
 .text.iscntrl_l
                0xf8040ff0       0x18 C:/GCC4/ARM/s002/lib/armv7aLaiv/libc.a(isctype.o)
                0xf8040ff0                iscntrl_l
 .text.isdigit  0xf8041008       0x1c C:/GCC4/ARM/s002/lib/armv7aLaiv/libc.a(isctype.o)
                0xf8041008                isdigit
 .text.isdigit_l
                0xf8041024       0x18 C:/GCC4/ARM/s002/lib/armv7aLaiv/libc.a(isctype.o)
                0xf8041024                isdigit_l
 .text.isgraph  0xf804103c       0x1c C:/GCC4/ARM/s002/lib/armv7aLaiv/libc.a(isctype.o)
                0xf804103c                isgraph
 .text.isgraph_l
                0xf8041058       0x18 C:/GCC4/ARM/s002/lib/armv7aLaiv/libc.a(isctype.o)
                0xf8041058                isgraph_l
 .text.islower  0xf8041070       0x1c C:/GCC4/ARM/s002/lib/armv7aLaiv/libc.a(isctype.o)
                0xf8041070                islower
 .text.islower_l
                0xf804108c       0x18 C:/GCC4/ARM/s002/lib/armv7aLaiv/libc.a(isctype.o)
                0xf804108c                islower_l
 .text.isprint  0xf80410a4       0x1c C:/GCC4/ARM/s002/lib/armv7aLaiv/libc.a(isctype.o)
                0xf80410a4                isprint
 .text.isprint_l
                0xf80410c0       0x18 C:/GCC4/ARM/s002/lib/armv7aLaiv/libc.a(isctype.o)
                0xf80410c0                isprint_l
 .text.ispunct  0xf80410d8       0x1c C:/GCC4/ARM/s002/lib/armv7aLaiv/libc.a(isctype.o)
                0xf80410d8                ispunct
 .text.ispunct_l
                0xf80410f4       0x18 C:/GCC4/ARM/s002/lib/armv7aLaiv/libc.a(isctype.o)
                0xf80410f4                ispunct_l
 .text.isspace  0xf804110c       0x1c C:/GCC4/ARM/s002/lib/armv7aLaiv/libc.a(isctype.o)
                0xf804110c                isspace
 .text.isspace_l
                0xf8041128       0x18 C:/GCC4/ARM/s002/lib/armv7aLaiv/libc.a(isctype.o)
                0xf8041128                isspace_l
 .text.isupper  0xf8041140       0x1c C:/GCC4/ARM/s002/lib/armv7aLaiv/libc.a(isctype.o)
                0xf8041140                isupper
 .text.isupper_l
                0xf804115c       0x18 C:/GCC4/ARM/s002/lib/armv7aLaiv/libc.a(isctype.o)
                0xf804115c                isupper_l
 .text.isxdigit
                0xf8041174       0x1c C:/GCC4/ARM/s002/lib/armv7aLaiv/libc.a(isctype.o)
                0xf8041174                isxdigit
 .text.isxdigit_l
                0xf8041190       0x18 C:/GCC4/ARM/s002/lib/armv7aLaiv/libc.a(isctype.o)
                0xf8041190                isxdigit_l
 .text.toupper  0xf80411a8       0x18 C:/GCC4/ARM/s002/lib/armv7aLaiv/libc.a(isctype.o)
                0xf80411a8                toupper
 .text.toupper_l
                0xf80411c0       0x14 C:/GCC4/ARM/s002/lib/armv7aLaiv/libc.a(isctype.o)
                0xf80411c0                toupper_l
 .text.tolower  0xf80411d4       0x18 C:/GCC4/ARM/s002/lib/armv7aLaiv/libc.a(isctype.o)
                0xf80411d4                tolower
 .text.tolower_l
                0xf80411ec       0x14 C:/GCC4/ARM/s002/lib/armv7aLaiv/libc.a(isctype.o)
                0xf80411ec                tolower_l
 .text._toupper
                0xf8041200        0x8 C:/GCC4/ARM/s002/lib/armv7aLaiv/libc.a(isctype.o)
                0xf8041200                _toupper
 .text._tolower
                0xf8041208        0x8 C:/GCC4/ARM/s002/lib/armv7aLaiv/libc.a(isctype.o)
                0xf8041208                _tolower
 .text          0xf8041210        0x0 C:/GCC4/ARM/s002/lib/armv7aLaiv/libc.a(global_locale.o)
 .text          0xf8041210        0x0 C:/GCC4/ARM/s002/lib/armv7aLaiv/libc.a(runetable.o)
 .text          0xf8041210        0x0 C:/GCC4/ARM/s002/lib/armv7aLaiv/libc.a(thread-stub-init.o)
 .text.startup  0xf8041210        0x4 C:/GCC4/ARM/s002/lib/armv7aLaiv/libc.a(thread-stub-init.o)
                0xf8041210                __libc_thr_init
                0xf8041210                __libc_thr_init_stub
 .text.__libc_thr_errno_stub
                0xf8041214       0x14 C:/GCC4/ARM/s002/lib/armv7aLaiv/libc.a(thread-stub-init.o)
                0xf8041214                __libc_thr_errno_stub
                0xf8041214                __libc_thr_errno
 .text          0xf8041228        0x0 C:/GCC4/ARM/s002/lib/armv7aLaiv/libc.a(thread-stub.o)
 .text.__libc_pthread_join
                0xf8041228       0x1c C:/GCC4/ARM/s002/lib/armv7aLaiv/libc.a(thread-stub.o)
                0xf8041228                pthread_join
                0xf8041228                __libc_pthread_join
 .text.__libc_pthread_detach
                0xf8041244       0x1c C:/GCC4/ARM/s002/lib/armv7aLaiv/libc.a(thread-stub.o)
                0xf8041244                pthread_detach
                0xf8041244                __libc_pthread_detach
 .text.__libc_mutexattr_settype_stub
                0xf8041260        0x8 C:/GCC4/ARM/s002/lib/armv7aLaiv/libc.a(thread-stub.o)
                0xf8041260                __libc_mutexattr_settype
                0xf8041260                __libc_mutexattr_settype_stub
 .text.__libc_cond_timedwait_stub
                0xf8041268       0x30 C:/GCC4/ARM/s002/lib/armv7aLaiv/libc.a(thread-stub.o)
                0xf8041268                __libc_cond_timedwait_stub
                0xf8041268                __libc_cond_timedwait
 .text.__libc_rwlock_init_stub
                0xf8041298       0x30 C:/GCC4/ARM/s002/lib/armv7aLaiv/libc.a(thread-stub.o)
                0xf8041298                __libc_rwlock_init_stub
                0xf8041298                __libc_rwlock_init
 .text.__libc_cond_wait_stub
                0xf80412c8        0x4 C:/GCC4/ARM/s002/lib/armv7aLaiv/libc.a(thread-stub.o)
                0xf80412c8                __libc_cond_wait_stub
 .text.__libc_cond_init_stub
                0xf80412cc        0x4 C:/GCC4/ARM/s002/lib/armv7aLaiv/libc.a(thread-stub.o)
                0xf80412cc                __libc_cond_init_stub
                0xf80412cc                __libc_cond_init
 .text.__libc_mutex_init_stub
                0xf80412d0        0x4 C:/GCC4/ARM/s002/lib/armv7aLaiv/libc.a(thread-stub.o)
                0xf80412d0                __libc_mutex_init_stub
                0xf80412d0                __libc_mutex_init
 .text.__libc_rwlock_catchall_stub
                0xf80412d4       0x30 C:/GCC4/ARM/s002/lib/armv7aLaiv/libc.a(thread-stub.o)
                0xf80412d4                __libc_rwlock_unlock_stub
                0xf80412d4                __libc_rwlock_destroy_stub
                0xf80412d4                __libc_rwlock_destroy
                0xf80412d4                __libc_rwlock_tryrdlock_stub
                0xf80412d4                __libc_rwlock_wrlock_stub
                0xf80412d4                __libc_rwlock_wrlock
                0xf80412d4                __libc_rwlock_trywrlock
                0xf80412d4                __libc_rwlock_tryrdlock
                0xf80412d4                __libc_rwlock_rdlock
                0xf80412d4                __libc_rwlock_catchall_stub
                0xf80412d4                __libc_rwlock_rdlock_stub
                0xf80412d4                __libc_rwlock_unlock
                0xf80412d4                __libc_rwlock_trywrlock_stub
 .text.__libc_cond_catchall_stub
                0xf8041304        0x4 C:/GCC4/ARM/s002/lib/armv7aLaiv/libc.a(thread-stub.o)
                0xf8041304                __libc_cond_destroy
                0xf8041304                __libc_cond_destroy_stub
                0xf8041304                __libc_cond_catchall_stub
                0xf8041304                __libc_cond_broadcast
                0xf8041304                __libc_cond_broadcast_stub
                0xf8041304                __libc_cond_signal_stub
                0xf8041304                __libc_cond_signal
                0xf8041304                __libc_cond_wait
 .text.__libc_mutexattr_catchall_stub
                0xf8041308        0x4 C:/GCC4/ARM/s002/lib/armv7aLaiv/libc.a(thread-stub.o)
                0xf8041308                __libc_mutexattr_init
                0xf8041308                __libc_mutexattr_init_stub
                0xf8041308                __libc_mutexattr_destroy
                0xf8041308                __libc_mutexattr_catchall_stub
                0xf8041308                __libc_mutexattr_destroy_stub
 .text.__libc_mutex_catchall_stub
                0xf804130c        0x4 C:/GCC4/ARM/s002/lib/armv7aLaiv/libc.a(thread-stub.o)
                0xf804130c                __libc_mutex_catchall_stub
                0xf804130c                __libc_mutex_unlock_stub
                0xf804130c                __libc_mutex_destroy_stub
                0xf804130c                __libc_mutex_lock_stub
                0xf804130c                __libc_mutex_lock
                0xf804130c                __libc_mutex_trylock
                0xf804130c                __libc_mutex_trylock_stub
                0xf804130c                __libc_mutex_unlock
                0xf804130c                __libc_mutex_destroy
 .text.__libc_thr_keycreate_stub
                0xf8041310      0x100 C:/GCC4/ARM/s002/lib/armv7aLaiv/libc.a(thread-stub.o)
                0xf8041310                __libc_thr_keycreate
                0xf8041310                __libc_thr_keycreate_stub
 .text.__libc_thr_setspecific_stub
                0xf8041410       0x1c C:/GCC4/ARM/s002/lib/armv7aLaiv/libc.a(thread-stub.o)
                0xf8041410                __libc_thr_setspecific
                0xf8041410                __libc_thr_setspecific_stub
 .text.__libc_thr_getspecific_stub
                0xf804142c       0x18 C:/GCC4/ARM/s002/lib/armv7aLaiv/libc.a(thread-stub.o)
                0xf804142c                __libc_thr_getspecific
                0xf804142c                __libc_thr_getspecific_stub
 .text.__libc_thr_keydelete_stub
                0xf8041444       0x20 C:/GCC4/ARM/s002/lib/armv7aLaiv/libc.a(thread-stub.o)
                0xf8041444                __libc_thr_keydelete
                0xf8041444                __libc_thr_keydelete_stub
 .text.__libc_thr_once_stub
                0xf8041464       0x30 C:/GCC4/ARM/s002/lib/armv7aLaiv/libc.a(thread-stub.o)
                0xf8041464                __libc_thr_once
                0xf8041464                __libc_thr_once_stub
 .text.__libc_thr_sigsetmask_stub
                0xf8041494       0x30 C:/GCC4/ARM/s002/lib/armv7aLaiv/libc.a(thread-stub.o)
                0xf8041494                __libc_thr_sigsetmask
                0xf8041494                __libc_thr_sigsetmask_stub
 .text.__libc_thr_self_stub
                0xf80414c4        0x8 C:/GCC4/ARM/s002/lib/armv7aLaiv/libc.a(thread-stub.o)
                0xf80414c4                __libc_thr_self
                0xf80414c4                __libc_thr_self_stub
 .text.__libc_thr_yield_stub
                0xf80414cc        0x8 C:/GCC4/ARM/s002/lib/armv7aLaiv/libc.a(thread-stub.o)
                0xf80414cc                __libc_thr_yield
                0xf80414cc                __libc_thr_yield_stub
 .text.__libc_thr_create_stub
                0xf80414d4       0x14 C:/GCC4/ARM/s002/lib/armv7aLaiv/libc.a(thread-stub.o)
                0xf80414d4                __libc_thr_create_stub
                0xf80414d4                __libc_thr_create
 .text.__libc_thr_exit_stub
                0xf80414e8        0xc C:/GCC4/ARM/s002/lib/armv7aLaiv/libc.a(thread-stub.o)
                0xf80414e8                __libc_thr_exit_stub
                0xf80414e8                __libc_thr_exit
 .text.__libc_thr_setcancelstate_stub
                0xf80414f4       0x30 C:/GCC4/ARM/s002/lib/armv7aLaiv/libc.a(thread-stub.o)
                0xf80414f4                __libc_thr_setcancelstate_stub
                0xf80414f4                __libc_thr_setcancelstate
 .text.__libc_thr_equal_stub
                0xf8041524       0x10 C:/GCC4/ARM/s002/lib/armv7aLaiv/libc.a(thread-stub.o)
                0xf8041524                __libc_thr_equal_stub
                0xf8041524                __libc_thr_equal
 .text.__libc_thr_curcpu_stub
                0xf8041534        0x8 C:/GCC4/ARM/s002/lib/armv7aLaiv/libc.a(thread-stub.o)
                0xf8041534                __libc_thr_curcpu_stub
                0xf8041534                __libc_thr_curcpu
 .text          0xf804153c        0x0 C:/GCC4/ARM/s002/lib/armv7aLaiv/libc.a(ssp_init.o)
 .text.startup  0xf804153c       0x34 C:/GCC4/ARM/s002/lib/armv7aLaiv/libc.a(ssp_init.o)
                0xf804153c                __guard_setup
 .text          0xf8041570        0x0 C:/GCC4/ARM/s002/lib/armv7aLaiv/libc.a(findfp.o)
 .text._cleanup
                0xf8041570        0x8 C:/GCC4/ARM/s002/lib/armv7aLaiv/libc.a(findfp.o)
                0xf8041570                _cleanup
 .text.__sfpinit
                0xf8041578       0x58 C:/GCC4/ARM/s002/lib/armv7aLaiv/libc.a(findfp.o)
                0xf8041578                __sfpinit
 .text.__sinit  0xf80415d0       0x90 C:/GCC4/ARM/s002/lib/armv7aLaiv/libc.a(findfp.o)
                0xf80415d0                __sinit
 .text.__sfp    0xf8041660      0x140 C:/GCC4/ARM/s002/lib/armv7aLaiv/libc.a(findfp.o)
                0xf8041660                __sfp
 .text          0xf80417a0        0x0 C:/GCC4/ARM/s002/lib/armv7aLaiv/libc.a(fprintf.o)
 .text.fprintf  0xf80417a0       0x2c C:/GCC4/ARM/s002/lib/armv7aLaiv/libc.a(fprintf.o)
                0xf80417a0                fprintf
 .text._fprintf_l
                0xf80417cc       0x2c C:/GCC4/ARM/s002/lib/armv7aLaiv/libc.a(fprintf.o)
                0xf80417cc                _fprintf_l
                0xf80417cc                fprintf_l
 .text          0xf80417f8        0x0 C:/GCC4/ARM/s002/lib/armv7aLaiv/libc.a(stdio.o)
 .text.__sread  0xf80417f8       0x44 C:/GCC4/ARM/s002/lib/armv7aLaiv/libc.a(stdio.o)
                0xf80417f8                __sread
 .text.__swrite
                0xf804183c       0xa8 C:/GCC4/ARM/s002/lib/armv7aLaiv/libc.a(stdio.o)
                0xf804183c                __swrite
 .text.__sseek  0xf80418e4       0x54 C:/GCC4/ARM/s002/lib/armv7aLaiv/libc.a(stdio.o)
                0xf80418e4                __sseek
 .text.__sclose
                0xf8041938       0x10 C:/GCC4/ARM/s002/lib/armv7aLaiv/libc.a(stdio.o)
                0xf8041938                __sclose
 .text          0xf8041948        0x0 C:/GCC4/ARM/s002/lib/armv7aLaiv/libc.a(vfprintf.o)
 .text.__grow_type_table
                0xf8041948       0x9c C:/GCC4/ARM/s002/lib/armv7aLaiv/libc.a(vfprintf.o)
 .text.__find_arguments
                0xf80419e4      0xe9c C:/GCC4/ARM/s002/lib/armv7aLaiv/libc.a(vfprintf.o)
 .text.__ultoa  0xf8042880      0x170 C:/GCC4/ARM/s002/lib/armv7aLaiv/libc.a(vfprintf.o)
 .text.__sprint.part.1
                0xf80429f0       0x1c C:/GCC4/ARM/s002/lib/armv7aLaiv/libc.a(vfprintf.o)
 .text.__vfprintf_unlocked_l
                0xf8042a0c     0x367c C:/GCC4/ARM/s002/lib/armv7aLaiv/libc.a(vfprintf.o)
                0xf8042a0c                __vfprintf_unlocked_l
 .text.vfprintf
                0xf8046088       0x48 C:/GCC4/ARM/s002/lib/armv7aLaiv/libc.a(vfprintf.o)
                0xf8046088                vfprintf
 .text._vfprintf_l
                0xf80460d0       0x48 C:/GCC4/ARM/s002/lib/armv7aLaiv/libc.a(vfprintf.o)
                0xf80460d0                vfprintf_l
                0xf80460d0                _vfprintf_l
 .text          0xf8046118        0x0 C:/GCC4/ARM/s002/lib/armv7aLaiv/libc.a(vsnprintf.o)
 .text._vsnprintf_l
                0xf8046118       0xdc C:/GCC4/ARM/s002/lib/armv7aLaiv/libc.a(vsnprintf.o)
                0xf8046118                _vsnprintf_l
                0xf8046118                vsnprintf_l
 .text._vsnprintf
                0xf80461f4       0x24 C:/GCC4/ARM/s002/lib/armv7aLaiv/libc.a(vsnprintf.o)
                0xf80461f4                vsnprintf
                0xf80461f4                _vsnprintf
 .text._snprintf
                0xf8046218       0x38 C:/GCC4/ARM/s002/lib/armv7aLaiv/libc.a(vsnprintf.o)
                0xf8046218                _snprintf
                0xf8046218                snprintf
 .text._snprintf_l
                0xf8046250       0x30 C:/GCC4/ARM/s002/lib/armv7aLaiv/libc.a(vsnprintf.o)
                0xf8046250                _snprintf_l
                0xf8046250                snprintf_l
 .text          0xf8046280        0x0 C:/GCC4/ARM/s002/lib/armv7aLaiv/libc.a(wsetup.o)
 .text.__swsetup
                0xf8046280       0xf0 C:/GCC4/ARM/s002/lib/armv7aLaiv/libc.a(wsetup.o)
                0xf8046280                __swsetup
 .text          0xf8046370        0x0 C:/GCC4/ARM/s002/lib/armv7aLaiv/libc.a(makebuf.o)
 .text.__swhatbuf
                0xf8046370       0xc0 C:/GCC4/ARM/s002/lib/armv7aLaiv/libc.a(makebuf.o)
                0xf8046370                __swhatbuf
 .text.__smakebuf
                0xf8046430       0xcc C:/GCC4/ARM/s002/lib/armv7aLaiv/libc.a(makebuf.o)
                0xf8046430                __smakebuf
 .text          0xf80464fc        0x0 C:/GCC4/ARM/s002/lib/armv7aLaiv/libc.a(close.o)
 .text.close    0xf80464fc       0x7c C:/GCC4/ARM/s002/lib/armv7aLaiv/libc.a(close.o)
                0xf80464fc                close
 .text.dup      0xf8046578       0x34 C:/GCC4/ARM/s002/lib/armv7aLaiv/libc.a(close.o)
                0xf8046578                dup
 .text.dup2     0xf80465ac       0x38 C:/GCC4/ARM/s002/lib/armv7aLaiv/libc.a(close.o)
                0xf80465ac                dup2
 .text          0xf80465e4        0x0 C:/GCC4/ARM/s002/lib/armv7aLaiv/libc.a(fstat.o)
 .text.fstat    0xf80465e4      0x184 C:/GCC4/ARM/s002/lib/armv7aLaiv/libc.a(fstat.o)
                0xf80465e4                fstat
 .text          0xf8046768        0x0 C:/GCC4/ARM/s002/lib/armv7aLaiv/libc.a(lseek.o)
 .text.lseek    0xf8046768       0x70 C:/GCC4/ARM/s002/lib/armv7aLaiv/libc.a(lseek.o)
                0xf8046768                lseek
 .text          0xf80467d8        0x0 C:/GCC4/ARM/s002/lib/armv7aLaiv/libc.a(open.o)
 .text.open     0xf80467d8      0x154 C:/GCC4/ARM/s002/lib/armv7aLaiv/libc.a(open.o)
                0xf80467d8                open
 .text          0xf804692c       0x38 C:/GCC4/ARM/s002/lib/armv7aLaiv/libc.a(osemu.o)
 .text.VLC_getPT_BLK
                0xf8046964       0xc0 C:/GCC4/ARM/s002/lib/armv7aLaiv/libc.a(osemu.o)
 .text.VLC_putPT_BLK
                0xf8046a24       0xd8 C:/GCC4/ARM/s002/lib/armv7aLaiv/libc.a(osemu.o)
 .text.putCMD_not_use
                0xf8046afc        0x8 C:/GCC4/ARM/s002/lib/armv7aLaiv/libc.a(osemu.o)
 .text.not_use_vlink
                0xf8046b04        0x8 C:/GCC4/ARM/s002/lib/armv7aLaiv/libc.a(osemu.o)
 .text.VLC_getSTAT
                0xf8046b0c       0x10 C:/GCC4/ARM/s002/lib/armv7aLaiv/libc.a(osemu.o)
 .text.VLC_getPT_L
                0xf8046b1c       0x18 C:/GCC4/ARM/s002/lib/armv7aLaiv/libc.a(osemu.o)
 .text.VLC_getPT
                0xf8046b34       0x1c C:/GCC4/ARM/s002/lib/armv7aLaiv/libc.a(osemu.o)
 .text.VLC_putPT_L
                0xf8046b50       0x20 C:/GCC4/ARM/s002/lib/armv7aLaiv/libc.a(osemu.o)
 .text.VLC_putPT
                0xf8046b70       0x20 C:/GCC4/ARM/s002/lib/armv7aLaiv/libc.a(osemu.o)
 .text.VLC_putCMD
                0xf8046b90       0x10 C:/GCC4/ARM/s002/lib/armv7aLaiv/libc.a(osemu.o)
 .text.VLC_getSTAT11
                0xf8046ba0       0x10 C:/GCC4/ARM/s002/lib/armv7aLaiv/libc.a(osemu.o)
 .text.VLC_getPT_L11
                0xf8046bb0       0x18 C:/GCC4/ARM/s002/lib/armv7aLaiv/libc.a(osemu.o)
 .text.VLC_getPT11
                0xf8046bc8       0x1c C:/GCC4/ARM/s002/lib/armv7aLaiv/libc.a(osemu.o)
 .text.VLC_putPT_L11
                0xf8046be4       0x20 C:/GCC4/ARM/s002/lib/armv7aLaiv/libc.a(osemu.o)
 .text.VLC_putPT11
                0xf8046c04       0x20 C:/GCC4/ARM/s002/lib/armv7aLaiv/libc.a(osemu.o)
 .text.VLC_putCMD11
                0xf8046c24       0x10 C:/GCC4/ARM/s002/lib/armv7aLaiv/libc.a(osemu.o)
 .text._vlink_put_console
                0xf8046c34       0xbc C:/GCC4/ARM/s002/lib/armv7aLaiv/libc.a(osemu.o)
                0xf8046c34                _vlink_put_console
 .text._vlink_putstring_console
                0xf8046cf0      0x124 C:/GCC4/ARM/s002/lib/armv7aLaiv/libc.a(osemu.o)
                0xf8046cf0                _vlink_putstring_console
 .text._vlink_stat_console
                0xf8046e14       0xa4 C:/GCC4/ARM/s002/lib/armv7aLaiv/libc.a(osemu.o)
                0xf8046e14                _vlink_stat_console
 .text._vlink_get_console
                0xf8046eb8       0x4c C:/GCC4/ARM/s002/lib/armv7aLaiv/libc.a(osemu.o)
                0xf8046eb8                _vlink_get_console
 .text._vlink_open
                0xf8046f04      0x104 C:/GCC4/ARM/s002/lib/armv7aLaiv/libc.a(osemu.o)
                0xf8046f04                _vlink_open
 .text._vlink_creat
                0xf8047008      0x108 C:/GCC4/ARM/s002/lib/armv7aLaiv/libc.a(osemu.o)
                0xf8047008                _vlink_creat
 .text._vlink_write
                0xf8047110      0x150 C:/GCC4/ARM/s002/lib/armv7aLaiv/libc.a(osemu.o)
                0xf8047110                _vlink_write
 .text._vlink_read
                0xf8047260      0x1bc C:/GCC4/ARM/s002/lib/armv7aLaiv/libc.a(osemu.o)
                0xf8047260                _vlink_read
 .text._vlink_close
                0xf804741c       0xe8 C:/GCC4/ARM/s002/lib/armv7aLaiv/libc.a(osemu.o)
                0xf804741c                _vlink_close
 .text._vlink_lseek
                0xf8047504      0x118 C:/GCC4/ARM/s002/lib/armv7aLaiv/libc.a(osemu.o)
                0xf8047504                _vlink_lseek
 .text._vlink_file_mode
                0xf804761c      0x124 C:/GCC4/ARM/s002/lib/armv7aLaiv/libc.a(osemu.o)
                0xf804761c                _vlink_file_mode
 .text._vlink_set_dta
                0xf8047740       0x14 C:/GCC4/ARM/s002/lib/armv7aLaiv/libc.a(osemu.o)
                0xf8047740                _vlink_set_dta
 .text._vlink_find_first
                0xf8047754      0x100 C:/GCC4/ARM/s002/lib/armv7aLaiv/libc.a(osemu.o)
                0xf8047754                _vlink_find_first
 .text._vlink_find_next
                0xf8047854       0xe4 C:/GCC4/ARM/s002/lib/armv7aLaiv/libc.a(osemu.o)
                0xf8047854                _vlink_find_next
 .text._vlink_find_close
                0xf8047938       0xa4 C:/GCC4/ARM/s002/lib/armv7aLaiv/libc.a(osemu.o)
                0xf8047938                _vlink_find_close
 .text._vlink_get_ioctl
                0xf80479dc       0xf8 C:/GCC4/ARM/s002/lib/armv7aLaiv/libc.a(osemu.o)
                0xf80479dc                _vlink_get_ioctl
 .text._vlink_get_file_time
                0xf8047ad4      0x10c C:/GCC4/ARM/s002/lib/armv7aLaiv/libc.a(osemu.o)
                0xf8047ad4                _vlink_get_file_time
 .text._vlink_get_time
                0xf8047be0       0xc0 C:/GCC4/ARM/s002/lib/armv7aLaiv/libc.a(osemu.o)
                0xf8047be0                _vlink_get_time
 .text._vlink_set_file_time
                0xf8047ca0      0x108 C:/GCC4/ARM/s002/lib/armv7aLaiv/libc.a(osemu.o)
                0xf8047ca0                _vlink_set_file_time
 .text._vlink_mkdir
                0xf8047da8       0xf4 C:/GCC4/ARM/s002/lib/armv7aLaiv/libc.a(osemu.o)
                0xf8047da8                _vlink_mkdir
 .text._vlink_rmdir
                0xf8047e9c       0xf4 C:/GCC4/ARM/s002/lib/armv7aLaiv/libc.a(osemu.o)
                0xf8047e9c                _vlink_rmdir
 .text._vlink_remove
                0xf8047f90       0xf4 C:/GCC4/ARM/s002/lib/armv7aLaiv/libc.a(osemu.o)
                0xf8047f90                _vlink_remove
 .text._vlink_rename
                0xf8048084      0x110 C:/GCC4/ARM/s002/lib/armv7aLaiv/libc.a(osemu.o)
                0xf8048084                _vlink_rename
 .text._vlink_getcwd
                0xf8048194      0x104 C:/GCC4/ARM/s002/lib/armv7aLaiv/libc.a(osemu.o)
                0xf8048194                _vlink_getcwd
 .text._vlink_chdir
                0xf8048298       0xf4 C:/GCC4/ARM/s002/lib/armv7aLaiv/libc.a(osemu.o)
                0xf8048298                _vlink_chdir
 .text._vlink_getcdrv
                0xf804838c       0xc0 C:/GCC4/ARM/s002/lib/armv7aLaiv/libc.a(osemu.o)
                0xf804838c                _vlink_getcdrv
 .text._vlink_dup
                0xf804844c       0xec C:/GCC4/ARM/s002/lib/armv7aLaiv/libc.a(osemu.o)
                0xf804844c                _vlink_dup
 .text._vlink_dup2
                0xf8048538       0xf8 C:/GCC4/ARM/s002/lib/armv7aLaiv/libc.a(osemu.o)
                0xf8048538                _vlink_dup2
 .text._dos_version
                0xf8048630       0xc0 C:/GCC4/ARM/s002/lib/armv7aLaiv/libc.a(osemu.o)
                0xf8048630                _dos_version
 .text._vlink_exit
                0xf80486f0       0xa4 C:/GCC4/ARM/s002/lib/armv7aLaiv/libc.a(osemu.o)
                0xf80486f0                _vlink_exit
 .text._vlink_sleep
                0xf8048794       0xcc C:/GCC4/ARM/s002/lib/armv7aLaiv/libc.a(osemu.o)
                0xf8048794                _vlink_sleep
 .text._vlink_arg_env
                0xf8048860      0x12c C:/GCC4/ARM/s002/lib/armv7aLaiv/libc.a(osemu.o)
                0xf8048860                _vlink_arg_env
 .text.__vlink_init_osemu
                0xf804898c      0x200 C:/GCC4/ARM/s002/lib/armv7aLaiv/libc.a(osemu.o)
                0xf804898c                __vlink_init_osemu
 .text.putCMD_init
                0xf8048b8c       0x24 C:/GCC4/ARM/s002/lib/armv7aLaiv/libc.a(osemu.o)
 .text          0xf8048bb0        0x0 C:/GCC4/ARM/s002/lib/armv7aLaiv/libc.a(read.o)
 .text.read     0xf8048bb0      0x108 C:/GCC4/ARM/s002/lib/armv7aLaiv/libc.a(read.o)
                0xf8048bb0                read
 .text          0xf8048cb8        0x0 C:/GCC4/ARM/s002/lib/armv7aLaiv/libc.a(u2dname.o)
 .text._unix2dosname
                0xf8048cb8      0x354 C:/GCC4/ARM/s002/lib/armv7aLaiv/libc.a(u2dname.o)
                0xf8048cb8                _unix2dosname
 .text          0xf804900c        0x0 C:/GCC4/ARM/s002/lib/armv7aLaiv/libc.a(utime.o)
 .text._dos2unix_file_time
                0xf804900c       0x6c C:/GCC4/ARM/s002/lib/armv7aLaiv/libc.a(utime.o)
                0xf804900c                _dos2unix_file_time
 .text.utime    0xf8049078       0xd4 C:/GCC4/ARM/s002/lib/armv7aLaiv/libc.a(utime.o)
                0xf8049078                utime
 .text          0xf804914c        0x0 C:/GCC4/ARM/s002/lib/armv7aLaiv/libc.a(write.o)
 .text.write    0xf804914c      0x178 C:/GCC4/ARM/s002/lib/armv7aLaiv/libc.a(write.o)
                0xf804914c                write
 .text          0xf80492c4        0x0 C:/GCC4/ARM/s002/lib/armv7aLaiv/libc.a(_env.o)
 .text.env_tree_compare_nodes
                0xf80492c4       0x1c C:/GCC4/ARM/s002/lib/armv7aLaiv/libc.a(_env.o)
 .text.env_tree_compare_key
                0xf80492e0       0x20 C:/GCC4/ARM/s002/lib/armv7aLaiv/libc.a(_env.o)
 .text.__scrubenv
                0xf8049300      0x138 C:/GCC4/ARM/s002/lib/armv7aLaiv/libc.a(_env.o)
 .text.__envvarnamelen
                0xf8049438       0x54 C:/GCC4/ARM/s002/lib/armv7aLaiv/libc.a(_env.o)
                0xf8049438                __envvarnamelen
 .text.__freeenvvar
                0xf804948c       0x38 C:/GCC4/ARM/s002/lib/armv7aLaiv/libc.a(_env.o)
                0xf804948c                __freeenvvar
 .text.__allocenvvar
                0xf80494c4       0x44 C:/GCC4/ARM/s002/lib/armv7aLaiv/libc.a(_env.o)
                0xf80494c4                __allocenvvar
 .text.__canoverwriteenvvar
                0xf8049508       0x34 C:/GCC4/ARM/s002/lib/armv7aLaiv/libc.a(_env.o)
                0xf8049508                __canoverwriteenvvar
 .text.__getenvslot
                0xf804953c      0x19c C:/GCC4/ARM/s002/lib/armv7aLaiv/libc.a(_env.o)
                0xf804953c                __getenvslot
 .text.__findenvvar
                0xf80496d8       0x34 C:/GCC4/ARM/s002/lib/armv7aLaiv/libc.a(_env.o)
                0xf80496d8                __findenvvar
 .text.__findenv
                0xf804970c       0x5c C:/GCC4/ARM/s002/lib/armv7aLaiv/libc.a(_env.o)
                0xf804970c                __findenv
 .text.__readlockenv
                0xf8049768       0x30 C:/GCC4/ARM/s002/lib/armv7aLaiv/libc.a(_env.o)
                0xf8049768                __readlockenv
 .text.__writelockenv
                0xf8049798       0x30 C:/GCC4/ARM/s002/lib/armv7aLaiv/libc.a(_env.o)
                0xf8049798                __writelockenv
 .text.__unlockenv
                0xf80497c8       0x30 C:/GCC4/ARM/s002/lib/armv7aLaiv/libc.a(_env.o)
                0xf80497c8                __unlockenv
 .text.startup  0xf80497f8       0x14 C:/GCC4/ARM/s002/lib/armv7aLaiv/libc.a(_env.o)
                0xf80497f8                __libc_env_init
 .text          0xf804980c        0x0 C:/GCC4/ARM/s002/lib/armv7aLaiv/libc.a(exit.o)
 .text._exit    0xf804980c        0xc C:/GCC4/ARM/s002/lib/armv7aLaiv/libc.a(exit.o)
                0xf804980c                _exit
 .text._Exit    0xf8049818        0x8 C:/GCC4/ARM/s002/lib/armv7aLaiv/libc.a(exit.o)
                0xf8049818                _Exit
 .text.exit     0xf8049820       0x88 C:/GCC4/ARM/s002/lib/armv7aLaiv/libc.a(exit.o)
 .text          0xf80498a8        0x0 C:/GCC4/ARM/s002/lib/armv7aLaiv/libc.a(signal.o)
 .text.signal   0xf80498a8        0x8 C:/GCC4/ARM/s002/lib/armv7aLaiv/libc.a(signal.o)
                0xf80498a8                signal
 .text.raise    0xf80498b0        0x8 C:/GCC4/ARM/s002/lib/armv7aLaiv/libc.a(signal.o)
                0xf80498b0                raise
 .text          0xf80498b8        0x0 C:/GCC4/ARM/s002/lib/armv7aLaiv/libc.a(localtime.o)
 .text.is_leap.part.0
                0xf80498b8       0x40 C:/GCC4/ARM/s002/lib/armv7aLaiv/libc.a(localtime.o)
 .text._dos2unix_time
                0xf80498f8      0x11c C:/GCC4/ARM/s002/lib/armv7aLaiv/libc.a(localtime.o)
                0xf80498f8                _dos2unix_time
 .text.localtime_r
                0xf8049a14      0x200 C:/GCC4/ARM/s002/lib/armv7aLaiv/libc.a(localtime.o)
                0xf8049a14                localtime_r
 .text.localtime
                0xf8049c14       0x1c C:/GCC4/ARM/s002/lib/armv7aLaiv/libc.a(localtime.o)
                0xf8049c14                localtime
 .text          0xf8049c30        0x0 C:/GCC4/ARM/s002/lib/armv7aLaiv/libc.a(lldiv.o)
 .text._lldiv   0xf8049c30       0x70 C:/GCC4/ARM/s002/lib/armv7aLaiv/libc.a(lldiv.o)
                0xf8049c30                lldiv
                0xf8049c30                _lldiv
 .text          0xf8049ca0        0x0 C:/GCC4/ARM/s002/lib/armv7aLaiv/libc.a(memchr.o)
 .text.memchr   0xf8049ca0       0x34 C:/GCC4/ARM/s002/lib/armv7aLaiv/libc.a(memchr.o)
                0xf8049ca0                memchr
 .text          0xf8049cd4        0x0 C:/GCC4/ARM/s002/lib/armv7aLaiv/libc.a(strcspn.o)
 .text.strcspn  0xf8049cd4      0x124 C:/GCC4/ARM/s002/lib/armv7aLaiv/libc.a(strcspn.o)
                0xf8049cd4                strcspn
 .text          0xf8049df8        0x0 C:/GCC4/ARM/s002/lib/armv7aLaiv/libc.a(strncasecmp.o)
 .text._strncasecmp
                0xf8049df8       0x6c C:/GCC4/ARM/s002/lib/armv7aLaiv/libc.a(strncasecmp.o)
                0xf8049df8                _strncasecmp
                0xf8049df8                strncasecmp
 .text          0xf8049e64        0x0 C:/GCC4/ARM/s002/lib/armv7aLaiv/libc.a(strdup.o)
 .text._strdup  0xf8049e64       0x34 C:/GCC4/ARM/s002/lib/armv7aLaiv/libc.a(strdup.o)
                0xf8049e64                strdup
                0xf8049e64                _strdup
 .text          0xf8049e98        0x0 C:/GCC4/ARM/s002/lib/armv7aLaiv/libc.a(ctype_.o)
 .text          0xf8049e98        0x0 C:/GCC4/ARM/s002/lib/armv7aLaiv/libc.a(toupper_.o)
 .text          0xf8049e98        0x0 C:/GCC4/ARM/s002/lib/armv7aLaiv/libc.a(tolower_.o)
 .text          0xf8049e98        0x0 C:/GCC4/ARM/s002/lib/armv7aLaiv/libc.a(citrus_ctype.o)
 .text.init_mskanji_module.part.0
                0xf8049e98       0x40 C:/GCC4/ARM/s002/lib/armv7aLaiv/libc.a(citrus_ctype.o)
 .text.init_utf8_module.part.1
                0xf8049ed8       0x40 C:/GCC4/ARM/s002/lib/armv7aLaiv/libc.a(citrus_ctype.o)
 .text._citrus_ctype_open
                0xf8049f18      0x128 C:/GCC4/ARM/s002/lib/armv7aLaiv/libc.a(citrus_ctype.o)
                0xf8049f18                _citrus_ctype_open
 .text._citrus_ctype_close
                0xf804a040       0x48 C:/GCC4/ARM/s002/lib/armv7aLaiv/libc.a(citrus_ctype.o)
                0xf804a040                _citrus_ctype_close
 .text          0xf804a088        0x0 C:/GCC4/ARM/s002/lib/armv7aLaiv/libc.a(citrus_none.o)
 .text._citrus_NONE_ctype_init
                0xf804a088       0x14 C:/GCC4/ARM/s002/lib/armv7aLaiv/libc.a(citrus_none.o)
 .text._citrus_NONE_ctype_get_mb_cur_max
                0xf804a09c        0x8 C:/GCC4/ARM/s002/lib/armv7aLaiv/libc.a(citrus_none.o)
 .text._citrus_NONE_ctype_mblen
                0xf804a0a4       0x44 C:/GCC4/ARM/s002/lib/armv7aLaiv/libc.a(citrus_none.o)
 .text._citrus_NONE_ctype_mbrlen
                0xf804a0e8       0x48 C:/GCC4/ARM/s002/lib/armv7aLaiv/libc.a(citrus_none.o)
 .text._citrus_NONE_ctype_mbsinit
                0xf804a130       0x10 C:/GCC4/ARM/s002/lib/armv7aLaiv/libc.a(citrus_none.o)
 .text._citrus_NONE_ctype_mbsrtowcs
                0xf804a140       0x9c C:/GCC4/ARM/s002/lib/armv7aLaiv/libc.a(citrus_none.o)
 .text._citrus_NONE_ctype_mbsnrtowcs
                0xf804a1dc       0xb4 C:/GCC4/ARM/s002/lib/armv7aLaiv/libc.a(citrus_none.o)
 .text._citrus_NONE_ctype_mbstowcs
                0xf804a290       0x88 C:/GCC4/ARM/s002/lib/armv7aLaiv/libc.a(citrus_none.o)
 .text._citrus_NONE_ctype_wcrtomb
                0xf804a318       0x34 C:/GCC4/ARM/s002/lib/armv7aLaiv/libc.a(citrus_none.o)
 .text._citrus_NONE_ctype_wcsrtombs
                0xf804a34c       0xc0 C:/GCC4/ARM/s002/lib/armv7aLaiv/libc.a(citrus_none.o)
 .text._citrus_NONE_ctype_wcsnrtombs
                0xf804a40c       0xb8 C:/GCC4/ARM/s002/lib/armv7aLaiv/libc.a(citrus_none.o)
 .text._citrus_NONE_ctype_wcstombs
                0xf804a4c4       0xa0 C:/GCC4/ARM/s002/lib/armv7aLaiv/libc.a(citrus_none.o)
 .text._citrus_NONE_ctype_wctomb
                0xf804a564       0x30 C:/GCC4/ARM/s002/lib/armv7aLaiv/libc.a(citrus_none.o)
 .text._citrus_NONE_ctype_btowc
                0xf804a594       0x2c C:/GCC4/ARM/s002/lib/armv7aLaiv/libc.a(citrus_none.o)
 .text._citrus_NONE_ctype_wctob
                0xf804a5c0       0x2c C:/GCC4/ARM/s002/lib/armv7aLaiv/libc.a(citrus_none.o)
 .text._citrus_NONE_stdenc_init
                0xf804a5ec       0x20 C:/GCC4/ARM/s002/lib/armv7aLaiv/libc.a(citrus_none.o)
 .text._citrus_NONE_stdenc_uninit
                0xf804a60c        0x4 C:/GCC4/ARM/s002/lib/armv7aLaiv/libc.a(citrus_none.o)
 .text._citrus_NONE_stdenc_init_state
                0xf804a610        0x8 C:/GCC4/ARM/s002/lib/armv7aLaiv/libc.a(citrus_none.o)
 .text._citrus_NONE_stdenc_put_state_reset
                0xf804a618       0x14 C:/GCC4/ARM/s002/lib/armv7aLaiv/libc.a(citrus_none.o)
 .text._citrus_NONE_stdenc_get_state_desc
                0xf804a62c       0x14 C:/GCC4/ARM/s002/lib/armv7aLaiv/libc.a(citrus_none.o)
 .text._citrus_NONE_ctype_mbrtowc
                0xf804a640       0x54 C:/GCC4/ARM/s002/lib/armv7aLaiv/libc.a(citrus_none.o)
 .text._citrus_NONE_ctype_mbtowc
                0xf804a694       0x78 C:/GCC4/ARM/s002/lib/armv7aLaiv/libc.a(citrus_none.o)
 .text._citrus_NONE_stdenc_mbtocs
                0xf804a70c       0x4c C:/GCC4/ARM/s002/lib/armv7aLaiv/libc.a(citrus_none.o)
 .text._citrus_NONE_stdenc_cstomb
                0xf804a758       0x70 C:/GCC4/ARM/s002/lib/armv7aLaiv/libc.a(citrus_none.o)
 .text._citrus_NONE_stdenc_mbtowc
                0xf804a7c8       0x54 C:/GCC4/ARM/s002/lib/armv7aLaiv/libc.a(citrus_none.o)
 .text._citrus_NONE_stdenc_wctomb
                0xf804a81c       0x54 C:/GCC4/ARM/s002/lib/armv7aLaiv/libc.a(citrus_none.o)
 .text._citrus_NONE_ctype_uninit
                0xf804a870        0x4 C:/GCC4/ARM/s002/lib/armv7aLaiv/libc.a(citrus_none.o)
 .text          0xf804a874        0x0 C:/GCC4/ARM/s002/lib/armv7aLaiv/libc.a(citrus_mskanji.o)
 .text._citrus_MSKanji_ctype_get_mb_cur_max
                0xf804a874        0x8 C:/GCC4/ARM/s002/lib/armv7aLaiv/libc.a(citrus_mskanji.o)
 .text._citrus_MSKanji_stdenc_init_state
                0xf804a87c       0x10 C:/GCC4/ARM/s002/lib/armv7aLaiv/libc.a(citrus_mskanji.o)
 .text._citrus_MSKanji_stdenc_put_state_reset
                0xf804a88c       0x14 C:/GCC4/ARM/s002/lib/armv7aLaiv/libc.a(citrus_mskanji.o)
 .text._citrus_MSKanji_ctype_mbsinit
                0xf804a8a0       0x4c C:/GCC4/ARM/s002/lib/armv7aLaiv/libc.a(citrus_mskanji.o)
 .text._citrus_MSKanji_ctype_uninit
                0xf804a8ec        0xc C:/GCC4/ARM/s002/lib/armv7aLaiv/libc.a(citrus_mskanji.o)
 .text._citrus_MSKanji_stdenc_uninit
                0xf804a8f8       0x10 C:/GCC4/ARM/s002/lib/armv7aLaiv/libc.a(citrus_mskanji.o)
 .text._citrus_MSKanji_mbrtowc_priv.isra.1
                0xf804a908      0x12c C:/GCC4/ARM/s002/lib/armv7aLaiv/libc.a(citrus_mskanji.o)
 .text._citrus_MSKanji_stdenc_mbtocs
                0xf804aa34      0x154 C:/GCC4/ARM/s002/lib/armv7aLaiv/libc.a(citrus_mskanji.o)
 .text._citrus_MSKanji_stdenc_mbtowc
                0xf804ab88       0x28 C:/GCC4/ARM/s002/lib/armv7aLaiv/libc.a(citrus_mskanji.o)
 .text._citrus_MSKanji_ctype_mbrtowc
                0xf804abb0       0x9c C:/GCC4/ARM/s002/lib/armv7aLaiv/libc.a(citrus_mskanji.o)
 .text._citrus_MSKanji_ctype_mbrlen
                0xf804ac4c       0x94 C:/GCC4/ARM/s002/lib/armv7aLaiv/libc.a(citrus_mskanji.o)
 .text._citrus_MSKanji_wcrtomb_priv.isra.2
                0xf804ace0       0xc4 C:/GCC4/ARM/s002/lib/armv7aLaiv/libc.a(citrus_mskanji.o)
 .text._citrus_MSKanji_ctype_wctomb
                0xf804ada4       0x48 C:/GCC4/ARM/s002/lib/armv7aLaiv/libc.a(citrus_mskanji.o)
 .text._citrus_MSKanji_stdenc_cstomb
                0xf804adec      0x124 C:/GCC4/ARM/s002/lib/armv7aLaiv/libc.a(citrus_mskanji.o)
 .text._citrus_MSKanji_stdenc_wctomb
                0xf804af10       0x14 C:/GCC4/ARM/s002/lib/armv7aLaiv/libc.a(citrus_mskanji.o)
 .text._citrus_MSKanji_ctype_wcrtomb
                0xf804af24       0x9c C:/GCC4/ARM/s002/lib/armv7aLaiv/libc.a(citrus_mskanji.o)
 .text._citrus_MSKanji_ctype_mbtowc
                0xf804afc0       0xa4 C:/GCC4/ARM/s002/lib/armv7aLaiv/libc.a(citrus_mskanji.o)
 .text._citrus_MSKanji_mbsrtowcs_priv.isra.6
                0xf804b064       0xe8 C:/GCC4/ARM/s002/lib/armv7aLaiv/libc.a(citrus_mskanji.o)
 .text._citrus_MSKanji_ctype_mbstowcs
                0xf804b14c       0x50 C:/GCC4/ARM/s002/lib/armv7aLaiv/libc.a(citrus_mskanji.o)
 .text._citrus_MSKanji_ctype_mbsrtowcs
                0xf804b19c       0x94 C:/GCC4/ARM/s002/lib/armv7aLaiv/libc.a(citrus_mskanji.o)
 .text._citrus_MSKanji_ctype_mbsnrtowcs
                0xf804b230      0x164 C:/GCC4/ARM/s002/lib/armv7aLaiv/libc.a(citrus_mskanji.o)
 .text._citrus_MSKanji_ctype_btowc
                0xf804b394       0x88 C:/GCC4/ARM/s002/lib/armv7aLaiv/libc.a(citrus_mskanji.o)
 .text._citrus_MSKanji_ctype_wctob
                0xf804b41c       0x68 C:/GCC4/ARM/s002/lib/armv7aLaiv/libc.a(citrus_mskanji.o)
 .text._citrus_MSKanji_stdenc_get_state_desc
                0xf804b484       0x2c C:/GCC4/ARM/s002/lib/armv7aLaiv/libc.a(citrus_mskanji.o)
 .text._citrus_MSKanji_wcsrtombs_priv.isra.11
                0xf804b4b0       0xf8 C:/GCC4/ARM/s002/lib/armv7aLaiv/libc.a(citrus_mskanji.o)
 .text._citrus_MSKanji_ctype_wcstombs
                0xf804b5a8       0x3c C:/GCC4/ARM/s002/lib/armv7aLaiv/libc.a(citrus_mskanji.o)
 .text._citrus_MSKanji_ctype_wcsrtombs
                0xf804b5e4       0x94 C:/GCC4/ARM/s002/lib/armv7aLaiv/libc.a(citrus_mskanji.o)
 .text._citrus_MSKanji_ctype_wcsnrtombs
                0xf804b678      0x18c C:/GCC4/ARM/s002/lib/armv7aLaiv/libc.a(citrus_mskanji.o)
 .text._citrus_MSKanji_ctype_init
                0xf804b804       0x44 C:/GCC4/ARM/s002/lib/armv7aLaiv/libc.a(citrus_mskanji.o)
 .text._citrus_MSKanji_stdenc_init
                0xf804b848       0x44 C:/GCC4/ARM/s002/lib/armv7aLaiv/libc.a(citrus_mskanji.o)
 .text._citrus_MSKanji_ctype_mblen
                0xf804b88c       0x90 C:/GCC4/ARM/s002/lib/armv7aLaiv/libc.a(citrus_mskanji.o)
 .text._citrus_MSKanji_ctype_getops
                0xf804b91c       0x38 C:/GCC4/ARM/s002/lib/armv7aLaiv/libc.a(citrus_mskanji.o)
                0xf804b91c                _citrus_MSKanji_ctype_getops
 .text._citrus_MSKanji_stdenc_getops
                0xf804b954       0x38 C:/GCC4/ARM/s002/lib/armv7aLaiv/libc.a(citrus_mskanji.o)
                0xf804b954                _citrus_MSKanji_stdenc_getops
 .text          0xf804b98c        0x0 C:/GCC4/ARM/s002/lib/armv7aLaiv/libc.a(citrus_utf8.o)
 .text._citrus_UTF8_ctype_get_mb_cur_max
                0xf804b98c        0x8 C:/GCC4/ARM/s002/lib/armv7aLaiv/libc.a(citrus_utf8.o)
 .text._citrus_UTF8_stdenc_init_state
                0xf804b994       0x10 C:/GCC4/ARM/s002/lib/armv7aLaiv/libc.a(citrus_utf8.o)
 .text._citrus_UTF8_stdenc_put_state_reset
                0xf804b9a4       0x14 C:/GCC4/ARM/s002/lib/armv7aLaiv/libc.a(citrus_utf8.o)
 .text._citrus_UTF8_ctype_mbsinit
                0xf804b9b8       0x4c C:/GCC4/ARM/s002/lib/armv7aLaiv/libc.a(citrus_utf8.o)
 .text._citrus_UTF8_ctype_uninit
                0xf804ba04        0xc C:/GCC4/ARM/s002/lib/armv7aLaiv/libc.a(citrus_utf8.o)
 .text._citrus_UTF8_stdenc_uninit
                0xf804ba10       0x10 C:/GCC4/ARM/s002/lib/armv7aLaiv/libc.a(citrus_utf8.o)
 .text._citrus_UTF8_mbrtowc_priv.isra.1
                0xf804ba20      0x1d4 C:/GCC4/ARM/s002/lib/armv7aLaiv/libc.a(citrus_utf8.o)
 .text._citrus_UTF8_stdenc_mbtocs
                0xf804bbf4       0x50 C:/GCC4/ARM/s002/lib/armv7aLaiv/libc.a(citrus_utf8.o)
 .text._citrus_UTF8_stdenc_mbtowc
                0xf804bc44       0x28 C:/GCC4/ARM/s002/lib/armv7aLaiv/libc.a(citrus_utf8.o)
 .text._citrus_UTF8_ctype_mbrtowc
                0xf804bc6c       0x9c C:/GCC4/ARM/s002/lib/armv7aLaiv/libc.a(citrus_utf8.o)
 .text._citrus_UTF8_ctype_mbrlen
                0xf804bd08       0x94 C:/GCC4/ARM/s002/lib/armv7aLaiv/libc.a(citrus_utf8.o)
 .text._citrus_UTF8_wcrtomb_priv.isra.2
                0xf804bd9c       0xe0 C:/GCC4/ARM/s002/lib/armv7aLaiv/libc.a(citrus_utf8.o)
 .text._citrus_UTF8_ctype_wctomb
                0xf804be7c       0x48 C:/GCC4/ARM/s002/lib/armv7aLaiv/libc.a(citrus_utf8.o)
 .text._citrus_UTF8_stdenc_cstomb
                0xf804bec4       0x34 C:/GCC4/ARM/s002/lib/armv7aLaiv/libc.a(citrus_utf8.o)
 .text._citrus_UTF8_stdenc_wctomb
                0xf804bef8       0x14 C:/GCC4/ARM/s002/lib/armv7aLaiv/libc.a(citrus_utf8.o)
 .text._citrus_UTF8_ctype_wcrtomb
                0xf804bf0c       0x9c C:/GCC4/ARM/s002/lib/armv7aLaiv/libc.a(citrus_utf8.o)
 .text._citrus_UTF8_ctype_mbtowc
                0xf804bfa8       0xb4 C:/GCC4/ARM/s002/lib/armv7aLaiv/libc.a(citrus_utf8.o)
 .text._citrus_UTF8_mbsrtowcs_priv.isra.8
                0xf804c05c       0xe8 C:/GCC4/ARM/s002/lib/armv7aLaiv/libc.a(citrus_utf8.o)
 .text._citrus_UTF8_ctype_mbstowcs
                0xf804c144       0x50 C:/GCC4/ARM/s002/lib/armv7aLaiv/libc.a(citrus_utf8.o)
 .text._citrus_UTF8_ctype_mbsrtowcs
                0xf804c194       0x94 C:/GCC4/ARM/s002/lib/armv7aLaiv/libc.a(citrus_utf8.o)
 .text._citrus_UTF8_ctype_mbsnrtowcs
                0xf804c228      0x164 C:/GCC4/ARM/s002/lib/armv7aLaiv/libc.a(citrus_utf8.o)
 .text._citrus_UTF8_ctype_btowc
                0xf804c38c       0x88 C:/GCC4/ARM/s002/lib/armv7aLaiv/libc.a(citrus_utf8.o)
 .text._citrus_UTF8_ctype_wctob
                0xf804c414       0x68 C:/GCC4/ARM/s002/lib/armv7aLaiv/libc.a(citrus_utf8.o)
 .text._citrus_UTF8_stdenc_get_state_desc
                0xf804c47c       0x2c C:/GCC4/ARM/s002/lib/armv7aLaiv/libc.a(citrus_utf8.o)
 .text._citrus_UTF8_wcsrtombs_priv.isra.13
                0xf804c4a8       0xf8 C:/GCC4/ARM/s002/lib/armv7aLaiv/libc.a(citrus_utf8.o)
 .text._citrus_UTF8_ctype_wcstombs
                0xf804c5a0       0x3c C:/GCC4/ARM/s002/lib/armv7aLaiv/libc.a(citrus_utf8.o)
 .text._citrus_UTF8_ctype_wcsrtombs
                0xf804c5dc       0x94 C:/GCC4/ARM/s002/lib/armv7aLaiv/libc.a(citrus_utf8.o)
 .text._citrus_UTF8_ctype_wcsnrtombs
                0xf804c670      0x18c C:/GCC4/ARM/s002/lib/armv7aLaiv/libc.a(citrus_utf8.o)
 .text._citrus_UTF8_ctype_init
                0xf804c7fc      0x104 C:/GCC4/ARM/s002/lib/armv7aLaiv/libc.a(citrus_utf8.o)
 .text._citrus_UTF8_ctype_mblen
                0xf804c900       0x9c C:/GCC4/ARM/s002/lib/armv7aLaiv/libc.a(citrus_utf8.o)
 .text._citrus_UTF8_stdenc_init
                0xf804c99c       0xf4 C:/GCC4/ARM/s002/lib/armv7aLaiv/libc.a(citrus_utf8.o)
 .text._citrus_UTF8_ctype_getops
                0xf804ca90       0x38 C:/GCC4/ARM/s002/lib/armv7aLaiv/libc.a(citrus_utf8.o)
                0xf804ca90                _citrus_UTF8_ctype_getops
 .text._citrus_UTF8_stdenc_getops
                0xf804cac8       0x38 C:/GCC4/ARM/s002/lib/armv7aLaiv/libc.a(citrus_utf8.o)
                0xf804cac8                _citrus_UTF8_stdenc_getops
 .text          0xf804cb00        0x0 C:/GCC4/ARM/s002/lib/armv7aLaiv/libc.a(localeconv.o)
 .text.localeconv
                0xf804cb00       0x14 C:/GCC4/ARM/s002/lib/armv7aLaiv/libc.a(localeconv.o)
                0xf804cb00                localeconv
 .text.localeconv_l
                0xf804cb14        0xc C:/GCC4/ARM/s002/lib/armv7aLaiv/libc.a(localeconv.o)
                0xf804cb14                localeconv_l
 .text          0xf804cb20        0x0 C:/GCC4/ARM/s002/lib/armv7aLaiv/libc.a(multibyte_amd1.o)
 .text.mbrlen_l
                0xf804cb20       0xbc C:/GCC4/ARM/s002/lib/armv7aLaiv/libc.a(multibyte_amd1.o)
                0xf804cb20                mbrlen_l
 .text.mbrlen   0xf804cbdc        0xc C:/GCC4/ARM/s002/lib/armv7aLaiv/libc.a(multibyte_amd1.o)
                0xf804cbdc                mbrlen
 .text.mbsinit_l
                0xf804cbe8       0x68 C:/GCC4/ARM/s002/lib/armv7aLaiv/libc.a(multibyte_amd1.o)
                0xf804cbe8                mbsinit_l
 .text.mbsinit  0xf804cc50        0xc C:/GCC4/ARM/s002/lib/armv7aLaiv/libc.a(multibyte_amd1.o)
                0xf804cc50                mbsinit
 .text.mbrtowc_l
                0xf804cc5c       0xcc C:/GCC4/ARM/s002/lib/armv7aLaiv/libc.a(multibyte_amd1.o)
                0xf804cc5c                mbrtowc_l
 .text.mbrtowc  0xf804cd28       0x20 C:/GCC4/ARM/s002/lib/armv7aLaiv/libc.a(multibyte_amd1.o)
                0xf804cd28                mbrtowc
 .text.mbsrtowcs_l
                0xf804cd48       0xcc C:/GCC4/ARM/s002/lib/armv7aLaiv/libc.a(multibyte_amd1.o)
                0xf804cd48                mbsrtowcs_l
 .text.mbsrtowcs
                0xf804ce14       0x20 C:/GCC4/ARM/s002/lib/armv7aLaiv/libc.a(multibyte_amd1.o)
                0xf804ce14                mbsrtowcs
 .text.mbsnrtowcs_l
                0xf804ce34       0xd0 C:/GCC4/ARM/s002/lib/armv7aLaiv/libc.a(multibyte_amd1.o)
                0xf804ce34                mbsnrtowcs_l
 .text.mbsnrtowcs
                0xf804cf04       0x28 C:/GCC4/ARM/s002/lib/armv7aLaiv/libc.a(multibyte_amd1.o)
                0xf804cf04                mbsnrtowcs
 .text.wcrtomb_l
                0xf804cf2c       0xbc C:/GCC4/ARM/s002/lib/armv7aLaiv/libc.a(multibyte_amd1.o)
                0xf804cf2c                wcrtomb_l
 .text.wcrtomb  0xf804cfe8        0xc C:/GCC4/ARM/s002/lib/armv7aLaiv/libc.a(multibyte_amd1.o)
                0xf804cfe8                wcrtomb
 .text.wcsrtombs_l
                0xf804cff4       0xcc C:/GCC4/ARM/s002/lib/armv7aLaiv/libc.a(multibyte_amd1.o)
                0xf804cff4                wcsrtombs_l
 .text.wcsrtombs
                0xf804d0c0       0x20 C:/GCC4/ARM/s002/lib/armv7aLaiv/libc.a(multibyte_amd1.o)
                0xf804d0c0                wcsrtombs
 .text.btowc_l  0xf804d0e0       0x40 C:/GCC4/ARM/s002/lib/armv7aLaiv/libc.a(multibyte_amd1.o)
                0xf804d0e0                btowc_l
 .text.btowc    0xf804d120        0xc C:/GCC4/ARM/s002/lib/armv7aLaiv/libc.a(multibyte_amd1.o)
                0xf804d120                btowc
 .text.wctob_l  0xf804d12c       0x40 C:/GCC4/ARM/s002/lib/armv7aLaiv/libc.a(multibyte_amd1.o)
                0xf804d12c                wctob_l
 .text.wctob    0xf804d16c        0xc C:/GCC4/ARM/s002/lib/armv7aLaiv/libc.a(multibyte_amd1.o)
                0xf804d16c                wctob
 .text._mb_cur_max_l
                0xf804d178       0x18 C:/GCC4/ARM/s002/lib/armv7aLaiv/libc.a(multibyte_amd1.o)
                0xf804d178                _mb_cur_max_l
 .text          0xf804d190        0x0 C:/GCC4/ARM/s002/lib/armv7aLaiv/libc.a(__isthreaded.o)
 .text          0xf804d190        0x0 C:/GCC4/ARM/s002/lib/armv7aLaiv/libc.a(dtoa.o)
 .text.__dtoa   0xf804d190     0x1644 C:/GCC4/ARM/s002/lib/armv7aLaiv/libc.a(dtoa.o)
                0xf804d190                __dtoa
 .text          0xf804e7d4        0x0 C:/GCC4/ARM/s002/lib/armv7aLaiv/libc.a(ldtoa.o)
 .text.__ldtoa  0xf804e7d4       0x3c C:/GCC4/ARM/s002/lib/armv7aLaiv/libc.a(ldtoa.o)
                0xf804e7d4                __ldtoa
 .text          0xf804e810        0x0 C:/GCC4/ARM/s002/lib/armv7aLaiv/libc.a(hdtoa.o)
 .text.__hdtoa  0xf804e810      0x2c0 C:/GCC4/ARM/s002/lib/armv7aLaiv/libc.a(hdtoa.o)
                0xf804e810                __hdtoa
 .text.__hldtoa
                0xf804ead0        0xc C:/GCC4/ARM/s002/lib/armv7aLaiv/libc.a(hdtoa.o)
                0xf804ead0                __hldtoa
 .text          0xf804eadc        0x0 C:/GCC4/ARM/s002/lib/armv7aLaiv/libc.a(dmisc.o)
 .text.__rv_alloc_D2A
                0xf804eadc       0x3c C:/GCC4/ARM/s002/lib/armv7aLaiv/libc.a(dmisc.o)
                0xf804eadc                __rv_alloc_D2A
 .text.__nrv_alloc_D2A
                0xf804eb18       0x5c C:/GCC4/ARM/s002/lib/armv7aLaiv/libc.a(dmisc.o)
                0xf804eb18                __nrv_alloc_D2A
 .text.__freedtoa
                0xf804eb74       0x1c C:/GCC4/ARM/s002/lib/armv7aLaiv/libc.a(dmisc.o)
                0xf804eb74                __freedtoa
 .text.__quorem_D2A
                0xf804eb90      0x1f8 C:/GCC4/ARM/s002/lib/armv7aLaiv/libc.a(dmisc.o)
                0xf804eb90                __quorem_D2A
 .text          0xf804ed88        0x0 C:/GCC4/ARM/s002/lib/armv7aLaiv/libc.a(misc.o)
 .text.__Balloc_D2A
                0xf804ed88      0x114 C:/GCC4/ARM/s002/lib/armv7aLaiv/libc.a(misc.o)
                0xf804ed88                __Balloc_D2A
 .text.__Bfree_D2A
                0xf804ee9c       0x8c C:/GCC4/ARM/s002/lib/armv7aLaiv/libc.a(misc.o)
                0xf804ee9c                __Bfree_D2A
 .text.__lo0bits_D2A
                0xf804ef28       0x98 C:/GCC4/ARM/s002/lib/armv7aLaiv/libc.a(misc.o)
                0xf804ef28                __lo0bits_D2A
 .text.__multadd_D2A
                0xf804efc0       0xd0 C:/GCC4/ARM/s002/lib/armv7aLaiv/libc.a(misc.o)
                0xf804efc0                __multadd_D2A
 .text.__hi0bits_D2A
                0xf804f090       0x58 C:/GCC4/ARM/s002/lib/armv7aLaiv/libc.a(misc.o)
                0xf804f090                __hi0bits_D2A
 .text.__i2b_D2A
                0xf804f0e8       0x24 C:/GCC4/ARM/s002/lib/armv7aLaiv/libc.a(misc.o)
                0xf804f0e8                __i2b_D2A
 .text.__mult_D2A
                0xf804f10c      0x13c C:/GCC4/ARM/s002/lib/armv7aLaiv/libc.a(misc.o)
                0xf804f10c                __mult_D2A
 .text.__pow5mult_D2A
                0xf804f248      0x1cc C:/GCC4/ARM/s002/lib/armv7aLaiv/libc.a(misc.o)
                0xf804f248                __pow5mult_D2A
 .text.__lshift_D2A
                0xf804f414       0xf8 C:/GCC4/ARM/s002/lib/armv7aLaiv/libc.a(misc.o)
                0xf804f414                __lshift_D2A
 .text.__cmp_D2A
                0xf804f50c       0x60 C:/GCC4/ARM/s002/lib/armv7aLaiv/libc.a(misc.o)
                0xf804f50c                __cmp_D2A
 .text.__diff_D2A
                0xf804f56c      0x184 C:/GCC4/ARM/s002/lib/armv7aLaiv/libc.a(misc.o)
                0xf804f56c                __diff_D2A
 .text.__b2d_D2A
                0xf804f6f0       0xd8 C:/GCC4/ARM/s002/lib/armv7aLaiv/libc.a(misc.o)
                0xf804f6f0                __b2d_D2A
 .text.__d2b_D2A
                0xf804f7c8      0x108 C:/GCC4/ARM/s002/lib/armv7aLaiv/libc.a(misc.o)
                0xf804f7c8                __d2b_D2A
 .text.__strcp_D2A
                0xf804f8d0       0x30 C:/GCC4/ARM/s002/lib/armv7aLaiv/libc.a(misc.o)
                0xf804f8d0                __strcp_D2A
 .text          0xf804f900        0x0 C:/GCC4/ARM/s002/lib/armv7aLaiv/libc.a(softfloat.o)
 .text.propagateFloat32NaN
                0xf804f900       0xe4 C:/GCC4/ARM/s002/lib/armv7aLaiv/libc.a(softfloat.o)
 .text.propagateFloat64NaN
                0xf804f9e4      0x1e0 C:/GCC4/ARM/s002/lib/armv7aLaiv/libc.a(softfloat.o)
 .text.roundAndPackFloat32
                0xf804fbc4      0x17c C:/GCC4/ARM/s002/lib/armv7aLaiv/libc.a(softfloat.o)
 .text.normalizeRoundAndPackFloat32
                0xf804fd40       0x4c C:/GCC4/ARM/s002/lib/armv7aLaiv/libc.a(softfloat.o)
 .text.roundAndPackFloat64
                0xf804fd8c      0x238 C:/GCC4/ARM/s002/lib/armv7aLaiv/libc.a(softfloat.o)
 .text.addFloat32Sigs
                0xf804ffc4      0x194 C:/GCC4/ARM/s002/lib/armv7aLaiv/libc.a(softfloat.o)
 .text.subFloat32Sigs
                0xf8050158      0x1b0 C:/GCC4/ARM/s002/lib/armv7aLaiv/libc.a(softfloat.o)
 .text.addFloat64Sigs
                0xf8050308      0x2f8 C:/GCC4/ARM/s002/lib/armv7aLaiv/libc.a(softfloat.o)
 .text.subFloat64Sigs
                0xf8050600      0x374 C:/GCC4/ARM/s002/lib/armv7aLaiv/libc.a(softfloat.o)
 .text._softfloat_float_raise
                0xf8050974       0x18 C:/GCC4/ARM/s002/lib/armv7aLaiv/libc.a(softfloat.o)
                0xf8050974                _softfloat_float_raise
 .text.__aeabi_i2f
                0xf805098c       0x2c C:/GCC4/ARM/s002/lib/armv7aLaiv/libc.a(softfloat.o)
                0xf805098c                __aeabi_i2f
 .text.__aeabi_i2d
                0xf80509b8       0x98 C:/GCC4/ARM/s002/lib/armv7aLaiv/libc.a(softfloat.o)
                0xf80509b8                __aeabi_i2d
 .text.__aeabi_f2iz
                0xf8050a50       0xc8 C:/GCC4/ARM/s002/lib/armv7aLaiv/libc.a(softfloat.o)
                0xf8050a50                __aeabi_f2iz
 .text.__aeabi_f2d
                0xf8050b18      0x140 C:/GCC4/ARM/s002/lib/armv7aLaiv/libc.a(softfloat.o)
                0xf8050b18                __aeabi_f2d
 .text.__aeabi_fadd
                0xf8050c58       0x1c C:/GCC4/ARM/s002/lib/armv7aLaiv/libc.a(softfloat.o)
                0xf8050c58                __aeabi_fadd
 .text.__aeabi_fsub
                0xf8050c74       0x1c C:/GCC4/ARM/s002/lib/armv7aLaiv/libc.a(softfloat.o)
                0xf8050c74                __aeabi_fsub
 .text.__aeabi_fmul
                0xf8050c90      0x1a0 C:/GCC4/ARM/s002/lib/armv7aLaiv/libc.a(softfloat.o)
                0xf8050c90                __aeabi_fmul
 .text.__aeabi_fdiv
                0xf8050e30      0x1e8 C:/GCC4/ARM/s002/lib/armv7aLaiv/libc.a(softfloat.o)
                0xf8050e30                __aeabi_fdiv
 .text._softfloat_float32_eq
                0xf8051018       0xc4 C:/GCC4/ARM/s002/lib/armv7aLaiv/libc.a(softfloat.o)
                0xf8051018                _softfloat_float32_eq
 .text._softfloat_float32_le
                0xf80510dc       0x9c C:/GCC4/ARM/s002/lib/armv7aLaiv/libc.a(softfloat.o)
                0xf80510dc                _softfloat_float32_le
 .text._softfloat_float32_lt
                0xf8051178       0xa0 C:/GCC4/ARM/s002/lib/armv7aLaiv/libc.a(softfloat.o)
                0xf8051178                _softfloat_float32_lt
 .text.__aeabi_d2iz
                0xf8051218      0x170 C:/GCC4/ARM/s002/lib/armv7aLaiv/libc.a(softfloat.o)
                0xf8051218                __aeabi_d2iz
 .text.__aeabi_d2f
                0xf8051388      0x110 C:/GCC4/ARM/s002/lib/armv7aLaiv/libc.a(softfloat.o)
                0xf8051388                __aeabi_d2f
 .text.__aeabi_dadd
                0xf8051498       0x30 C:/GCC4/ARM/s002/lib/armv7aLaiv/libc.a(softfloat.o)
                0xf8051498                __aeabi_dadd
 .text.__aeabi_dsub
                0xf80514c8       0x30 C:/GCC4/ARM/s002/lib/armv7aLaiv/libc.a(softfloat.o)
                0xf80514c8                __aeabi_dsub
 .text.__aeabi_dmul
                0xf80514f8      0x354 C:/GCC4/ARM/s002/lib/armv7aLaiv/libc.a(softfloat.o)
                0xf80514f8                __aeabi_dmul
 .text.__aeabi_ddiv
                0xf805184c      0x608 C:/GCC4/ARM/s002/lib/armv7aLaiv/libc.a(softfloat.o)
                0xf805184c                __aeabi_ddiv
 .text._softfloat_float64_eq
                0xf8051e54      0x14c C:/GCC4/ARM/s002/lib/armv7aLaiv/libc.a(softfloat.o)
                0xf8051e54                _softfloat_float64_eq
 .text._softfloat_float64_le
                0xf8051fa0       0xec C:/GCC4/ARM/s002/lib/armv7aLaiv/libc.a(softfloat.o)
                0xf8051fa0                _softfloat_float64_le
 .text._softfloat_float64_lt
                0xf805208c       0xf0 C:/GCC4/ARM/s002/lib/armv7aLaiv/libc.a(softfloat.o)
                0xf805208c                _softfloat_float64_lt
 .text          0xf805217c        0x0 C:/GCC4/ARM/s002/lib/armv7aLaiv/libc.a(__aeabi_dcmpeq.o)
 .text.__aeabi_dcmpeq
                0xf805217c        0x4 C:/GCC4/ARM/s002/lib/armv7aLaiv/libc.a(__aeabi_dcmpeq.o)
                0xf805217c                __aeabi_dcmpeq
 .text          0xf8052180        0x0 C:/GCC4/ARM/s002/lib/armv7aLaiv/libc.a(__aeabi_dcmpge.o)
 .text.__aeabi_dcmpge
                0xf8052180       0x64 C:/GCC4/ARM/s002/lib/armv7aLaiv/libc.a(__aeabi_dcmpge.o)
                0xf8052180                __aeabi_dcmpge
 .text          0xf80521e4        0x0 C:/GCC4/ARM/s002/lib/armv7aLaiv/libc.a(__aeabi_dcmpgt.o)
 .text.__aeabi_dcmpgt
                0xf80521e4       0x64 C:/GCC4/ARM/s002/lib/armv7aLaiv/libc.a(__aeabi_dcmpgt.o)
                0xf80521e4                __aeabi_dcmpgt
 .text          0xf8052248        0x0 C:/GCC4/ARM/s002/lib/armv7aLaiv/libc.a(__aeabi_dcmplt.o)
 .text.__aeabi_dcmplt
                0xf8052248        0x4 C:/GCC4/ARM/s002/lib/armv7aLaiv/libc.a(__aeabi_dcmplt.o)
                0xf8052248                __aeabi_dcmplt
 .text          0xf805224c        0x0 C:/GCC4/ARM/s002/lib/armv7aLaiv/libc.a(rb.o)
 .text.rb_tree_reparent_nodes.isra.0
                0xf805224c       0xe4 C:/GCC4/ARM/s002/lib/armv7aLaiv/libc.a(rb.o)
 .text.rb_tree_removal_rebalance.isra.1
                0xf8052330      0x16c C:/GCC4/ARM/s002/lib/armv7aLaiv/libc.a(rb.o)
 .text._rb_tree_init
                0xf805249c       0x18 C:/GCC4/ARM/s002/lib/armv7aLaiv/libc.a(rb.o)
                0xf805249c                rb_tree_init
                0xf805249c                _rb_tree_init
 .text._rb_tree_find_node
                0xf80524b4       0x60 C:/GCC4/ARM/s002/lib/armv7aLaiv/libc.a(rb.o)
                0xf80524b4                _rb_tree_find_node
                0xf80524b4                rb_tree_find_node
 .text._rb_tree_find_node_geq
                0xf8052514       0x7c C:/GCC4/ARM/s002/lib/armv7aLaiv/libc.a(rb.o)
                0xf8052514                _rb_tree_find_node_geq
                0xf8052514                rb_tree_find_node_geq
 .text._rb_tree_find_node_leq
                0xf8052590       0x7c C:/GCC4/ARM/s002/lib/armv7aLaiv/libc.a(rb.o)
                0xf8052590                rb_tree_find_node_leq
                0xf8052590                _rb_tree_find_node_leq
 .text._rb_tree_insert_node
                0xf805260c      0x1dc C:/GCC4/ARM/s002/lib/armv7aLaiv/libc.a(rb.o)
                0xf805260c                _rb_tree_insert_node
                0xf805260c                rb_tree_insert_node
 .text._rb_tree_iterate
                0xf80527e8       0xb4 C:/GCC4/ARM/s002/lib/armv7aLaiv/libc.a(rb.o)
                0xf80527e8                _rb_tree_iterate
                0xf80527e8                rb_tree_iterate
 .text._rb_tree_remove_node
                0xf805289c      0x28c C:/GCC4/ARM/s002/lib/armv7aLaiv/libc.a(rb.o)
                0xf805289c                _rb_tree_remove_node
                0xf805289c                rb_tree_remove_node
 .text          0xf8052b28        0x0 C:/GCC4/ARM/s002/lib/armv7aLaiv/libc.a(fflush.o)
 .text.__sflush
                0xf8052b28       0xac C:/GCC4/ARM/s002/lib/armv7aLaiv/libc.a(fflush.o)
                0xf8052b28                __sflush
 .text.fflush   0xf8052bd4       0x84 C:/GCC4/ARM/s002/lib/armv7aLaiv/libc.a(fflush.o)
                0xf8052bd4                fflush
 .text          0xf8052c58        0x0 C:/GCC4/ARM/s002/lib/armv7aLaiv/libc.a(flockfile.o)
 .text.__flockfile_internal.part.0
                0xf8052c58       0xf8 C:/GCC4/ARM/s002/lib/armv7aLaiv/libc.a(flockfile.o)
 .text.__funlockfile_internal.part.1
                0xf8052d50       0x84 C:/GCC4/ARM/s002/lib/armv7aLaiv/libc.a(flockfile.o)
 .text._flockfile
                0xf8052dd4       0x1c C:/GCC4/ARM/s002/lib/armv7aLaiv/libc.a(flockfile.o)
                0xf8052dd4                flockfile
                0xf8052dd4                _flockfile
 .text._ftrylockfile
                0xf8052df0       0x94 C:/GCC4/ARM/s002/lib/armv7aLaiv/libc.a(flockfile.o)
                0xf8052df0                ftrylockfile
                0xf8052df0                _ftrylockfile
 .text._funlockfile
                0xf8052e84       0x1c C:/GCC4/ARM/s002/lib/armv7aLaiv/libc.a(flockfile.o)
                0xf8052e84                funlockfile
                0xf8052e84                _funlockfile
 .text.__flockfile_internal
                0xf8052ea0       0x18 C:/GCC4/ARM/s002/lib/armv7aLaiv/libc.a(flockfile.o)
                0xf8052ea0                __flockfile_internal
 .text.__funlockfile_internal
                0xf8052eb8       0x18 C:/GCC4/ARM/s002/lib/armv7aLaiv/libc.a(flockfile.o)
                0xf8052eb8                __funlockfile_internal
 .text          0xf8052ed0        0x0 C:/GCC4/ARM/s002/lib/armv7aLaiv/libc.a(fvwrite.o)
 .text.__sfvwrite
                0xf8052ed0      0x400 C:/GCC4/ARM/s002/lib/armv7aLaiv/libc.a(fvwrite.o)
                0xf8052ed0                __sfvwrite
 .text          0xf80532d0        0x0 C:/GCC4/ARM/s002/lib/armv7aLaiv/libc.a(fwalk.o)
 .text._fwalk   0xf80532d0       0x6c C:/GCC4/ARM/s002/lib/armv7aLaiv/libc.a(fwalk.o)
                0xf80532d0                _fwalk
 .text          0xf805333c        0x0 C:/GCC4/ARM/s002/lib/armv7aLaiv/libc.a(creat.o)
 .text.creat    0xf805333c       0xa0 C:/GCC4/ARM/s002/lib/armv7aLaiv/libc.a(creat.o)
                0xf805333c                creat
 .text          0xf80533dc        0x0 C:/GCC4/ARM/s002/lib/armv7aLaiv/libc.a(fpclassifyd_ieee754.o)
 .text.__fpclassifyd
                0xf80533dc       0x60 C:/GCC4/ARM/s002/lib/armv7aLaiv/libc.a(fpclassifyd_ieee754.o)
                0xf80533dc                __fpclassifyd
 .text          0xf805343c        0x0 C:/GCC4/ARM/s002/lib/armv7aLaiv/libc.a(strcasecmp.o)
 .text._strcasecmp
                0xf805343c       0x48 C:/GCC4/ARM/s002/lib/armv7aLaiv/libc.a(strcasecmp.o)
                0xf805343c                strcasecmp
                0xf805343c                _strcasecmp
 .text          0xf8053484        0x0 C:/GCC4/ARM/s002/lib/armv7aLaiv/libc.a(gdtoa_locks.o)
 .text          0xf8053484      0x240 C:/GCC4/ARM/s002/lib/armv7aLaiv/libgcc.a(_divsi3.o)
                0xf8053484                __divsi3
                0xf8053484                __aeabi_idiv
                0xf80536a4                __aeabi_idivmod
 .text          0xf80536c4      0x3b8 C:/GCC4/ARM/s002/lib/armv7aLaiv/libgcc.a(_arm_addsubdf3.o)
                0xf80536c4                __aeabi_drsub
                0xf80536cc                __libgcc_orig__aeabi_dsub
                0xf80536cc                __subdf3
                0xf80536d0                __adddf3
                0xf80536d0                __libgcc_orig__aeabi_dadd
                0xf805397c                __floatunsidf
                0xf805397c                __aeabi_ui2d
                0xf80539a0                __floatsidf
                0xf80539a0                __libgcc_orig__aeabi_i2d
                0xf80539c8                __libgcc_orig__aeabi_f2d
                0xf80539c8                __extendsfdf2
                0xf8053a08                __floatundidf
                0xf8053a08                __aeabi_ul2d
                0xf8053a1c                __floatdidf
                0xf8053a1c                __aeabi_l2d
 .text          0xf8053a7c       0xd4 C:/GCC4/ARM/s002/lib/armv7aLaiv/libgcc.a(_aeabi_ldivmod.o)
                0xf8053a7c                __aeabi_ldivmod
 *(.glue_7t)
 .glue_7t       0xf8053b50        0x0 linker stubs
 *(.glue_7)
 .glue_7        0xf8053b50        0x0 linker stubs
                0xf8053b50                _solid_text_end = .
                0x00010000                _solid_text_offs = (_solid_text_start - _solid_start)
                0x00043b50                _solid_text_size = (_solid_text_end - _solid_text_start)

.vfp11_veneer   0xf8053b50        0x0
 .vfp11_veneer  0xf8053b50        0x0 linker stubs

.v4_bx          0xf8053b50        0x0
 .v4_bx         0xf8053b50        0x0 linker stubs

.iplt           0xf8053b50        0x0
 .iplt          0xf8053b50        0x0 C:/Users/admin/Documents/SOLID-IDE/Projects/cpptest/Release/exeGCC_SOLID/cpptest/cpptest_all.o

.solid_mon      0xf8054000        0x0
                0xf8054000                _solid_mon_start = .
 *(.solid_mon)
 *(.smon_text)
 *(.smon_data)
                0xf8054000                _solid_mon_end = .
                0x00054000                _solid_mon_offs = (_solid_mon_start - _solid_start)
                0x00000000                _solid_mon_size = (_solid_mon_end - _solid_mon_start)

.rodata         0xf8054000     0x6948
                0xf8054000                _solid_rodata_start = .
 *(.rodata .rodata.*)
 .rodata        0xf8054000      0x338 C:/Users/admin/Documents/SOLID-IDE/Projects/cpptest/Release/exeGCC_SOLID/cpptest/cpptest_all.o
                0xf8054168                __NET_SYS_TSK_ID_BASE__
                0xf805416c                __NET_SYS_DTQ_ID_BASE__
                0xf8054170                __NET_SYS_SEM_ID_BASE__
                0xf8054174                _kernel_kmm
                0xf8054178                _kernel_kmmsz
                0xf805417c                _kernel_tnum_isr_queue
                0xf8054180                _kernel_tnum_cfg_intno
                0xf8054184                _kernel_tnum_isrcb
                0xf8054188                _kernel_tmax_isrid
                0xf805418c                _kernel_tmax_sisrid
                0xf8054190                _kernel_tnum_almcb
                0xf8054194                _kernel_tmax_almid
                0xf8054198                _kernel_tmax_salmid
                0xf805419c                _kernel_tnum_cyccb
                0xf80541a0                _kernel_tmax_cycid
                0xf80541a4                _kernel_tmax_scycid
                0xf80541a8                _kernel_tnum_mpfcb
                0xf80541ac                _kernel_tmax_mpfid
                0xf80541b0                _kernel_tmax_smpfid
                0xf80541b4                _kernel_tnum_mtxcb
                0xf80541b8                _kernel_tmax_mtxid
                0xf80541bc                _kernel_tmax_smtxid
                0xf80541c0                _kernel_tnum_pdqcb
                0xf80541c4                _kernel_tmax_pdqid
                0xf80541c8                _kernel_tmax_spdqid
                0xf80541cc                _kernel_tnum_dtqcb
                0xf80541d0                _kernel_tmax_dtqid
                0xf80541d4                _kernel_tmax_sdtqid
                0xf80541d8                _kernel_tnum_flgcb
                0xf80541dc                _kernel_tmax_flgid
                0xf80541e0                _kernel_tmax_sflgid
                0xf80541e4                _kernel_tnum_semcb
                0xf80541e8                _kernel_tmax_semid
                0xf80541ec                _kernel_tmax_ssemid
                0xf80541f0                _kernel_tnum_tcb
                0xf80541f4                _kernel_tmax_tskid
                0xf80541f8                _kernel_tmax_stskid
                0xf80541fc                _kernel_mtxinib_table
                0xf80541fc                _kernel_mpfinib_table
                0xf80541fc                _kernel_intinib_table
                0xf80541fc                _kernel_cycinib_table
                0xf80541fc                _kernel_pdqinib_table
                0xf80541fc                _kernel_alminib_table
                0xf80541fc                _kernel_isrini_cfg_table
                0xf80541fc                _kernel_dtqinib_table
                0xf80541fc                _kernel_isrorder_table
                0xf8054238                _kernel_seminib_table
                0xf8054238                _kernel_flginib_table
                0xf8054274                _kernel_torder_table
                0xf8054290                _kernel_tinib_table
 .rodata.str1.4
                0xf8054338       0xab C:/Users/admin/Documents/SOLID-IDE/Projects/cpptest/Release/exeGCC_SOLID/cpptest/cpptest_all.o
 *fill*         0xf80543e3        0x1 
 .rodata        0xf80543e4       0x30 C:/ProgramData/KMC/SOLID/SDK/2.0/solid-os/core/lib/armv7aLaiv/GR_\libsolid_cs.a(solid_cs_event.o)
 .rodata.str1.4
                0xf8054414      0x17d C:/ProgramData/KMC/SOLID/SDK/2.0/solid-os/core/lib/armv7aLaiv/GR_\libsolid_cs.a(solid_cs_event.o)
 *fill*         0xf8054591        0x3 
 .rodata._ZTSN3kmg5solid4dmac10ControllerE
                0xf8054594       0x1e C:/ProgramData/KMC/SOLID/SDK/2.0/solid-os/core/lib/armv7aLaiv/GR_\libsolid_cs.a(solid_dmac.o)
                0xf8054594                _ZTSN3kmg5solid4dmac10ControllerE
 *fill*         0xf80545b2        0x2 
 .rodata._ZTIN3kmg5solid4dmac10ControllerE
                0xf80545b4        0x8 C:/ProgramData/KMC/SOLID/SDK/2.0/solid-os/core/lib/armv7aLaiv/GR_\libsolid_cs.a(solid_dmac.o)
                0xf80545b4                _ZTIN3kmg5solid4dmac10ControllerE
 .rodata._ZTVN3kmg5solid4dmac10ControllerE
                0xf80545bc       0x10 C:/ProgramData/KMC/SOLID/SDK/2.0/solid-os/core/lib/armv7aLaiv/GR_\libsolid_cs.a(solid_dmac.o)
                0xf80545bc                _ZTVN3kmg5solid4dmac10ControllerE
 .rodata.str1.4
                0xf80545cc      0x17d C:/ProgramData/KMC/SOLID/SDK/2.0/solid-os/core/lib/armv7aLaiv/GR_\libsolid_cs.a(solid_fs_base.o)
                                  0x2 (size before relaxing)
 .rodata.str1.4
                0xf80545cc        0x6 C:/ProgramData/KMC/SOLID/SDK/2.0/solid-os/core/lib/armv7aLaiv/GR_\libsolid_cs.a(solid_fs_mem.o)
 *fill*         0xf80545d2        0x2 
 .rodata.str1.4
                0xf80545d4        0x8 C:/ProgramData/KMC/SOLID/SDK/2.0/solid-os/core/lib/armv7aLaiv/GR_\libsolid_cs.a(solid_fs_vlink.o)
 .rodata.str1.4
                0xf80545dc      0x108 C:/ProgramData/KMC/SOLID/SDK/2.0/solid-os/core/lib/armv7aLaiv/GR_\libsolid_cs.a(solid_intc.o)
 .rodata        0xf80546e4       0x38 C:/ProgramData/KMC/SOLID/SDK/2.0/solid-os/core/lib/armv7aLaiv/GR_\libsolid_cs.a(solid_iores.o)
                0xf80546e4                _ZTVN3kmg5solid5iores9IOManagerE
                0xf80546f4                _ZTSN3kmg5solid5iores9IOManagerE
                0xf8054714                _ZTIN3kmg5solid5iores9IOManagerE
 .rodata._ZTSN3kmg5solid3elf10LinkObjectE
                0xf805471c       0x1d C:/ProgramData/KMC/SOLID/SDK/2.0/solid-os/core/lib/armv7aLaiv/GR_\libsolid_cs.a(solid_loader.o)
                0xf805471c                _ZTSN3kmg5solid3elf10LinkObjectE
 *fill*         0xf8054739        0x3 
 .rodata._ZTIN3kmg5solid3elf10LinkObjectE
                0xf805473c        0x8 C:/ProgramData/KMC/SOLID/SDK/2.0/solid-os/core/lib/armv7aLaiv/GR_\libsolid_cs.a(solid_loader.o)
                0xf805473c                _ZTIN3kmg5solid3elf10LinkObjectE
 .rodata._ZTSN3kmg5solid3elf11LoadManagerE
                0xf8054744       0x1e C:/ProgramData/KMC/SOLID/SDK/2.0/solid-os/core/lib/armv7aLaiv/GR_\libsolid_cs.a(solid_loader.o)
                0xf8054744                _ZTSN3kmg5solid3elf11LoadManagerE
 *fill*         0xf8054762        0x2 
 .rodata._ZTIN3kmg5solid3elf11LoadManagerE
                0xf8054764        0x8 C:/ProgramData/KMC/SOLID/SDK/2.0/solid-os/core/lib/armv7aLaiv/GR_\libsolid_cs.a(solid_loader.o)
                0xf8054764                _ZTIN3kmg5solid3elf11LoadManagerE
 .rodata._ZTVN3kmg5solid3elf11LoadManagerE
                0xf805476c       0x10 C:/ProgramData/KMC/SOLID/SDK/2.0/solid-os/core/lib/armv7aLaiv/GR_\libsolid_cs.a(solid_loader.o)
                0xf805476c                _ZTVN3kmg5solid3elf11LoadManagerE
 .rodata        0xf805477c      0x118 C:/ProgramData/KMC/SOLID/SDK/2.0/solid-os/core/lib/armv7aLaiv/GR_\libsolid_cs.a(solid_loader.o)
                0xf805477c                _ZTVN3kmg5solid3elf12RelocateInfoE
                0xf805478c                _ZTVN3kmg5solid3elf9ELFObjectE
                0xf805479c                _ZTVN3kmg5solid3elf6SymbolE
                0xf80547ac                _ZTVN3kmg5solid3elf7SectionE
                0xf80547bc                _ZTVN3kmg5solid3elf7SegmentE
                0xf80547cc                _ZTSN3kmg5solid3elf7SectionE
                0xf80547e8                _ZTIN3kmg5solid3elf7SectionE
                0xf80547f4                _ZTSN3kmg5solid3elf7SegmentE
                0xf8054810                _ZTIN3kmg5solid3elf7SegmentE
                0xf805481c                _ZTSN3kmg5solid3elf9ELFObjectE
                0xf8054838                _ZTIN3kmg5solid3elf9ELFObjectE
                0xf8054844                _ZTSN3kmg5solid3elf12RelocateInfoE
                0xf8054864                _ZTIN3kmg5solid3elf12RelocateInfoE
                0xf8054870                _ZTSN3kmg5solid3elf6SymbolE
                0xf8054888                _ZTIN3kmg5solid3elf6SymbolE
 .rodata.str1.4
                0xf8054894        0xd C:/ProgramData/KMC/SOLID/SDK/2.0/solid-os/core/lib/armv7aLaiv/GR_\libsolid_cs.a(solid_loader.o)
 *fill*         0xf80548a1        0x3 
 .rodata        0xf80548a4      0x320 C:/ProgramData/KMC/SOLID/SDK/2.0/solid-os/core/lib/armv7aLaiv/GR_\libsolid_cs.a(solid_loader_fixed.o)
 .rodata.str1.4
                0xf8054bc4      0x862 C:/ProgramData/KMC/SOLID/SDK/2.0/solid-os/core/lib/armv7aLaiv/GR_\libsolid_cs.a(solid_loader_fixed.o)
 *fill*         0xf8055426        0x2 
 .rodata.str1.4
                0xf8055428       0x47 C:/ProgramData/KMC/SOLID/SDK/2.0/solid-os/core/lib/armv7aLaiv/GR_\libsolid_cs.a(solid_malloc.o)
                                 0x53 (size before relaxing)
 *fill*         0xf805546f        0x1 
 .rodata._ZTSN3kmg5solid10MemManagerImEE
                0xf8055470       0x1c C:/ProgramData/KMC/SOLID/SDK/2.0/solid-os/core/lib/armv7aLaiv/GR_\libsolid_cs.a(solid_mem.o)
                0xf8055470                _ZTSN3kmg5solid10MemManagerImEE
 .rodata._ZTIN3kmg5solid10MemManagerImEE
                0xf805548c        0x8 C:/ProgramData/KMC/SOLID/SDK/2.0/solid-os/core/lib/armv7aLaiv/GR_\libsolid_cs.a(solid_mem.o)
                0xf805548c                _ZTIN3kmg5solid10MemManagerImEE
 .rodata._ZTSN3kmg5solid12StackManagerImEE
                0xf8055494       0x1e C:/ProgramData/KMC/SOLID/SDK/2.0/solid-os/core/lib/armv7aLaiv/GR_\libsolid_cs.a(solid_mem.o)
                0xf8055494                _ZTSN3kmg5solid12StackManagerImEE
 *fill*         0xf80554b2        0x2 
 .rodata._ZTIN3kmg5solid12StackManagerImEE
                0xf80554b4        0xc C:/ProgramData/KMC/SOLID/SDK/2.0/solid-os/core/lib/armv7aLaiv/GR_\libsolid_cs.a(solid_mem.o)
                0xf80554b4                _ZTIN3kmg5solid12StackManagerImEE
 .rodata._ZTVN3kmg5solid10MemManagerImEE
                0xf80554c0       0x10 C:/ProgramData/KMC/SOLID/SDK/2.0/solid-os/core/lib/armv7aLaiv/GR_\libsolid_cs.a(solid_mem.o)
                0xf80554c0                _ZTVN3kmg5solid10MemManagerImEE
 .rodata._ZTVN3kmg5solid12StackManagerImEE
                0xf80554d0       0x10 C:/ProgramData/KMC/SOLID/SDK/2.0/solid-os/core/lib/armv7aLaiv/GR_\libsolid_cs.a(solid_mem.o)
                0xf80554d0                _ZTVN3kmg5solid12StackManagerImEE
 .rodata.str1.4
                0xf80554e0       0x4e C:/ProgramData/KMC/SOLID/SDK/2.0/solid-os/core/lib/armv7aLaiv/GR_\libsolid_cs.a(solid_mem.o)
                                 0x60 (size before relaxing)
 *fill*         0xf805552e        0x2 
 .rodata.str1.4
                0xf8055530        0xa C:/ProgramData/KMC/SOLID/SDK/2.0/solid-os/core/lib/armv7aLaiv/GR_\libsolid_cs.a(solid_mem_cache.o)
 *fill*         0xf805553a        0x2 
 .rodata.str1.4
                0xf805553c       0x52 C:/ProgramData/KMC/SOLID/SDK/2.0/solid-os/core/lib/armv7aLaiv/GR_\libsolid_cs.a(dlmalloc.o)
 *fill*         0xf805558e        0x2 
 .rodata.str1.4
                0xf8055590       0x35 C:/Users/admin/Documents/SOLID-IDE/Projects/cpptest/Release/exeGCC_SOLID/\libnet.a(sys_arch.o)
 *fill*         0xf80555c5        0x3 
 .rodata        0xf80555c8        0x8 C:/Users/admin/Documents/SOLID-IDE/Projects/cpptest/Release/exeGCC_SOLID/\libnet.a(ip4_addr.o)
                0xf80555c8                ip_addr_broadcast
                0xf80555cc                ip_addr_any
 .rodata        0xf80555d0      0x150 C:/Users/admin/Documents/SOLID-IDE/Projects/cpptest/Release/exeGCC_SOLID/\libnet.a(memp.o)
                0xf80555d0                memp_UDP_PCB
                0xf80555e4                memp_pools
                0xf805561c                memp_PBUF_POOL
                0xf8055630                memp_PBUF
                0xf8055644                memp_NETDB
                0xf8055658                memp_SYS_TIMEOUT
                0xf805566c                memp_TCPIP_MSG_INPKT
                0xf8055680                memp_TCPIP_MSG_API
                0xf8055694                memp_NETCONN
                0xf80556a8                memp_NETBUF
                0xf80556bc                memp_FRAG_PBUF
                0xf80556d0                memp_REASSDATA
                0xf80556e4                memp_TCP_SEG
                0xf80556f8                memp_TCP_PCB_LISTEN
                0xf805570c                memp_TCP_PCB
 .rodata.str1.4
                0xf8055720       0xa0 C:/Users/admin/Documents/SOLID-IDE/Projects/cpptest/Release/exeGCC_SOLID/\libnet.a(memp.o)
 .rodata.str1.4
                0xf80557c0        0x4 C:/Users/admin/Documents/SOLID-IDE/Projects/cpptest/Release/exeGCC_SOLID/\libnet.a(stats.o)
 .rodata        0xf80557c4       0x54 C:/Users/admin/Documents/SOLID-IDE/Projects/cpptest/Release/exeGCC_SOLID/\libnet.a(tcp.o)
                0xf80557c4                tcp_pcb_lists
 .rodata.str1.4
                0xf8055818       0x6e C:/Users/admin/Documents/SOLID-IDE/Projects/cpptest/Release/exeGCC_SOLID/\libnet.a(tcp.o)
                                 0x76 (size before relaxing)
 *fill*         0xf8055886        0x2 
 .rodata        0xf8055888       0x30 C:/Users/admin/Documents/SOLID-IDE/Projects/cpptest/Release/exeGCC_SOLID/\libnet.a(timeouts.o)
                0xf8055888                lwip_cyclic_timers
 .rodata        0xf80558b8        0xe C:/Users/admin/Documents/SOLID-IDE/Projects/cpptest/Release/exeGCC_SOLID/\libnet.a(ethernet.o)
                0xf80558b8                ethbroadcast
                0xf80558c0                ethzero
 *fill*         0xf80558c6        0x2 
 .rodata        0xf80558c8       0x29 C:/Users/admin/Documents/SOLID-IDE/Projects/cpptest/Release/exeGCC_SOLID/\libnet.a(solid_net_if.o)
 *fill*         0xf80558f1        0x3 
 .rodata.str1.4
                0xf80558f4       0x7a C:/Users/admin/Documents/SOLID-IDE/Projects/cpptest/Release/exeGCC_SOLID/\libnet.a(solid_net_if.o)
 *fill*         0xf805596e        0x2 
 .rodata        0xf8055970      0x2a0 C:/Users/admin/Documents/SOLID-IDE/Projects/cpptest/Release/exeGCC_SOLID/\libnet.a(solid_net_registerapi.o)
 .rodata.str1.4
                0xf8055c10      0x4d1 C:/Users/admin/Documents/SOLID-IDE/Projects/cpptest/Release/exeGCC_SOLID/\libnet.a(solid_net_registerapi.o)
 *fill*         0xf80560e1        0x3 
 .rodata        0xf80560e4       0x18 C:/Users/admin/Documents/SOLID-IDE/Projects/cpptest/Release/exeGCC_SOLID/\libnet.a(impl_net_stack.o)
                0xf80560e4                impl_pktbuf_ops
 .rodata.str1.4
                0xf80560fc      0x115 C:/Users/admin/Documents/SOLID-IDE/Projects/cpptest/Release/exeGCC_SOLID/\libnet.a(impl_net_stack.o)
                                0x119 (size before relaxing)
 *fill*         0xf8056211        0x3 
 .rodata.str1.4
                0xf8056214       0x48 C:/Users/admin/Documents/SOLID-IDE/Projects/cpptest/Release/exeGCC_SOLID/\libnet.a(def.o)
 .rodata        0xf805625c        0x4 C:/Users/admin/Documents/SOLID-IDE/Projects/cpptest/Release/exeGCC_SOLID/\libnet.a(dns.o)
                0xf805625c                dns_mquery_v4group
 .rodata        0xf8056260        0x4 C:/Users/admin/Documents/SOLID-IDE/Projects/cpptest/Release/exeGCC_SOLID/\libnet.a(dhcp.o)
 .rodata        0xf8056264      0x5dc C:/Users/admin/Documents/SOLID-IDE/Projects/cpptest/Release/exeGCC_SOLID/\libnet.a(impl_net_stack_errno.o)
 .rodata.str1.4
                0xf8056840     0x10be C:/Users/admin/Documents/SOLID-IDE/Projects/cpptest/Release/exeGCC_SOLID/\libnet.a(impl_net_stack_errno.o)
 *fill*         0xf80578fe        0x2 
 .rodata        0xf8057900       0x88 C:/Users/admin/Documents/SOLID-IDE/Projects/cpptest/Release/exeGCC_SOLID/\libnet.a(err.o)
 .rodata.str1.4
                0xf8057988      0x14a C:/Users/admin/Documents/SOLID-IDE/Projects/cpptest/Release/exeGCC_SOLID/\libnet.a(err.o)
 *fill*         0xf8057ad2        0x2 
 .rodata.str1.4
                0xf8057ad4       0xb3 C:/ProgramData/KMC/SOLID/SDK/2.0/solid-os/rtos/toppers_asp3/lib/armv7aLaiv/GR__\libkernel.a(dataqueue.o)
 *fill*         0xf8057b87        0x1 
 .rodata.str1.4
                0xf8057b88       0x57 C:/ProgramData/KMC/SOLID/SDK/2.0/solid-os/rtos/toppers_asp3/lib/armv7aLaiv/GR__\libkernel.a(interrupt.o)
 .rodata.str1.4
                0xf8057bdf       0x47 C:/ProgramData/KMC/SOLID/SDK/2.0/solid-os/rtos/toppers_asp3/lib/armv7aLaiv/GR__\libkernel.a(semaphore.o)
 *fill*         0xf8057bdf        0x1 
 .rodata.str1.4
                0xf8057be0       0x2b C:/ProgramData/KMC/SOLID/SDK/2.0/solid-os/rtos/toppers_asp3/lib/armv7aLaiv/GR__\libkernel.a(startup.o)
                                 0x2e (size before relaxing)
 *fill*         0xf8057c0b        0x1 
 .rodata.str1.4
                0xf8057c0c       0x44 C:/ProgramData/KMC/SOLID/SDK/2.0/solid-os/rtos/toppers_asp3/lib/armv7aLaiv/GR__\libkernel.a(task.o)
                                 0x8c (size before relaxing)
 .rodata.str1.4
                0xf8057c50       0x47 C:/ProgramData/KMC/SOLID/SDK/2.0/solid-os/rtos/toppers_asp3/lib/armv7aLaiv/GR__\libkernel.a(task_manage.o)
 .rodata.str1.4
                0xf8057c50       0x40 C:/ProgramData/KMC/SOLID/SDK/2.0/solid-os/rtos/toppers_asp3/lib/armv7aLaiv/GR__\libkernel.a(time_event.o)
 .rodata.str1.4
                0xf8057c90       0x81 C:/ProgramData/KMC/SOLID/SDK/2.0/solid-os/rtos/toppers_asp3/lib/armv7aLaiv/GR__\libkernel.a(wait.o)
                                 0xcb (size before relaxing)
 *fill*         0xf8057d11        0x3 
 .rodata        0xf8057d14      0x310 C:/ProgramData/KMC/SOLID/SDK/2.0/solid-os/rtos/toppers_asp3/lib/armv7aLaiv/GR__\libkernel.a(solid_rtos_registerapi.o)
 .rodata.str1.4
                0xf8058024      0x37b C:/ProgramData/KMC/SOLID/SDK/2.0/solid-os/rtos/toppers_asp3/lib/armv7aLaiv/GR__\libkernel.a(solid_rtos_registerapi.o)
 *fill*         0xf805839f        0x1 
 .rodata        0xf80583a0        0x4 C:/ProgramData/KMC/SOLID/SDK/2.0/solid-os/rtos/toppers_asp3/lib/armv7aLaiv/GR__\libkernel.a(kmc_evttracker_rtos.o)
                0xf80583a0                __kmc_eventlog_tstat_mask
 .rodata        0xf80583a4        0xc C:/ProgramData/KMC/SOLID/SDK/2.0/solid-os/rtos/toppers_asp3/lib/armv7aLaiv/GR__\libkernel.a(kernel_cfg_intl.o)
                0xf80583a4                _kernel_istkpt
                0xf80583a8                _kernel_istk
                0xf80583ac                _kernel_istksz
 .rodata        0xf80583b0       0x3c C:/ProgramData/KMC/SOLID/SDK/2.0/solid-os/rtos/toppers_asp3/lib/armv7aLaiv/GR__\libkernel.a(core_kernel_impl.o)
 .rodata.str1.4
                0xf80583ec      0x229 C:/ProgramData/KMC/SOLID/SDK/2.0/solid-os/rtos/toppers_asp3/lib/armv7aLaiv/GR__\libkernel.a(core_kernel_impl.o)
 .rodata.str1.4
                0xf8058615       0x47 C:/ProgramData/KMC/SOLID/SDK/2.0/solid-os/rtos/toppers_asp3/lib/armv7aLaiv/GR__\libkernel.a(eventflag.o)
 *fill*         0xf8058615        0x3 
 .rodata.str1.4
                0xf8058618       0x61 C:/ProgramData/KMC/SOLID/SDK/2.0/solid-os/rtos/toppers_asp3/lib/armv7aLaiv/GR__\libkernel.a(mempfix.o)
                                 0xab (size before relaxing)
 *fill*         0xf8058679        0x3 
 .rodata        0xf805867c       0x31 C:/ProgramData/KMC/SOLID/SDK/2.0/solid-os/rtos/toppers_asp3/lib/armv7aLaiv/GR__\libkernel.a(log_output.o)
 *fill*         0xf80586ad        0x3 
 .rodata.str1.4
                0xf80586b0       0x36 C:/ProgramData/KMC/SOLID/SDK/2.0/solid-os/rtos/toppers_asp3/lib/armv7aLaiv/GR__\libkernel.a(log_output.o)
 *fill*         0xf80586e6        0x2 
 .rodata.str1.4
                0xf80586e8       0x43 C:/ProgramData/KMC/SOLID/SDK/2.0/solid-os/rtos/toppers_asp3/lib/armv7aLaiv/GR__\libkernel.a(mutex.o)
                                 0xcf (size before relaxing)
 *fill*         0xf805872b        0x1 
 .rodata.str1.4
                0xf805872c       0x4b C:/ProgramData/KMC/SOLID/SDK/2.0/solid-os/rtos/toppers_asp3/lib/armv7aLaiv/GR__\libkernel.a(pridataq.o)
                                 0xaf (size before relaxing)
 .rodata.str1.4
                0xf8058777       0x44 C:/ProgramData/KMC/SOLID/SDK/2.0/solid-os/rtos/toppers_asp3/lib/armv7aLaiv/GR__\libkernel.a(task_sync.o)
 *fill*         0xf8058777        0x1 
 .rodata        0xf8058778       0x28 C:/Users/admin/Documents/SOLID-IDE/Projects/cpptest/Release/exeGCC_SOLID/\libbsp.a(impl_dmac.o)
 .rodata.str1.4
                0xf80587a0       0x1d C:/Users/admin/Documents/SOLID-IDE/Projects/cpptest/Release/exeGCC_SOLID/\libbsp.a(impl_dmac.o)
 *fill*         0xf80587bd        0x3 
 .rodata.str1.4
                0xf80587c0      0x1d8 C:/Users/admin/Documents/SOLID-IDE/Projects/cpptest/Release/exeGCC_SOLID/\libbsp.a(impl_iores.o)
                                0x200 (size before relaxing)
 .rodata.str1.4
                0xf8058998        0x9 C:/Users/admin/Documents/SOLID-IDE/Projects/cpptest/Release/exeGCC_SOLID/\libbsp.a(impl_log.o)
 .rodata.str1.4
                0xf8058998       0x15 C:/Users/admin/Documents/SOLID-IDE/Projects/cpptest/Release/exeGCC_SOLID/\libbsp.a(impl_net_dev_ether.o)
 .rodata.str1.4
                0xf8058998       0x49 C:/Users/admin/Documents/SOLID-IDE/Projects/cpptest/Release/exeGCC_SOLID/\libbsp.a(impl_net_dev_get_macaddr.o)
                                 0x51 (size before relaxing)
 *fill*         0xf80589e1        0x3 
 .rodata        0xf80589e4       0x14 C:/Users/admin/Documents/SOLID-IDE/Projects/cpptest/Release/exeGCC_SOLID/\libbsp.a(impl_net_dev_getconfig.o)
                0xf80589e4                _network_config
 .rodata.str1.4
                0xf80589f8       0x2c C:/Users/admin/Documents/SOLID-IDE/Projects/cpptest/Release/exeGCC_SOLID/\libbsp.a(impl_net_dev_getconfig.o)
 .rodata        0xf8058a24       0x10 C:/Users/admin/Documents/SOLID-IDE/Projects/cpptest/Release/exeGCC_SOLID/\libbsp.a(impl_rtc.o)
 .rodata.str1.4
                0xf8058a34       0x16 C:/Users/admin/Documents/SOLID-IDE/Projects/cpptest/Release/exeGCC_SOLID/\libbsp.a(impl_timer.o)
 .rodata.str1.4
                0xf8058a34       0x64 C:/Users/admin/Documents/SOLID-IDE/Projects/cpptest/Release/exeGCC_SOLID/\libbsp.a(bsp_globals.o)
 .rodata._ZTIN10__cxxabiv117__class_type_infoE
                0xf8058a34        0xc C:/GCC4/ARM/s002/lib/armv7aLaiv\libstdc++.a(class_type_info.o)
                0xf8058a34                _ZTIN10__cxxabiv117__class_type_infoE
 .rodata._ZTSN10__cxxabiv117__class_type_infoE
                0xf8058a40       0x22 C:/GCC4/ARM/s002/lib/armv7aLaiv\libstdc++.a(class_type_info.o)
                0xf8058a40                _ZTSN10__cxxabiv117__class_type_infoE
 *fill*         0xf8058a62        0x2 
 .rodata._ZTVN10__cxxabiv117__class_type_infoE
                0xf8058a64       0x2c C:/GCC4/ARM/s002/lib/armv7aLaiv\libstdc++.a(class_type_info.o)
                0xf8058a64                _ZTVN10__cxxabiv117__class_type_infoE
 .rodata._ZTIN10__cxxabiv120__si_class_type_infoE
                0xf8058a90        0xc C:/GCC4/ARM/s002/lib/armv7aLaiv\libstdc++.a(si_class_type_info.o)
                0xf8058a90                _ZTIN10__cxxabiv120__si_class_type_infoE
 .rodata._ZTSN10__cxxabiv120__si_class_type_infoE
                0xf8058a9c       0x25 C:/GCC4/ARM/s002/lib/armv7aLaiv\libstdc++.a(si_class_type_info.o)
                0xf8058a9c                _ZTSN10__cxxabiv120__si_class_type_infoE
 *fill*         0xf8058ac1        0x3 
 .rodata._ZTVN10__cxxabiv120__si_class_type_infoE
                0xf8058ac4       0x2c C:/GCC4/ARM/s002/lib/armv7aLaiv\libstdc++.a(si_class_type_info.o)
                0xf8058ac4                _ZTVN10__cxxabiv120__si_class_type_infoE
 .rodata._ZTISt9type_info
                0xf8058af0        0x8 C:/GCC4/ARM/s002/lib/armv7aLaiv\libstdc++.a(tinfo.o)
                0xf8058af0                _ZTISt9type_info
 .rodata._ZTSSt9type_info
                0xf8058af8        0xd C:/GCC4/ARM/s002/lib/armv7aLaiv\libstdc++.a(tinfo.o)
                0xf8058af8                _ZTSSt9type_info
 *fill*         0xf8058b05        0x3 
 .rodata._ZTVSt9type_info
                0xf8058b08       0x20 C:/GCC4/ARM/s002/lib/armv7aLaiv\libstdc++.a(tinfo.o)
                0xf8058b08                _ZTVSt9type_info
 .rodata.abort.str1.4
                0xf8058b28       0x21 C:/GCC4/ARM/s002/lib/armv7aLaiv/libc.a(abort.o)
 *fill*         0xf8058b49        0x3 
 .rodata._C_cache
                0xf8058b4c       0x44 C:/GCC4/ARM/s002/lib/armv7aLaiv/libc.a(global_locale.o)
                0xf8058b4c                _C_cache
 .rodata._DefaultMessagesLocale
                0xf8058b90       0x10 C:/GCC4/ARM/s002/lib/armv7aLaiv/libc.a(global_locale.o)
 .rodata._DefaultMonetaryLocale
                0xf8058ba0       0x2c C:/GCC4/ARM/s002/lib/armv7aLaiv/libc.a(global_locale.o)
 .rodata._DefaultNumericLocale
                0xf8058bcc        0xc C:/GCC4/ARM/s002/lib/armv7aLaiv/libc.a(global_locale.o)
 .rodata._DefaultTimeLocale
                0xf8058bd8       0xb0 C:/GCC4/ARM/s002/lib/armv7aLaiv/libc.a(global_locale.o)
 .rodata._lc_C_locale
                0xf8058c88      0x104 C:/GCC4/ARM/s002/lib/armv7aLaiv/libc.a(global_locale.o)
                0xf8058c88                _lc_C_locale
 .rodata._lc_C_locale_name
                0xf8058d8c        0x2 C:/GCC4/ARM/s002/lib/armv7aLaiv/libc.a(global_locale.o)
 *fill*         0xf8058d8e        0x2 
 .rodata.str1.4
                0xf8058d90      0x14f C:/GCC4/ARM/s002/lib/armv7aLaiv/libc.a(global_locale.o)
                                0x15b (size before relaxing)
 *fill*         0xf8058edf        0x1 
 .rodata._DefaultRuneLocale
                0xf8058ee0      0xcac C:/GCC4/ARM/s002/lib/armv7aLaiv/libc.a(runetable.o)
                0xf8058ee0                _DefaultRuneLocale
 .rodata.str1.4
                0xf8059b8c       0x7b C:/GCC4/ARM/s002/lib/armv7aLaiv/libc.a(runetable.o)
 *fill*         0xf8059c07        0x1 
 .rodata.__vfprintf_unlocked_l.str1.4
                0xf8059c08       0x17 C:/GCC4/ARM/s002/lib/armv7aLaiv/libc.a(vfprintf.o)
                                 0x1b (size before relaxing)
 *fill*         0xf8059c1f        0x1 
 .rodata.xdigs_lower.7953
                0xf8059c20       0x10 C:/GCC4/ARM/s002/lib/armv7aLaiv/libc.a(vfprintf.o)
 .rodata.xdigs_upper.7954
                0xf8059c30       0x10 C:/GCC4/ARM/s002/lib/armv7aLaiv/libc.a(vfprintf.o)
 .rodata._vlink_read.str1.4
                0xf8059c40        0x2 C:/GCC4/ARM/s002/lib/armv7aLaiv/libc.a(osemu.o)
 .rodata._sjis_ctype
                0xf8059c40      0x100 C:/GCC4/ARM/s002/lib/armv7aLaiv/libc.a(u2dname.o)
 .rodata._unix2dosname.str1.4
                0xf8059d40       0x1c C:/GCC4/ARM/s002/lib/armv7aLaiv/libc.a(u2dname.o)
 .rodata.__envvarnamelen.str1.4
                0xf8059d5c        0x2 C:/GCC4/ARM/s002/lib/armv7aLaiv/libc.a(_env.o)
 *fill*         0xf8059d5e        0x2 
 .rodata.env_tree_ops
                0xf8059d60       0x10 C:/GCC4/ARM/s002/lib/armv7aLaiv/libc.a(_env.o)
 .rodata.localtime_r.str1.4
                0xf8059d70        0x4 C:/GCC4/ARM/s002/lib/armv7aLaiv/libc.a(localtime.o)
 .rodata.mon2day
                0xf8059d74       0x30 C:/GCC4/ARM/s002/lib/armv7aLaiv/libc.a(localtime.o)
 .rodata.idx.4385
                0xf8059da4        0x8 C:/GCC4/ARM/s002/lib/armv7aLaiv/libc.a(strcspn.o)
 .rodata._C_ctype_tab_
                0xf8059dac      0x202 C:/GCC4/ARM/s002/lib/armv7aLaiv/libc.a(ctype_.o)
                0xf8059dac                _C_ctype_tab_
 *fill*         0xf8059fae        0x2 
 .rodata._C_toupper_tab_
                0xf8059fb0      0x202 C:/GCC4/ARM/s002/lib/armv7aLaiv/libc.a(toupper_.o)
                0xf8059fb0                _C_toupper_tab_
 *fill*         0xf805a1b2        0x2 
 .rodata._C_tolower_tab_
                0xf805a1b4      0x202 C:/GCC4/ARM/s002/lib/armv7aLaiv/libc.a(tolower_.o)
                0xf805a1b4                _C_tolower_tab_
 *fill*         0xf805a3b6        0x2 
 .rodata._citrus_ctype_open.str1.4
                0xf805a3b8       0x28 C:/GCC4/ARM/s002/lib/armv7aLaiv/libc.a(citrus_ctype.o)
                                 0x2c (size before relaxing)
 .rodata._UTF8_range
                0xf805a3e0       0x20 C:/GCC4/ARM/s002/lib/armv7aLaiv/libc.a(citrus_utf8.o)
 .rodata.__dtoa.str1.4
                0xf805a400       0x10 C:/GCC4/ARM/s002/lib/armv7aLaiv/libc.a(dtoa.o)
                                 0x12 (size before relaxing)
 .rodata.__hdtoa.str1.4
                0xf805a410       0x14 C:/GCC4/ARM/s002/lib/armv7aLaiv/libc.a(hdtoa.o)
 .rodata.__bigtens_D2A
                0xf805a410       0x28 C:/GCC4/ARM/s002/lib/armv7aLaiv/libc.a(misc.o)
                0xf805a410                __bigtens_D2A
 .rodata.__tens_D2A
                0xf805a438       0xb8 C:/GCC4/ARM/s002/lib/armv7aLaiv/libc.a(misc.o)
                0xf805a438                __tens_D2A
 .rodata.__tinytens_D2A
                0xf805a4f0       0x28 C:/GCC4/ARM/s002/lib/armv7aLaiv/libc.a(misc.o)
                0xf805a4f0                __tinytens_D2A
 .rodata.p05.6743
                0xf805a518        0xc C:/GCC4/ARM/s002/lib/armv7aLaiv/libc.a(misc.o)
 .rodata.countLeadingZerosHigh.4424
                0xf805a524      0x400 C:/GCC4/ARM/s002/lib/armv7aLaiv/libc.a(softfloat.o)
 *(.gnu.linkonce.r.*)
                0xf805a924                . = ALIGN (0x4)
                0xf805a924                _ctor_list = .
 *(SORT(.init_array.*))
 *(.init_array)
 .init_array    0xf805a924        0x4 C:/ProgramData/KMC/SOLID/SDK/2.0/solid-os/core/lib/armv7aLaiv/GR_\libsolid_cs.a(solid_dmac.o)
 .init_array    0xf805a928        0x4 C:/ProgramData/KMC/SOLID/SDK/2.0/solid-os/core/lib/armv7aLaiv/GR_\libsolid_cs.a(solid_fs_base.o)
 .init_array    0xf805a92c        0x4 C:/ProgramData/KMC/SOLID/SDK/2.0/solid-os/core/lib/armv7aLaiv/GR_\libsolid_cs.a(solid_intc.o)
 .init_array    0xf805a930        0x4 C:/ProgramData/KMC/SOLID/SDK/2.0/solid-os/core/lib/armv7aLaiv/GR_\libsolid_cs.a(solid_iores.o)
 .init_array    0xf805a934        0x4 C:/ProgramData/KMC/SOLID/SDK/2.0/solid-os/core/lib/armv7aLaiv/GR_\libsolid_cs.a(solid_loader.o)
 .init_array    0xf805a938        0x4 C:/ProgramData/KMC/SOLID/SDK/2.0/solid-os/core/lib/armv7aLaiv/GR_\libsolid_cs.a(solid_mem.o)
 .init_array    0xf805a93c        0x4 C:/ProgramData/KMC/SOLID/SDK/2.0/solid-os/core/lib/armv7aLaiv/GR_\libsolid_cs.a(solid_timer.o)
                0xf805a940        0x4 LONG 0x0
                0xf805a944                _dtor_list = .
 *(.fini_array)
 *(SORT(.fini_array.*))
                0xf805a944        0x4 LONG 0x0

.ARM.extab      0xf805a948        0x0
 *(.ARM.extab* .gnu.linkonce.armextab.*)
 .ARM.extab.text._ZNK10__cxxabiv117__class_type_info11__do_upcastEPKS0_PPv
                0xf805a948        0x0 C:/GCC4/ARM/s002/lib/armv7aLaiv\libstdc++.a(class_type_info.o)
 .ARM.extab.text._ZNK10__cxxabiv117__class_type_info20__do_find_public_srcEiPKvPKS0_S2_
                0xf805a948        0x0 C:/GCC4/ARM/s002/lib/armv7aLaiv\libstdc++.a(class_type_info.o)
 .ARM.extab.text._ZN10__cxxabiv117__class_type_infoD2Ev
                0xf805a948        0x0 C:/GCC4/ARM/s002/lib/armv7aLaiv\libstdc++.a(class_type_info.o)
 .ARM.extab.text._ZN10__cxxabiv117__class_type_infoD0Ev
                0xf805a948        0x0 C:/GCC4/ARM/s002/lib/armv7aLaiv\libstdc++.a(class_type_info.o)
 .ARM.extab.text._ZNK10__cxxabiv117__class_type_info11__do_upcastEPKS0_PKvRNS0_15__upcast_resultE
                0xf805a948        0x0 C:/GCC4/ARM/s002/lib/armv7aLaiv\libstdc++.a(class_type_info.o)
 .ARM.extab.text._ZNK10__cxxabiv117__class_type_info10__do_catchEPKSt9type_infoPPvj
                0xf805a948        0x0 C:/GCC4/ARM/s002/lib/armv7aLaiv\libstdc++.a(class_type_info.o)
 .ARM.extab.text._ZNK10__cxxabiv117__class_type_info12__do_dyncastEiNS0_10__sub_kindEPKS0_PKvS3_S5_RNS0_16__dyncast_resultE
                0xf805a948        0x0 C:/GCC4/ARM/s002/lib/armv7aLaiv\libstdc++.a(class_type_info.o)
 .ARM.extab.text.__aeabi_atexit
                0xf805a948        0x0 C:/GCC4/ARM/s002/lib/armv7aLaiv\libstdc++.a(atexit_arm.o)
 .ARM.extab.text._ZdlPvj
                0xf805a948        0x0 C:/GCC4/ARM/s002/lib/armv7aLaiv\libstdc++.a(del_ops.o)
 .ARM.extab.text._ZN10__cxxabiv120__si_class_type_infoD2Ev
                0xf805a948        0x0 C:/GCC4/ARM/s002/lib/armv7aLaiv\libstdc++.a(si_class_type_info.o)
 .ARM.extab.text._ZN10__cxxabiv120__si_class_type_infoD0Ev
                0xf805a948        0x0 C:/GCC4/ARM/s002/lib/armv7aLaiv\libstdc++.a(si_class_type_info.o)
 .ARM.extab.text._ZNK10__cxxabiv120__si_class_type_info20__do_find_public_srcEiPKvPKNS_17__class_type_infoES2_
                0xf805a948        0x0 C:/GCC4/ARM/s002/lib/armv7aLaiv\libstdc++.a(si_class_type_info.o)
 .ARM.extab.text._ZNK10__cxxabiv120__si_class_type_info12__do_dyncastEiNS_17__class_type_info10__sub_kindEPKS1_PKvS4_S6_RNS1_16__dyncast_resultE
                0xf805a948        0x0 C:/GCC4/ARM/s002/lib/armv7aLaiv\libstdc++.a(si_class_type_info.o)
 .ARM.extab.text._ZNK10__cxxabiv120__si_class_type_info11__do_upcastEPKNS_17__class_type_infoEPKvRNS1_15__upcast_resultE
                0xf805a948        0x0 C:/GCC4/ARM/s002/lib/armv7aLaiv\libstdc++.a(si_class_type_info.o)
 .ARM.extab.text._ZdlPv
                0xf805a948        0x0 C:/GCC4/ARM/s002/lib/armv7aLaiv\libstdc++.a(del_op.o)
 .ARM.extab.text._ZNSt9type_infoD2Ev
                0xf805a948        0x0 C:/GCC4/ARM/s002/lib/armv7aLaiv\libstdc++.a(tinfo.o)
 .ARM.extab.text._ZNKSt9type_info15__is_function_pEv
                0xf805a948        0x0 C:/GCC4/ARM/s002/lib/armv7aLaiv\libstdc++.a(tinfo.o)
 .ARM.extab.text._ZNKSt9type_info11__do_upcastEPKN10__cxxabiv117__class_type_infoEPPv
                0xf805a948        0x0 C:/GCC4/ARM/s002/lib/armv7aLaiv\libstdc++.a(tinfo.o)
 .ARM.extab.text._ZNSt9type_infoD0Ev
                0xf805a948        0x0 C:/GCC4/ARM/s002/lib/armv7aLaiv\libstdc++.a(tinfo.o)
 .ARM.extab.text._ZNKSt9type_infoeqERKS_
                0xf805a948        0x0 C:/GCC4/ARM/s002/lib/armv7aLaiv\libstdc++.a(tinfo.o)
 .ARM.extab.text._ZNKSt9type_info10__do_catchEPKS_PPvj
                0xf805a948        0x0 C:/GCC4/ARM/s002/lib/armv7aLaiv\libstdc++.a(tinfo.o)
 .ARM.extab.text.__udivmoddi4
                0xf805a948        0x0 C:/GCC4/ARM/s002/lib/armv7aLaiv/libgcc.a(_udivmoddi4.o)
 .ARM.extab.text.selfrel_offset31
                0xf805a948        0x0 C:/GCC4/ARM/s002/lib/armv7aLaiv/libgcc.a(unwind-arm.o)
 .ARM.extab.text.search_EIT_table
                0xf805a948        0x0 C:/GCC4/ARM/s002/lib/armv7aLaiv/libgcc.a(unwind-arm.o)
 .ARM.extab.text.__gnu_unwind_get_pr_addr
                0xf805a948        0x0 C:/GCC4/ARM/s002/lib/armv7aLaiv/libgcc.a(unwind-arm.o)
 .ARM.extab.text.get_eit_entry
                0xf805a948        0x0 C:/GCC4/ARM/s002/lib/armv7aLaiv/libgcc.a(unwind-arm.o)
 .ARM.extab.text.restore_non_core_regs
                0xf805a948        0x0 C:/GCC4/ARM/s002/lib/armv7aLaiv/libgcc.a(unwind-arm.o)
 .ARM.extab.text._Unwind_decode_typeinfo_ptr.isra.0
                0xf805a948        0x0 C:/GCC4/ARM/s002/lib/armv7aLaiv/libgcc.a(unwind-arm.o)
 .ARM.extab.text.__gnu_unwind_24bit.isra.1
                0xf805a948        0x0 C:/GCC4/ARM/s002/lib/armv7aLaiv/libgcc.a(unwind-arm.o)
 .ARM.extab.text._Unwind_DebugHook
                0xf805a948        0x0 C:/GCC4/ARM/s002/lib/armv7aLaiv/libgcc.a(unwind-arm.o)
 .ARM.extab.text.unwind_phase2
                0xf805a948        0x0 C:/GCC4/ARM/s002/lib/armv7aLaiv/libgcc.a(unwind-arm.o)
 .ARM.extab.text.unwind_phase2_forced
                0xf805a948        0x0 C:/GCC4/ARM/s002/lib/armv7aLaiv/libgcc.a(unwind-arm.o)
 .ARM.extab.text._Unwind_GetCFA
                0xf805a948        0x0 C:/GCC4/ARM/s002/lib/armv7aLaiv/libgcc.a(unwind-arm.o)
 .ARM.extab.text.__gnu_Unwind_RaiseException
                0xf805a948        0x0 C:/GCC4/ARM/s002/lib/armv7aLaiv/libgcc.a(unwind-arm.o)
 .ARM.extab.text.__gnu_Unwind_ForcedUnwind
                0xf805a948        0x0 C:/GCC4/ARM/s002/lib/armv7aLaiv/libgcc.a(unwind-arm.o)
 .ARM.extab.text.__gnu_Unwind_Resume
                0xf805a948        0x0 C:/GCC4/ARM/s002/lib/armv7aLaiv/libgcc.a(unwind-arm.o)
 .ARM.extab.text.__gnu_Unwind_Resume_or_Rethrow
                0xf805a948        0x0 C:/GCC4/ARM/s002/lib/armv7aLaiv/libgcc.a(unwind-arm.o)
 .ARM.extab.text._Unwind_Complete
                0xf805a948        0x0 C:/GCC4/ARM/s002/lib/armv7aLaiv/libgcc.a(unwind-arm.o)
 .ARM.extab.text._Unwind_DeleteException
                0xf805a948        0x0 C:/GCC4/ARM/s002/lib/armv7aLaiv/libgcc.a(unwind-arm.o)
 .ARM.extab.text._Unwind_VRS_Get
                0xf805a948        0x0 C:/GCC4/ARM/s002/lib/armv7aLaiv/libgcc.a(unwind-arm.o)
 .ARM.extab.text._Unwind_GetGR
                0xf805a948        0x0 C:/GCC4/ARM/s002/lib/armv7aLaiv/libgcc.a(unwind-arm.o)
 .ARM.extab.text._Unwind_VRS_Set
                0xf805a948        0x0 C:/GCC4/ARM/s002/lib/armv7aLaiv/libgcc.a(unwind-arm.o)
 .ARM.extab.text._Unwind_SetGR
                0xf805a948        0x0 C:/GCC4/ARM/s002/lib/armv7aLaiv/libgcc.a(unwind-arm.o)
 .ARM.extab.text.__gnu_Unwind_Backtrace
                0xf805a948        0x0 C:/GCC4/ARM/s002/lib/armv7aLaiv/libgcc.a(unwind-arm.o)
 .ARM.extab.text.__gnu_unwind_pr_common
                0xf805a948        0x0 C:/GCC4/ARM/s002/lib/armv7aLaiv/libgcc.a(unwind-arm.o)
 .ARM.extab.text.__aeabi_unwind_cpp_pr0
                0xf805a948        0x0 C:/GCC4/ARM/s002/lib/armv7aLaiv/libgcc.a(unwind-arm.o)
 .ARM.extab.text.__aeabi_unwind_cpp_pr1
                0xf805a948        0x0 C:/GCC4/ARM/s002/lib/armv7aLaiv/libgcc.a(unwind-arm.o)
 .ARM.extab.text.__aeabi_unwind_cpp_pr2
                0xf805a948        0x0 C:/GCC4/ARM/s002/lib/armv7aLaiv/libgcc.a(unwind-arm.o)
 .ARM.extab.text._Unwind_VRS_Pop
                0xf805a948        0x0 C:/GCC4/ARM/s002/lib/armv7aLaiv/libgcc.a(unwind-arm.o)
 .ARM.extab.text.next_unwind_byte
                0xf805a948        0x0 C:/GCC4/ARM/s002/lib/armv7aLaiv/libgcc.a(pr-support.o)
 .ARM.extab.text._Unwind_GetGR.constprop.0
                0xf805a948        0x0 C:/GCC4/ARM/s002/lib/armv7aLaiv/libgcc.a(pr-support.o)
 .ARM.extab.text.unwind_UCB_from_context
                0xf805a948        0x0 C:/GCC4/ARM/s002/lib/armv7aLaiv/libgcc.a(pr-support.o)
 .ARM.extab.text.__gnu_unwind_execute
                0xf805a948        0x0 C:/GCC4/ARM/s002/lib/armv7aLaiv/libgcc.a(pr-support.o)
 .ARM.extab.text.__gnu_unwind_frame
                0xf805a948        0x0 C:/GCC4/ARM/s002/lib/armv7aLaiv/libgcc.a(pr-support.o)
 .ARM.extab.text._Unwind_GetRegionStart
                0xf805a948        0x0 C:/GCC4/ARM/s002/lib/armv7aLaiv/libgcc.a(pr-support.o)
 .ARM.extab.text._Unwind_GetLanguageSpecificData
                0xf805a948        0x0 C:/GCC4/ARM/s002/lib/armv7aLaiv/libgcc.a(pr-support.o)
 .ARM.extab.text._Unwind_GetTextRelBase
                0xf805a948        0x0 C:/GCC4/ARM/s002/lib/armv7aLaiv/libgcc.a(pr-support.o)
 .ARM.extab.text._Unwind_GetDataRelBase
                0xf805a948        0x0 C:/GCC4/ARM/s002/lib/armv7aLaiv/libgcc.a(pr-support.o)
                0xf805a948                __exidx_start = .

.ARM.exidx      0xf805a948       0xc8
 *(.ARM.exidx* .gnu.linkonce.armexidx.*)
 .ARM.exidx.text._ZNK10__cxxabiv117__class_type_info11__do_upcastEPKS0_PPv
                0xf805a948        0x8 C:/GCC4/ARM/s002/lib/armv7aLaiv\libstdc++.a(class_type_info.o)
 .ARM.exidx.text._ZNK10__cxxabiv117__class_type_info20__do_find_public_srcEiPKvPKS0_S2_
                0xf805a950        0x8 C:/GCC4/ARM/s002/lib/armv7aLaiv\libstdc++.a(class_type_info.o)
 .ARM.exidx.text._ZN10__cxxabiv117__class_type_infoD2Ev
                0xf805a958        0x0 C:/GCC4/ARM/s002/lib/armv7aLaiv\libstdc++.a(class_type_info.o)
                                  0x8 (size before relaxing)
 .ARM.exidx.text._ZN10__cxxabiv117__class_type_infoD0Ev
                0xf805a958        0x0 C:/GCC4/ARM/s002/lib/armv7aLaiv\libstdc++.a(class_type_info.o)
                                  0x8 (size before relaxing)
 .ARM.exidx.text._ZNK10__cxxabiv117__class_type_info11__do_upcastEPKS0_PKvRNS0_15__upcast_resultE
                0xf805a958        0x0 C:/GCC4/ARM/s002/lib/armv7aLaiv\libstdc++.a(class_type_info.o)
                                  0x8 (size before relaxing)
 .ARM.exidx.text._ZNK10__cxxabiv117__class_type_info10__do_catchEPKSt9type_infoPPvj
                0xf805a958        0x0 C:/GCC4/ARM/s002/lib/armv7aLaiv\libstdc++.a(class_type_info.o)
                                  0x8 (size before relaxing)
 .ARM.exidx.text._ZNK10__cxxabiv117__class_type_info12__do_dyncastEiNS0_10__sub_kindEPKS0_PKvS3_S5_RNS0_16__dyncast_resultE
                0xf805a958        0x0 C:/GCC4/ARM/s002/lib/armv7aLaiv\libstdc++.a(class_type_info.o)
                                  0x8 (size before relaxing)
 .ARM.exidx.text.__aeabi_atexit
                0xf805a958        0x0 C:/GCC4/ARM/s002/lib/armv7aLaiv\libstdc++.a(atexit_arm.o)
                                  0x8 (size before relaxing)
 .ARM.exidx.text._ZdlPvj
                0xf805a958        0x0 C:/GCC4/ARM/s002/lib/armv7aLaiv\libstdc++.a(del_ops.o)
                                  0x8 (size before relaxing)
 .ARM.exidx.text._ZN10__cxxabiv120__si_class_type_infoD2Ev
                0xf805a958        0x0 C:/GCC4/ARM/s002/lib/armv7aLaiv\libstdc++.a(si_class_type_info.o)
                                  0x8 (size before relaxing)
 .ARM.exidx.text._ZN10__cxxabiv120__si_class_type_infoD0Ev
                0xf805a958        0x0 C:/GCC4/ARM/s002/lib/armv7aLaiv\libstdc++.a(si_class_type_info.o)
                                  0x8 (size before relaxing)
 .ARM.exidx.text._ZNK10__cxxabiv120__si_class_type_info20__do_find_public_srcEiPKvPKNS_17__class_type_infoES2_
                0xf805a958        0x0 C:/GCC4/ARM/s002/lib/armv7aLaiv\libstdc++.a(si_class_type_info.o)
                                  0x8 (size before relaxing)
 .ARM.exidx.text._ZNK10__cxxabiv120__si_class_type_info12__do_dyncastEiNS_17__class_type_info10__sub_kindEPKS1_PKvS4_S6_RNS1_16__dyncast_resultE
                0xf805a958        0x0 C:/GCC4/ARM/s002/lib/armv7aLaiv\libstdc++.a(si_class_type_info.o)
                                  0x8 (size before relaxing)
 .ARM.exidx.text._ZNK10__cxxabiv120__si_class_type_info11__do_upcastEPKNS_17__class_type_infoEPKvRNS1_15__upcast_resultE
                0xf805a958        0x8 C:/GCC4/ARM/s002/lib/armv7aLaiv\libstdc++.a(si_class_type_info.o)
 .ARM.exidx.text._ZdlPv
                0xf805a960        0x8 C:/GCC4/ARM/s002/lib/armv7aLaiv\libstdc++.a(del_op.o)
 .ARM.exidx.text._ZNSt9type_infoD2Ev
                0xf805a968        0x0 C:/GCC4/ARM/s002/lib/armv7aLaiv\libstdc++.a(tinfo.o)
                                  0x8 (size before relaxing)
 .ARM.exidx.text._ZNKSt9type_info15__is_function_pEv
                0xf805a968        0x0 C:/GCC4/ARM/s002/lib/armv7aLaiv\libstdc++.a(tinfo.o)
                                  0x8 (size before relaxing)
 .ARM.exidx.text._ZNKSt9type_info11__do_upcastEPKN10__cxxabiv117__class_type_infoEPPv
                0xf805a968        0x0 C:/GCC4/ARM/s002/lib/armv7aLaiv\libstdc++.a(tinfo.o)
                                  0x8 (size before relaxing)
 .ARM.exidx.text._ZNSt9type_infoD0Ev
                0xf805a968        0x0 C:/GCC4/ARM/s002/lib/armv7aLaiv\libstdc++.a(tinfo.o)
                                  0x8 (size before relaxing)
 .ARM.exidx.text._ZNKSt9type_infoeqERKS_
                0xf805a968        0x0 C:/GCC4/ARM/s002/lib/armv7aLaiv\libstdc++.a(tinfo.o)
                                  0x8 (size before relaxing)
 .ARM.exidx.text._ZNKSt9type_info10__do_catchEPKS_PPvj
                0xf805a968        0x0 C:/GCC4/ARM/s002/lib/armv7aLaiv\libstdc++.a(tinfo.o)
                                  0x8 (size before relaxing)
 .ARM.exidx.text.__udivmoddi4
                0xf805a968        0x0 C:/GCC4/ARM/s002/lib/armv7aLaiv/libgcc.a(_udivmoddi4.o)
                                  0x8 (size before relaxing)
 .ARM.exidx.text.selfrel_offset31
                0xf805a968        0x0 C:/GCC4/ARM/s002/lib/armv7aLaiv/libgcc.a(unwind-arm.o)
                                  0x8 (size before relaxing)
 .ARM.exidx.text.search_EIT_table
                0xf805a968        0x0 C:/GCC4/ARM/s002/lib/armv7aLaiv/libgcc.a(unwind-arm.o)
                                  0x8 (size before relaxing)
 .ARM.exidx.text.__gnu_unwind_get_pr_addr
                0xf805a968        0x0 C:/GCC4/ARM/s002/lib/armv7aLaiv/libgcc.a(unwind-arm.o)
                                  0x8 (size before relaxing)
 .ARM.exidx.text.get_eit_entry
                0xf805a968        0x8 C:/GCC4/ARM/s002/lib/armv7aLaiv/libgcc.a(unwind-arm.o)
 .ARM.exidx.text.restore_non_core_regs
                0xf805a970        0x8 C:/GCC4/ARM/s002/lib/armv7aLaiv/libgcc.a(unwind-arm.o)
 .ARM.exidx.text._Unwind_decode_typeinfo_ptr.isra.0
                0xf805a978        0x8 C:/GCC4/ARM/s002/lib/armv7aLaiv/libgcc.a(unwind-arm.o)
 .ARM.exidx.text.__gnu_unwind_24bit.isra.1
                0xf805a980        0x0 C:/GCC4/ARM/s002/lib/armv7aLaiv/libgcc.a(unwind-arm.o)
                                  0x8 (size before relaxing)
 .ARM.exidx.text._Unwind_DebugHook
                0xf805a980        0x0 C:/GCC4/ARM/s002/lib/armv7aLaiv/libgcc.a(unwind-arm.o)
                                  0x8 (size before relaxing)
 .ARM.exidx.text.unwind_phase2
                0xf805a980        0x8 C:/GCC4/ARM/s002/lib/armv7aLaiv/libgcc.a(unwind-arm.o)
 .ARM.exidx.text.unwind_phase2_forced
                0xf805a988        0x8 C:/GCC4/ARM/s002/lib/armv7aLaiv/libgcc.a(unwind-arm.o)
 .ARM.exidx.text._Unwind_GetCFA
                0xf805a990        0x8 C:/GCC4/ARM/s002/lib/armv7aLaiv/libgcc.a(unwind-arm.o)
 .ARM.exidx.text.__gnu_Unwind_RaiseException
                0xf805a998        0x8 C:/GCC4/ARM/s002/lib/armv7aLaiv/libgcc.a(unwind-arm.o)
 .ARM.exidx.text.__gnu_Unwind_ForcedUnwind
                0xf805a9a0        0x8 C:/GCC4/ARM/s002/lib/armv7aLaiv/libgcc.a(unwind-arm.o)
 .ARM.exidx.text.__gnu_Unwind_Resume
                0xf805a9a8        0x8 C:/GCC4/ARM/s002/lib/armv7aLaiv/libgcc.a(unwind-arm.o)
 .ARM.exidx.text.__gnu_Unwind_Resume_or_Rethrow
                0xf805a9b0        0x8 C:/GCC4/ARM/s002/lib/armv7aLaiv/libgcc.a(unwind-arm.o)
 .ARM.exidx.text._Unwind_Complete
                0xf805a9b8        0x0 C:/GCC4/ARM/s002/lib/armv7aLaiv/libgcc.a(unwind-arm.o)
                                  0x8 (size before relaxing)
 .ARM.exidx.text._Unwind_DeleteException
                0xf805a9b8        0x0 C:/GCC4/ARM/s002/lib/armv7aLaiv/libgcc.a(unwind-arm.o)
                                  0x8 (size before relaxing)
 .ARM.exidx.text._Unwind_VRS_Get
                0xf805a9b8        0x0 C:/GCC4/ARM/s002/lib/armv7aLaiv/libgcc.a(unwind-arm.o)
                                  0x8 (size before relaxing)
 .ARM.exidx.text._Unwind_GetGR
                0xf805a9b8        0x0 C:/GCC4/ARM/s002/lib/armv7aLaiv/libgcc.a(unwind-arm.o)
                                  0x8 (size before relaxing)
 .ARM.exidx.text._Unwind_VRS_Set
                0xf805a9b8        0x0 C:/GCC4/ARM/s002/lib/armv7aLaiv/libgcc.a(unwind-arm.o)
                                  0x8 (size before relaxing)
 .ARM.exidx.text._Unwind_SetGR
                0xf805a9b8        0x0 C:/GCC4/ARM/s002/lib/armv7aLaiv/libgcc.a(unwind-arm.o)
                                  0x8 (size before relaxing)
 .ARM.exidx.text.__gnu_Unwind_Backtrace
                0xf805a9b8        0x8 C:/GCC4/ARM/s002/lib/armv7aLaiv/libgcc.a(unwind-arm.o)
 .ARM.exidx.text.__gnu_unwind_pr_common
                0xf805a9c0        0x8 C:/GCC4/ARM/s002/lib/armv7aLaiv/libgcc.a(unwind-arm.o)
 .ARM.exidx.text.__aeabi_unwind_cpp_pr0
                0xf805a9c8        0x8 C:/GCC4/ARM/s002/lib/armv7aLaiv/libgcc.a(unwind-arm.o)
 .ARM.exidx.text.__aeabi_unwind_cpp_pr1
                0xf805a9d0        0x0 C:/GCC4/ARM/s002/lib/armv7aLaiv/libgcc.a(unwind-arm.o)
                                  0x8 (size before relaxing)
 .ARM.exidx.text.__aeabi_unwind_cpp_pr2
                0xf805a9d0        0x0 C:/GCC4/ARM/s002/lib/armv7aLaiv/libgcc.a(unwind-arm.o)
                                  0x8 (size before relaxing)
 .ARM.exidx.text._Unwind_VRS_Pop
                0xf805a9d0       0x10 C:/GCC4/ARM/s002/lib/armv7aLaiv/libgcc.a(unwind-arm.o)
                                  0x8 (size before relaxing)
 .ARM.exidx.text.next_unwind_byte
                0xf805a9e0        0x0 C:/GCC4/ARM/s002/lib/armv7aLaiv/libgcc.a(pr-support.o)
                                  0x8 (size before relaxing)
 .ARM.exidx.text._Unwind_GetGR.constprop.0
                0xf805a9e0        0x8 C:/GCC4/ARM/s002/lib/armv7aLaiv/libgcc.a(pr-support.o)
 .ARM.exidx.text.unwind_UCB_from_context
                0xf805a9e8        0x8 C:/GCC4/ARM/s002/lib/armv7aLaiv/libgcc.a(pr-support.o)
 .ARM.exidx.text.__gnu_unwind_execute
                0xf805a9f0        0x8 C:/GCC4/ARM/s002/lib/armv7aLaiv/libgcc.a(pr-support.o)
 .ARM.exidx.text.__gnu_unwind_frame
                0xf805a9f8        0x8 C:/GCC4/ARM/s002/lib/armv7aLaiv/libgcc.a(pr-support.o)
 .ARM.exidx.text._Unwind_GetRegionStart
                0xf805aa00        0x8 C:/GCC4/ARM/s002/lib/armv7aLaiv/libgcc.a(pr-support.o)
 .ARM.exidx.text._Unwind_GetLanguageSpecificData
                0xf805aa08        0x0 C:/GCC4/ARM/s002/lib/armv7aLaiv/libgcc.a(pr-support.o)
                                  0x8 (size before relaxing)
 .ARM.exidx.text._Unwind_GetTextRelBase
                0xf805aa08        0x8 C:/GCC4/ARM/s002/lib/armv7aLaiv/libgcc.a(pr-support.o)
 .ARM.exidx.text._Unwind_GetDataRelBase
                0xf805aa10        0x0 C:/GCC4/ARM/s002/lib/armv7aLaiv/libgcc.a(pr-support.o)
                                  0x8 (size before relaxing)
                0xf805aa10                __exidx_end = .
                0xf805aa10                _solid_rodata_end = .
                0x00054000                _solid_rodata_offs = (_solid_rodata_start - _solid_start)
                0x00006a10                _solid_rodata_size = (_solid_rodata_end - _solid_rodata_start)

.rel.dyn        0xf805aa10        0x0
 .rel.iplt      0xf805aa10        0x0 C:/Users/admin/Documents/SOLID-IDE/Projects/cpptest/Release/exeGCC_SOLID/cpptest/cpptest_all.o

.data           0xf805b000      0xf38
                0xf805b000                _solid_data_start = .
 *(.data .data.*)
 .data          0xf805b000        0x4 C:/Users/admin/Documents/SOLID-IDE/Projects/cpptest/Release/exeGCC_SOLID/cpptest/cpptest_all.o
                0xf805b000                __kmc_eventlog_max_record
 .data          0xf805b004        0x0 C:/ProgramData/KMC/SOLID/SDK/2.0/solid-os/core/lib/armv7aLaiv/GR_\libsolid_cs.a(solid_cs_asm.o)
 .data          0xf805b004        0x0 C:/ProgramData/KMC/SOLID/SDK/2.0/solid-os/core/lib/armv7aLaiv/GR_\libsolid_cs.a(solid_cs_main.o)
 .data          0xf805b004        0x0 C:/ProgramData/KMC/SOLID/SDK/2.0/solid-os/core/lib/armv7aLaiv/GR_\libsolid_cs.a(kmc_trace_mem_dummy.o)
 .data          0xf805b004        0x0 C:/ProgramData/KMC/SOLID/SDK/2.0/solid-os/core/lib/armv7aLaiv/GR_\libsolid_cs.a(solid_cs_event.o)
 .data          0xf805b004        0x0 C:/ProgramData/KMC/SOLID/SDK/2.0/solid-os/core/lib/armv7aLaiv/GR_\libsolid_cs.a(solid_debugger.o)
 .data          0xf805b004        0x0 C:/ProgramData/KMC/SOLID/SDK/2.0/solid-os/core/lib/armv7aLaiv/GR_\libsolid_cs.a(solid_dmac.o)
 .data          0xf805b004       0x30 C:/ProgramData/KMC/SOLID/SDK/2.0/solid-os/core/lib/armv7aLaiv/GR_\libsolid_cs.a(solid_exception.o)
 .data          0xf805b034        0x0 C:/ProgramData/KMC/SOLID/SDK/2.0/solid-os/core/lib/armv7aLaiv/GR_\libsolid_cs.a(solid_fs_base.o)
 .data          0xf805b034        0x0 C:/ProgramData/KMC/SOLID/SDK/2.0/solid-os/core/lib/armv7aLaiv/GR_\libsolid_cs.a(solid_fs_mem.o)
 .data          0xf805b034        0x0 C:/ProgramData/KMC/SOLID/SDK/2.0/solid-os/core/lib/armv7aLaiv/GR_\libsolid_cs.a(solid_fs_vlink.o)
 .data          0xf805b034        0x0 C:/ProgramData/KMC/SOLID/SDK/2.0/solid-os/core/lib/armv7aLaiv/GR_\libsolid_cs.a(solid_intc.o)
 .data          0xf805b034        0x0 C:/ProgramData/KMC/SOLID/SDK/2.0/solid-os/core/lib/armv7aLaiv/GR_\libsolid_cs.a(solid_iores.o)
 .data          0xf805b034        0x0 C:/ProgramData/KMC/SOLID/SDK/2.0/solid-os/core/lib/armv7aLaiv/GR_\libsolid_cs.a(solid_loader.o)
 .data          0xf805b034        0x0 C:/ProgramData/KMC/SOLID/SDK/2.0/solid-os/core/lib/armv7aLaiv/GR_\libsolid_cs.a(solid_loader_fixed.o)
 .data          0xf805b034        0x4 C:/ProgramData/KMC/SOLID/SDK/2.0/solid-os/core/lib/armv7aLaiv/GR_\libsolid_cs.a(solid_log.o)
 .data          0xf805b038        0x0 C:/ProgramData/KMC/SOLID/SDK/2.0/solid-os/core/lib/armv7aLaiv/GR_\libsolid_cs.a(solid_malloc.o)
 .data          0xf805b038        0x0 C:/ProgramData/KMC/SOLID/SDK/2.0/solid-os/core/lib/armv7aLaiv/GR_\libsolid_cs.a(solid_mem.o)
 .data          0xf805b038        0x0 C:/ProgramData/KMC/SOLID/SDK/2.0/solid-os/core/lib/armv7aLaiv/GR_\libsolid_cs.a(solid_mem_cache.o)
 .data          0xf805b038        0x0 C:/ProgramData/KMC/SOLID/SDK/2.0/solid-os/core/lib/armv7aLaiv/GR_\libsolid_cs.a(solid_mutex.o)
 .data          0xf805b038        0x0 C:/ProgramData/KMC/SOLID/SDK/2.0/solid-os/core/lib/armv7aLaiv/GR_\libsolid_cs.a(solid_rtc.o)
 .data          0xf805b038        0x8 C:/ProgramData/KMC/SOLID/SDK/2.0/solid-os/core/lib/armv7aLaiv/GR_\libsolid_cs.a(solid_timer.o)
 .data          0xf805b040        0x0 C:/ProgramData/KMC/SOLID/SDK/2.0/solid-os/core/lib/armv7aLaiv/GR_\libsolid_cs.a(solid_vector.o)
 .data          0xf805b040        0x0 C:/ProgramData/KMC/SOLID/SDK/2.0/solid-os/core/lib/armv7aLaiv/GR_\libsolid_cs.a(solid_vlink.o)
 .data          0xf805b040        0x0 C:/ProgramData/KMC/SOLID/SDK/2.0/solid-os/core/lib/armv7aLaiv/GR_\libsolid_cs.a(solid_mem_mmu.o)
 .data          0xf805b040        0x4 C:/ProgramData/KMC/SOLID/SDK/2.0/solid-os/core/lib/armv7aLaiv/GR_\libsolid_cs.a(kmc_evttracker_core.o)
 .data          0xf805b044        0x0 C:/ProgramData/KMC/SOLID/SDK/2.0/solid-os/core/lib/armv7aLaiv/GR_\libsolid_cs.a(dlmalloc.o)
 .data          0xf805b044        0x0 C:/ProgramData/KMC/SOLID/SDK/2.0/solid-os/core/lib/armv7aLaiv/GR_\libsolid_cs.a(solid_asan.o)
 .data          0xf805b044        0x0 C:/ProgramData/KMC/SOLID/SDK/2.0/solid-os/core/lib/armv7aLaiv/GR_\libsolid_cs.a(solid_cs_args.o)
 .data          0xf805b044        0x0 C:/ProgramData/KMC/SOLID/SDK/2.0/solid-os/core/lib/armv7aLaiv/GR_\libsolid_cs.a(tasan.o)
 .data          0xf805b044       0x18 C:/Users/admin/Documents/SOLID-IDE/Projects/cpptest/Release/exeGCC_SOLID/\libnet.a(sys_arch.o)
 .data          0xf805b05c        0x0 C:/Users/admin/Documents/SOLID-IDE/Projects/cpptest/Release/exeGCC_SOLID/\libnet.a(tcpip.o)
 .data          0xf805b05c        0x0 C:/Users/admin/Documents/SOLID-IDE/Projects/cpptest/Release/exeGCC_SOLID/\libnet.a(init.o)
 .data          0xf805b05c        0x0 C:/Users/admin/Documents/SOLID-IDE/Projects/cpptest/Release/exeGCC_SOLID/\libnet.a(ip4.o)
 .data          0xf805b05c        0x0 C:/Users/admin/Documents/SOLID-IDE/Projects/cpptest/Release/exeGCC_SOLID/\libnet.a(ip4_addr.o)
 .data          0xf805b05c        0x0 C:/Users/admin/Documents/SOLID-IDE/Projects/cpptest/Release/exeGCC_SOLID/\libnet.a(ip4_frag.o)
 .data          0xf805b05c        0x0 C:/Users/admin/Documents/SOLID-IDE/Projects/cpptest/Release/exeGCC_SOLID/\libnet.a(mem.o)
 .data          0xf805b05c        0x0 C:/Users/admin/Documents/SOLID-IDE/Projects/cpptest/Release/exeGCC_SOLID/\libnet.a(memp.o)
 .data          0xf805b05c        0x0 C:/Users/admin/Documents/SOLID-IDE/Projects/cpptest/Release/exeGCC_SOLID/\libnet.a(netif.o)
 .data          0xf805b05c        0x0 C:/Users/admin/Documents/SOLID-IDE/Projects/cpptest/Release/exeGCC_SOLID/\libnet.a(pbuf.o)
 .data          0xf805b05c        0x0 C:/Users/admin/Documents/SOLID-IDE/Projects/cpptest/Release/exeGCC_SOLID/\libnet.a(stats.o)
 .data          0xf805b05c        0x8 C:/Users/admin/Documents/SOLID-IDE/Projects/cpptest/Release/exeGCC_SOLID/\libnet.a(tcp.o)
 .data          0xf805b064        0x0 C:/Users/admin/Documents/SOLID-IDE/Projects/cpptest/Release/exeGCC_SOLID/\libnet.a(tcp_in.o)
 .data          0xf805b064        0x0 C:/Users/admin/Documents/SOLID-IDE/Projects/cpptest/Release/exeGCC_SOLID/\libnet.a(tcp_out.o)
 .data          0xf805b064        0x0 C:/Users/admin/Documents/SOLID-IDE/Projects/cpptest/Release/exeGCC_SOLID/\libnet.a(timeouts.o)
 .data          0xf805b064        0x2 C:/Users/admin/Documents/SOLID-IDE/Projects/cpptest/Release/exeGCC_SOLID/\libnet.a(udp.o)
 .data          0xf805b066        0x0 C:/Users/admin/Documents/SOLID-IDE/Projects/cpptest/Release/exeGCC_SOLID/\libnet.a(ethernet.o)
 *fill*         0xf805b066        0x2 
 .data          0xf805b068       0x28 C:/Users/admin/Documents/SOLID-IDE/Projects/cpptest/Release/exeGCC_SOLID/\libnet.a(solid_net_if.o)
 .data          0xf805b090        0x0 C:/Users/admin/Documents/SOLID-IDE/Projects/cpptest/Release/exeGCC_SOLID/\libnet.a(solid_net_registerapi.o)
 .data          0xf805b090        0x0 C:/Users/admin/Documents/SOLID-IDE/Projects/cpptest/Release/exeGCC_SOLID/\libnet.a(impl_net_stack.o)
 .data          0xf805b090        0x0 C:/Users/admin/Documents/SOLID-IDE/Projects/cpptest/Release/exeGCC_SOLID/\libnet.a(ethernetif.o)
 .data          0xf805b090        0x0 C:/Users/admin/Documents/SOLID-IDE/Projects/cpptest/Release/exeGCC_SOLID/\libnet.a(api_lib.o)
 .data          0xf805b090        0x0 C:/Users/admin/Documents/SOLID-IDE/Projects/cpptest/Release/exeGCC_SOLID/\libnet.a(api_msg.o)
 .data          0xf805b090        0x0 C:/Users/admin/Documents/SOLID-IDE/Projects/cpptest/Release/exeGCC_SOLID/\libnet.a(netbuf.o)
 .data          0xf805b090        0x0 C:/Users/admin/Documents/SOLID-IDE/Projects/cpptest/Release/exeGCC_SOLID/\libnet.a(netdb.o)
 .data          0xf805b090        0x0 C:/Users/admin/Documents/SOLID-IDE/Projects/cpptest/Release/exeGCC_SOLID/\libnet.a(sockets.o)
 .data          0xf805b090        0x0 C:/Users/admin/Documents/SOLID-IDE/Projects/cpptest/Release/exeGCC_SOLID/\libnet.a(def.o)
 .data          0xf805b090        0x0 C:/Users/admin/Documents/SOLID-IDE/Projects/cpptest/Release/exeGCC_SOLID/\libnet.a(dns.o)
 .data          0xf805b090        0x0 C:/Users/admin/Documents/SOLID-IDE/Projects/cpptest/Release/exeGCC_SOLID/\libnet.a(inet_chksum.o)
 .data          0xf805b090        0x0 C:/Users/admin/Documents/SOLID-IDE/Projects/cpptest/Release/exeGCC_SOLID/\libnet.a(ip.o)
 .data          0xf805b090        0x0 C:/Users/admin/Documents/SOLID-IDE/Projects/cpptest/Release/exeGCC_SOLID/\libnet.a(dhcp.o)
 .data          0xf805b090        0x0 C:/Users/admin/Documents/SOLID-IDE/Projects/cpptest/Release/exeGCC_SOLID/\libnet.a(etharp.o)
 .data          0xf805b090        0x0 C:/Users/admin/Documents/SOLID-IDE/Projects/cpptest/Release/exeGCC_SOLID/\libnet.a(icmp.o)
 .data          0xf805b090        0x0 C:/Users/admin/Documents/SOLID-IDE/Projects/cpptest/Release/exeGCC_SOLID/\libnet.a(impl_net_stack_errno.o)
 .data          0xf805b090        0x0 C:/Users/admin/Documents/SOLID-IDE/Projects/cpptest/Release/exeGCC_SOLID/\libnet.a(err.o)
 .data          0xf805b090        0x0 C:/ProgramData/KMC/SOLID/SDK/2.0/solid-os/rtos/toppers_asp3/lib/armv7aLaiv/GR__\libkernel.a(dataqueue.o)
 .data          0xf805b090        0x0 C:/ProgramData/KMC/SOLID/SDK/2.0/solid-os/rtos/toppers_asp3/lib/armv7aLaiv/GR__\libkernel.a(interrupt.o)
 .data          0xf805b090        0x0 C:/ProgramData/KMC/SOLID/SDK/2.0/solid-os/rtos/toppers_asp3/lib/armv7aLaiv/GR__\libkernel.a(tSysLog.o)
 .data          0xf805b090        0x0 C:/ProgramData/KMC/SOLID/SDK/2.0/solid-os/rtos/toppers_asp3/lib/armv7aLaiv/GR__\libkernel.a(vasyslog.o)
 .data          0xf805b090        0x0 C:/ProgramData/KMC/SOLID/SDK/2.0/solid-os/rtos/toppers_asp3/lib/armv7aLaiv/GR__\libkernel.a(semaphore.o)
 .data          0xf805b090        0x0 C:/ProgramData/KMC/SOLID/SDK/2.0/solid-os/rtos/toppers_asp3/lib/armv7aLaiv/GR__\libkernel.a(startup.o)
 .data          0xf805b090        0x0 C:/ProgramData/KMC/SOLID/SDK/2.0/solid-os/rtos/toppers_asp3/lib/armv7aLaiv/GR__\libkernel.a(sys_manage.o)
 .data          0xf805b090        0x0 C:/ProgramData/KMC/SOLID/SDK/2.0/solid-os/rtos/toppers_asp3/lib/armv7aLaiv/GR__\libkernel.a(task.o)
 .data          0xf805b090        0x0 C:/ProgramData/KMC/SOLID/SDK/2.0/solid-os/rtos/toppers_asp3/lib/armv7aLaiv/GR__\libkernel.a(taskhook.o)
 .data          0xf805b090        0x0 C:/ProgramData/KMC/SOLID/SDK/2.0/solid-os/rtos/toppers_asp3/lib/armv7aLaiv/GR__\libkernel.a(task_manage.o)
 .data          0xf805b090        0x0 C:/ProgramData/KMC/SOLID/SDK/2.0/solid-os/rtos/toppers_asp3/lib/armv7aLaiv/GR__\libkernel.a(time_event.o)
 .data          0xf805b090        0x0 C:/ProgramData/KMC/SOLID/SDK/2.0/solid-os/rtos/toppers_asp3/lib/armv7aLaiv/GR__\libkernel.a(wait.o)
 .data          0xf805b090        0x0 C:/ProgramData/KMC/SOLID/SDK/2.0/solid-os/rtos/toppers_asp3/lib/armv7aLaiv/GR__\libkernel.a(solid_rtos_registerapi.o)
 .data          0xf805b090        0x0 C:/ProgramData/KMC/SOLID/SDK/2.0/solid-os/rtos/toppers_asp3/lib/armv7aLaiv/GR__\libkernel.a(target_fput_log.o)
 .data          0xf805b090       0x10 C:/ProgramData/KMC/SOLID/SDK/2.0/solid-os/rtos/toppers_asp3/lib/armv7aLaiv/GR__\libkernel.a(target_intc_impl.o)
 .data          0xf805b0a0        0x0 C:/ProgramData/KMC/SOLID/SDK/2.0/solid-os/rtos/toppers_asp3/lib/armv7aLaiv/GR__\libkernel.a(target_timer_impl.o)
 .data          0xf805b0a0        0x0 C:/ProgramData/KMC/SOLID/SDK/2.0/solid-os/rtos/toppers_asp3/lib/armv7aLaiv/GR__\libkernel.a(kmc_evttracker_rtos.o)
 .data          0xf805b0a0        0x0 C:/ProgramData/KMC/SOLID/SDK/2.0/solid-os/rtos/toppers_asp3/lib/armv7aLaiv/GR__\libkernel.a(rtos_prof.o)
 .data          0xf805b0a0        0x0 C:/ProgramData/KMC/SOLID/SDK/2.0/solid-os/rtos/toppers_asp3/lib/armv7aLaiv/GR__\libkernel.a(core_support.o)
 .data          0xf805b0a0        0x0 C:/ProgramData/KMC/SOLID/SDK/2.0/solid-os/rtos/toppers_asp3/lib/armv7aLaiv/GR__\libkernel.a(kernel_cfg_intl.o)
 .data          0xf805b0a0        0x0 C:/ProgramData/KMC/SOLID/SDK/2.0/solid-os/rtos/toppers_asp3/lib/armv7aLaiv/GR__\libkernel.a(alarm.o)
 .data          0xf805b0a0        0x0 C:/ProgramData/KMC/SOLID/SDK/2.0/solid-os/rtos/toppers_asp3/lib/armv7aLaiv/GR__\libkernel.a(core_kernel_impl.o)
 .data          0xf805b0a0        0x0 C:/ProgramData/KMC/SOLID/SDK/2.0/solid-os/rtos/toppers_asp3/lib/armv7aLaiv/GR__\libkernel.a(cyclic.o)
 .data          0xf805b0a0        0x0 C:/ProgramData/KMC/SOLID/SDK/2.0/solid-os/rtos/toppers_asp3/lib/armv7aLaiv/GR__\libkernel.a(eventflag.o)
 .data          0xf805b0a0        0x0 C:/ProgramData/KMC/SOLID/SDK/2.0/solid-os/rtos/toppers_asp3/lib/armv7aLaiv/GR__\libkernel.a(exception.o)
 .data          0xf805b0a0        0x0 C:/ProgramData/KMC/SOLID/SDK/2.0/solid-os/rtos/toppers_asp3/lib/armv7aLaiv/GR__\libkernel.a(mempfix.o)
 .data          0xf805b0a0        0x0 C:/ProgramData/KMC/SOLID/SDK/2.0/solid-os/rtos/toppers_asp3/lib/armv7aLaiv/GR__\libkernel.a(log_output.o)
 .data          0xf805b0a0        0x0 C:/ProgramData/KMC/SOLID/SDK/2.0/solid-os/rtos/toppers_asp3/lib/armv7aLaiv/GR__\libkernel.a(mutex.o)
 .data          0xf805b0a0        0x0 C:/ProgramData/KMC/SOLID/SDK/2.0/solid-os/rtos/toppers_asp3/lib/armv7aLaiv/GR__\libkernel.a(pridataq.o)
 .data          0xf805b0a0        0x0 C:/ProgramData/KMC/SOLID/SDK/2.0/solid-os/rtos/toppers_asp3/lib/armv7aLaiv/GR__\libkernel.a(task_refer.o)
 .data          0xf805b0a0        0x0 C:/ProgramData/KMC/SOLID/SDK/2.0/solid-os/rtos/toppers_asp3/lib/armv7aLaiv/GR__\libkernel.a(task_sync.o)
 .data          0xf805b0a0        0x0 C:/ProgramData/KMC/SOLID/SDK/2.0/solid-os/rtos/toppers_asp3/lib/armv7aLaiv/GR__\libkernel.a(task_term.o)
 .data          0xf805b0a0        0x0 C:/ProgramData/KMC/SOLID/SDK/2.0/solid-os/rtos/toppers_asp3/lib/armv7aLaiv/GR__\libkernel.a(time_manage.o)
 .data          0xf805b0a0        0x0 C:/Users/admin/Documents/SOLID-IDE/Projects/cpptest/Release/exeGCC_SOLID/\libbsp.a(impl_cs_event.o)
 .data          0xf805b0a0        0x0 C:/Users/admin/Documents/SOLID-IDE/Projects/cpptest/Release/exeGCC_SOLID/\libbsp.a(impl_dmac.o)
 .data          0xf805b0a0      0x430 C:/Users/admin/Documents/SOLID-IDE/Projects/cpptest/Release/exeGCC_SOLID/\libbsp.a(impl_iores.o)
 .data          0xf805b4d0        0x0 C:/Users/admin/Documents/SOLID-IDE/Projects/cpptest/Release/exeGCC_SOLID/\libbsp.a(impl_log.o)
 .data          0xf805b4d0       0x44 C:/Users/admin/Documents/SOLID-IDE/Projects/cpptest/Release/exeGCC_SOLID/\libbsp.a(impl_net_dev_ether.o)
 .data          0xf805b514        0x0 C:/Users/admin/Documents/SOLID-IDE/Projects/cpptest/Release/exeGCC_SOLID/\libbsp.a(impl_net_dev_get_macaddr.o)
 .data          0xf805b514        0x0 C:/Users/admin/Documents/SOLID-IDE/Projects/cpptest/Release/exeGCC_SOLID/\libbsp.a(impl_net_dev_getconfig.o)
 .data          0xf805b514        0x0 C:/Users/admin/Documents/SOLID-IDE/Projects/cpptest/Release/exeGCC_SOLID/\libbsp.a(impl_rtc.o)
 .data          0xf805b514        0x0 C:/Users/admin/Documents/SOLID-IDE/Projects/cpptest/Release/exeGCC_SOLID/\libbsp.a(impl_timer.o)
 .data          0xf805b514        0x0 C:/Users/admin/Documents/SOLID-IDE/Projects/cpptest/Release/exeGCC_SOLID/\libbsp.a(rtc.o)
 .data          0xf805b514        0x0 C:/Users/admin/Documents/SOLID-IDE/Projects/cpptest/Release/exeGCC_SOLID/\libbsp.a(rtc_userdef.o)
 .data          0xf805b514        0x0 C:/Users/admin/Documents/SOLID-IDE/Projects/cpptest/Release/exeGCC_SOLID/\libbsp.a(bsp_globals.o)
 .data          0xf805b514        0x0 C:/Users/admin/Documents/SOLID-IDE/Projects/cpptest/Release/exeGCC_SOLID/\libbsp.a(rza_io_regrw.o)
 .data          0xf805b514        0x0 C:/GCC4/ARM/s002/lib/armv7aLaiv\libstdc++.a(class_type_info.o)
 .data          0xf805b514        0x0 C:/GCC4/ARM/s002/lib/armv7aLaiv\libstdc++.a(atexit_arm.o)
 .data          0xf805b514        0x0 C:/GCC4/ARM/s002/lib/armv7aLaiv\libstdc++.a(del_ops.o)
 .data          0xf805b514        0x0 C:/GCC4/ARM/s002/lib/armv7aLaiv\libstdc++.a(si_class_type_info.o)
 .data          0xf805b514        0x0 C:/GCC4/ARM/s002/lib/armv7aLaiv\libstdc++.a(del_op.o)
 .data          0xf805b514        0x0 C:/GCC4/ARM/s002/lib/armv7aLaiv\libstdc++.a(tinfo.o)
 .data          0xf805b514        0x0 C:/GCC4/ARM/s002/lib/armv7aLaiv/libgcc.a(_udivsi3.o)
 .data          0xf805b514        0x0 C:/GCC4/ARM/s002/lib/armv7aLaiv/libgcc.a(_dvmd_tls.o)
 .data          0xf805b514        0x0 C:/GCC4/ARM/s002/lib/armv7aLaiv/libgcc.a(_aeabi_uldivmod.o)
 .data          0xf805b514        0x0 C:/GCC4/ARM/s002/lib/armv7aLaiv/libgcc.a(_udivmoddi4.o)
 .data          0xf805b514        0x0 C:/GCC4/ARM/s002/lib/armv7aLaiv/libgcc.a(unwind-arm.o)
 .data          0xf805b514        0x0 C:/GCC4/ARM/s002/lib/armv7aLaiv/libgcc.a(libunwind.o)
 .data          0xf805b514        0x0 C:/GCC4/ARM/s002/lib/armv7aLaiv/libgcc.a(pr-support.o)
 .data          0xf805b514        0x0 C:/GCC4/ARM/s002/lib/armv7aLaiv/libc.a(_m_init.o)
 .data          0xf805b514        0x0 C:/GCC4/ARM/s002/lib/armv7aLaiv/libc.a(abort.o)
 .data          0xf805b514        0x0 C:/GCC4/ARM/s002/lib/armv7aLaiv/libc.a(errno.o)
 .data          0xf805b514        0x0 C:/GCC4/ARM/s002/lib/armv7aLaiv/libc.a(atoi.o)
 .data          0xf805b514        0x0 C:/GCC4/ARM/s002/lib/armv7aLaiv/libc.a(rand.o)
 .data.next     0xf805b514        0x4 C:/GCC4/ARM/s002/lib/armv7aLaiv/libc.a(rand.o)
 .data          0xf805b518        0x0 C:/GCC4/ARM/s002/lib/armv7aLaiv/libc.a(strtol.o)
 .data          0xf805b518        0x0 C:/GCC4/ARM/s002/lib/armv7aLaiv/libc.a(strtoul.o)
 .data          0xf805b518        0x0 C:/GCC4/ARM/s002/lib/armv7aLaiv/libc.a(atexit.o)
 .data          0xf805b518        0x0 C:/GCC4/ARM/s002/lib/armv7aLaiv/libc.a(memcmp.o)
 .data          0xf805b518        0x0 C:/GCC4/ARM/s002/lib/armv7aLaiv/libc.a(memcpy.o)
 .data          0xf805b518        0x0 C:/GCC4/ARM/s002/lib/armv7aLaiv/libc.a(memset.o)
 .data          0xf805b518        0x0 C:/GCC4/ARM/s002/lib/armv7aLaiv/libc.a(strncpy.o)
 .data          0xf805b518        0x0 C:/GCC4/ARM/s002/lib/armv7aLaiv/libc.a(strcmp.o)
 .data          0xf805b518        0x0 C:/GCC4/ARM/s002/lib/armv7aLaiv/libc.a(strncmp.o)
 .data          0xf805b518        0x0 C:/GCC4/ARM/s002/lib/armv7aLaiv/libc.a(strlen.o)
 .data          0xf805b518        0x0 C:/GCC4/ARM/s002/lib/armv7aLaiv/libc.a(isctype.o)
 .data          0xf805b518        0x0 C:/GCC4/ARM/s002/lib/armv7aLaiv/libc.a(global_locale.o)
 .data._lc_global_locale
                0xf805b518      0x104 C:/GCC4/ARM/s002/lib/armv7aLaiv/libc.a(global_locale.o)
                0xf805b518                _lc_global_locale
 .data          0xf805b61c        0x0 C:/GCC4/ARM/s002/lib/armv7aLaiv/libc.a(runetable.o)
 .data          0xf805b61c        0x0 C:/GCC4/ARM/s002/lib/armv7aLaiv/libc.a(thread-stub-init.o)
 .data          0xf805b61c        0x0 C:/GCC4/ARM/s002/lib/armv7aLaiv/libc.a(thread-stub.o)
 .data          0xf805b61c        0x0 C:/GCC4/ARM/s002/lib/armv7aLaiv/libc.a(ssp_init.o)
 .data          0xf805b61c        0x0 C:/GCC4/ARM/s002/lib/armv7aLaiv/libc.a(findfp.o)
 *fill*         0xf805b61c        0x4 
 .data.__sF     0xf805b620      0x108 C:/GCC4/ARM/s002/lib/armv7aLaiv/libc.a(findfp.o)
                0xf805b620                __sF
 .data.__sFext  0xf805b728      0x438 C:/GCC4/ARM/s002/lib/armv7aLaiv/libc.a(findfp.o)
                0xf805b728                __sFext
 .data.__sfp_lock
                0xf805bb60       0x24 C:/GCC4/ARM/s002/lib/armv7aLaiv/libc.a(findfp.o)
                0xf805bb60                __sfp_lock
 .data.__sglue  0xf805bb84        0xc C:/GCC4/ARM/s002/lib/armv7aLaiv/libc.a(findfp.o)
                0xf805bb84                __sglue
 .data.uglue    0xf805bb90        0xc C:/GCC4/ARM/s002/lib/armv7aLaiv/libc.a(findfp.o)
 .data          0xf805bb9c        0x0 C:/GCC4/ARM/s002/lib/armv7aLaiv/libc.a(fprintf.o)
 .data          0xf805bb9c        0x0 C:/GCC4/ARM/s002/lib/armv7aLaiv/libc.a(stdio.o)
 .data          0xf805bb9c        0x0 C:/GCC4/ARM/s002/lib/armv7aLaiv/libc.a(vfprintf.o)
 .data.blanks.7951
                0xf805bb9c       0x10 C:/GCC4/ARM/s002/lib/armv7aLaiv/libc.a(vfprintf.o)
 .data.zeroes.7952
                0xf805bbac       0x10 C:/GCC4/ARM/s002/lib/armv7aLaiv/libc.a(vfprintf.o)
 .data          0xf805bbbc        0x0 C:/GCC4/ARM/s002/lib/armv7aLaiv/libc.a(vsnprintf.o)
 .data          0xf805bbbc        0x0 C:/GCC4/ARM/s002/lib/armv7aLaiv/libc.a(wsetup.o)
 .data          0xf805bbbc        0x0 C:/GCC4/ARM/s002/lib/armv7aLaiv/libc.a(makebuf.o)
 .data          0xf805bbbc        0x0 C:/GCC4/ARM/s002/lib/armv7aLaiv/libc.a(close.o)
 .data          0xf805bbbc        0x0 C:/GCC4/ARM/s002/lib/armv7aLaiv/libc.a(fstat.o)
 .data          0xf805bbbc        0x0 C:/GCC4/ARM/s002/lib/armv7aLaiv/libc.a(lseek.o)
 .data          0xf805bbbc        0x0 C:/GCC4/ARM/s002/lib/armv7aLaiv/libc.a(open.o)
 .data._fd_status
                0xf805bbbc      0x140 C:/GCC4/ARM/s002/lib/armv7aLaiv/libc.a(open.o)
                0xf805bbbc                _fd_status
 .data          0xf805bcfc        0x0 C:/GCC4/ARM/s002/lib/armv7aLaiv/libc.a(osemu.o)
 .data.getPT    0xf805bcfc        0x4 C:/GCC4/ARM/s002/lib/armv7aLaiv/libc.a(osemu.o)
 .data.getPT_BLK
                0xf805bd00        0x4 C:/GCC4/ARM/s002/lib/armv7aLaiv/libc.a(osemu.o)
 .data.getPT_L  0xf805bd04        0x4 C:/GCC4/ARM/s002/lib/armv7aLaiv/libc.a(osemu.o)
 .data.getSTAT  0xf805bd08        0x4 C:/GCC4/ARM/s002/lib/armv7aLaiv/libc.a(osemu.o)
 .data.kmc.vlink
                0xf805bd0c       0x14 C:/GCC4/ARM/s002/lib/armv7aLaiv/libc.a(osemu.o)
                0xf805bd0c                __et2_vlink_tbl
 .data.putCMD   0xf805bd20        0x4 C:/GCC4/ARM/s002/lib/armv7aLaiv/libc.a(osemu.o)
 .data.putPT    0xf805bd24        0x4 C:/GCC4/ARM/s002/lib/armv7aLaiv/libc.a(osemu.o)
 .data.putPT_BLK
                0xf805bd28        0x4 C:/GCC4/ARM/s002/lib/armv7aLaiv/libc.a(osemu.o)
 .data.putPT_L  0xf805bd2c        0x4 C:/GCC4/ARM/s002/lib/armv7aLaiv/libc.a(osemu.o)
 .data          0xf805bd30        0x0 C:/GCC4/ARM/s002/lib/armv7aLaiv/libc.a(read.o)
 .data          0xf805bd30        0x0 C:/GCC4/ARM/s002/lib/armv7aLaiv/libc.a(u2dname.o)
 .data._LF_flg  0xf805bd30        0x4 C:/GCC4/ARM/s002/lib/armv7aLaiv/libc.a(u2dname.o)
                0xf805bd30                _LF_flg
 .data          0xf805bd34        0x0 C:/GCC4/ARM/s002/lib/armv7aLaiv/libc.a(utime.o)
 .data          0xf805bd34        0x0 C:/GCC4/ARM/s002/lib/armv7aLaiv/libc.a(write.o)
 .data          0xf805bd34        0x0 C:/GCC4/ARM/s002/lib/armv7aLaiv/libc.a(_env.o)
 .data.env_lock
                0xf805bd34       0x24 C:/GCC4/ARM/s002/lib/armv7aLaiv/libc.a(_env.o)
 .data          0xf805bd58        0x0 C:/GCC4/ARM/s002/lib/armv7aLaiv/libc.a(exit.o)
 .data          0xf805bd58        0x0 C:/GCC4/ARM/s002/lib/armv7aLaiv/libc.a(signal.o)
 .data          0xf805bd58        0x0 C:/GCC4/ARM/s002/lib/armv7aLaiv/libc.a(localtime.o)
 .data          0xf805bd58        0x0 C:/GCC4/ARM/s002/lib/armv7aLaiv/libc.a(lldiv.o)
 .data          0xf805bd58        0x0 C:/GCC4/ARM/s002/lib/armv7aLaiv/libc.a(memchr.o)
 .data          0xf805bd58        0x0 C:/GCC4/ARM/s002/lib/armv7aLaiv/libc.a(strcspn.o)
 .data          0xf805bd58        0x0 C:/GCC4/ARM/s002/lib/armv7aLaiv/libc.a(strncasecmp.o)
 .data          0xf805bd58        0x0 C:/GCC4/ARM/s002/lib/armv7aLaiv/libc.a(strdup.o)
 .data          0xf805bd58        0x0 C:/GCC4/ARM/s002/lib/armv7aLaiv/libc.a(ctype_.o)
 .data._ctype_tab_
                0xf805bd58        0x4 C:/GCC4/ARM/s002/lib/armv7aLaiv/libc.a(ctype_.o)
                0xf805bd58                _ctype_tab_
 .data          0xf805bd5c        0x0 C:/GCC4/ARM/s002/lib/armv7aLaiv/libc.a(toupper_.o)
 .data._toupper_tab_
                0xf805bd5c        0x4 C:/GCC4/ARM/s002/lib/armv7aLaiv/libc.a(toupper_.o)
                0xf805bd5c                _toupper_tab_
 .data          0xf805bd60        0x0 C:/GCC4/ARM/s002/lib/armv7aLaiv/libc.a(tolower_.o)
 .data._tolower_tab_
                0xf805bd60        0x4 C:/GCC4/ARM/s002/lib/armv7aLaiv/libc.a(tolower_.o)
                0xf805bd60                _tolower_tab_
 .data          0xf805bd64        0x0 C:/GCC4/ARM/s002/lib/armv7aLaiv/libc.a(citrus_ctype.o)
 .data._citrus_ctype_default
                0xf805bd64        0xc C:/GCC4/ARM/s002/lib/armv7aLaiv/libc.a(citrus_ctype.o)
                0xf805bd64                _citrus_ctype_default
 .data._citrus_ctype_mskanji
                0xf805bd70        0xc C:/GCC4/ARM/s002/lib/armv7aLaiv/libc.a(citrus_ctype.o)
                0xf805bd70                _citrus_ctype_mskanji
 .data._citrus_ctype_none
                0xf805bd7c        0xc C:/GCC4/ARM/s002/lib/armv7aLaiv/libc.a(citrus_ctype.o)
                0xf805bd7c                _citrus_ctype_none
 .data._citrus_ctype_utf8
                0xf805bd88        0xc C:/GCC4/ARM/s002/lib/armv7aLaiv/libc.a(citrus_ctype.o)
                0xf805bd88                _citrus_ctype_utf8
 .data          0xf805bd94        0x0 C:/GCC4/ARM/s002/lib/armv7aLaiv/libc.a(citrus_none.o)
 .data._citrus_NONE_ctype_ops
                0xf805bd94       0x4c C:/GCC4/ARM/s002/lib/armv7aLaiv/libc.a(citrus_none.o)
                0xf805bd94                _citrus_NONE_ctype_ops
 .data._citrus_NONE_stdenc_ops
                0xf805bde0       0x28 C:/GCC4/ARM/s002/lib/armv7aLaiv/libc.a(citrus_none.o)
                0xf805bde0                _citrus_NONE_stdenc_ops
 .data._citrus_NONE_stdenc_traits
                0xf805be08        0x8 C:/GCC4/ARM/s002/lib/armv7aLaiv/libc.a(citrus_none.o)
                0xf805be08                _citrus_NONE_stdenc_traits
 .data          0xf805be10        0x0 C:/GCC4/ARM/s002/lib/armv7aLaiv/libc.a(citrus_mskanji.o)
 .data._citrus_MSKanji_ctype_ops
                0xf805be10       0x4c C:/GCC4/ARM/s002/lib/armv7aLaiv/libc.a(citrus_mskanji.o)
                0xf805be10                _citrus_MSKanji_ctype_ops
 .data._citrus_MSKanji_stdenc_ops
                0xf805be5c       0x28 C:/GCC4/ARM/s002/lib/armv7aLaiv/libc.a(citrus_mskanji.o)
                0xf805be5c                _citrus_MSKanji_stdenc_ops
 .data          0xf805be84        0x0 C:/GCC4/ARM/s002/lib/armv7aLaiv/libc.a(citrus_utf8.o)
 .data._citrus_UTF8_ctype_ops
                0xf805be84       0x4c C:/GCC4/ARM/s002/lib/armv7aLaiv/libc.a(citrus_utf8.o)
                0xf805be84                _citrus_UTF8_ctype_ops
 .data._citrus_UTF8_stdenc_ops
                0xf805bed0       0x28 C:/GCC4/ARM/s002/lib/armv7aLaiv/libc.a(citrus_utf8.o)
                0xf805bed0                _citrus_UTF8_stdenc_ops
 .data          0xf805bef8        0x0 C:/GCC4/ARM/s002/lib/armv7aLaiv/libc.a(localeconv.o)
 .data          0xf805bef8        0x0 C:/GCC4/ARM/s002/lib/armv7aLaiv/libc.a(multibyte_amd1.o)
 .data          0xf805bef8        0x0 C:/GCC4/ARM/s002/lib/armv7aLaiv/libc.a(__isthreaded.o)
 .data          0xf805bef8        0x0 C:/GCC4/ARM/s002/lib/armv7aLaiv/libc.a(dtoa.o)
 .data          0xf805bef8        0x0 C:/GCC4/ARM/s002/lib/armv7aLaiv/libc.a(ldtoa.o)
 .data          0xf805bef8        0x0 C:/GCC4/ARM/s002/lib/armv7aLaiv/libc.a(hdtoa.o)
 .data          0xf805bef8        0x0 C:/GCC4/ARM/s002/lib/armv7aLaiv/libc.a(dmisc.o)
 .data          0xf805bef8        0x0 C:/GCC4/ARM/s002/lib/armv7aLaiv/libc.a(misc.o)
 .data.pmem_next
                0xf805bef8        0x4 C:/GCC4/ARM/s002/lib/armv7aLaiv/libc.a(misc.o)
 .data          0xf805befc        0x0 C:/GCC4/ARM/s002/lib/armv7aLaiv/libc.a(softfloat.o)
 .data          0xf805befc        0x0 C:/GCC4/ARM/s002/lib/armv7aLaiv/libc.a(__aeabi_dcmpeq.o)
 .data          0xf805befc        0x0 C:/GCC4/ARM/s002/lib/armv7aLaiv/libc.a(__aeabi_dcmpge.o)
 .data          0xf805befc        0x0 C:/GCC4/ARM/s002/lib/armv7aLaiv/libc.a(__aeabi_dcmpgt.o)
 .data          0xf805befc        0x0 C:/GCC4/ARM/s002/lib/armv7aLaiv/libc.a(__aeabi_dcmplt.o)
 .data          0xf805befc        0x0 C:/GCC4/ARM/s002/lib/armv7aLaiv/libc.a(rb.o)
 .data          0xf805befc        0x0 C:/GCC4/ARM/s002/lib/armv7aLaiv/libc.a(fflush.o)
 .data          0xf805befc        0x0 C:/GCC4/ARM/s002/lib/armv7aLaiv/libc.a(flockfile.o)
 .data          0xf805befc        0x0 C:/GCC4/ARM/s002/lib/armv7aLaiv/libc.a(fvwrite.o)
 .data          0xf805befc        0x0 C:/GCC4/ARM/s002/lib/armv7aLaiv/libc.a(fwalk.o)
 .data          0xf805befc        0x0 C:/GCC4/ARM/s002/lib/armv7aLaiv/libc.a(creat.o)
 .data          0xf805befc        0x0 C:/GCC4/ARM/s002/lib/armv7aLaiv/libc.a(fpclassifyd_ieee754.o)
 .data          0xf805befc        0x0 C:/GCC4/ARM/s002/lib/armv7aLaiv/libc.a(strcasecmp.o)
 .data          0xf805befc        0x0 C:/GCC4/ARM/s002/lib/armv7aLaiv/libc.a(gdtoa_locks.o)
 .data.__gdtoa_locks
                0xf805befc       0x38 C:/GCC4/ARM/s002/lib/armv7aLaiv/libc.a(gdtoa_locks.o)
                0xf805befc                __gdtoa_locks
 .data          0xf805bf34        0x0 C:/GCC4/ARM/s002/lib/armv7aLaiv/libgcc.a(_divsi3.o)
 .data          0xf805bf34        0x0 C:/GCC4/ARM/s002/lib/armv7aLaiv/libgcc.a(_arm_addsubdf3.o)
 .data          0xf805bf34        0x0 C:/GCC4/ARM/s002/lib/armv7aLaiv/libgcc.a(_aeabi_ldivmod.o)
 *(.gnu.linkonce.d.*)
                0xf805bf38                . = ALIGN (0x8)
 *fill*         0xf805bf34        0x4 
                [!provide]                PROVIDE (__start___llvm_prf_cnts, .)
 *(__llvm_prf_cnts)
                [!provide]                PROVIDE (__stop___llvm_prf_cnts, .)
                0xf805bf38                . = ALIGN (0x8)
                [!provide]                PROVIDE (__start___llvm_prf_data, .)
 *(__llvm_prf_data)
                [!provide]                PROVIDE (__stop___llvm_prf_data, .)
                0xf805bf38                _solid_data_end = .
                0x0005b000                _solid_data_offs = (_solid_data_start - _solid_start)
                0x00000f38                _solid_sata_size = (_solid_data_end - _solid_data_start)

.igot.plt       0xf805bf38        0x0
 .igot.plt      0xf805bf38        0x0 C:/Users/admin/Documents/SOLID-IDE/Projects/cpptest/Release/exeGCC_SOLID/cpptest/cpptest_all.o
                0xf805cf38                . = (. + 0x1000)

.args           0xf805d000      0x414
                0xf805d000                _solid_bss_start = .
                0xf805d000                _solid_args_start = .
 *(.args)
 .args          0xf805d000      0x414 C:/ProgramData/KMC/SOLID/SDK/2.0/solid-os/core/lib/armv7aLaiv/GR_\libsolid_cs.a(solid_cs_args.o)
                0xf805d000                solid_args
                0xf805d414                _solid_args_end = .

.bss            0xf805d420    0xaa65c
 *(.sbss .sbss.*)
 *(.bss .bss.*)
 .bss           0xf805d420    0x10000 C:/Users/admin/Documents/SOLID-IDE/Projects/cpptest/Release/exeGCC_SOLID/cpptest/cpptest_all.o
 .bss           0xf806d420        0x0 C:/ProgramData/KMC/SOLID/SDK/2.0/solid-os/core/lib/armv7aLaiv/GR_\libsolid_cs.a(solid_cs_asm.o)
 .bss           0xf806d420        0x4 C:/ProgramData/KMC/SOLID/SDK/2.0/solid-os/core/lib/armv7aLaiv/GR_\libsolid_cs.a(solid_cs_main.o)
                0xf806d420                __dso_handle
 .bss           0xf806d424        0x0 C:/ProgramData/KMC/SOLID/SDK/2.0/solid-os/core/lib/armv7aLaiv/GR_\libsolid_cs.a(kmc_trace_mem_dummy.o)
 .bss           0xf806d424      0x404 C:/ProgramData/KMC/SOLID/SDK/2.0/solid-os/core/lib/armv7aLaiv/GR_\libsolid_cs.a(solid_cs_event.o)
 .bss           0xf806d828        0x0 C:/ProgramData/KMC/SOLID/SDK/2.0/solid-os/core/lib/armv7aLaiv/GR_\libsolid_cs.a(solid_debugger.o)
 .bss           0xf806d828       0x14 C:/ProgramData/KMC/SOLID/SDK/2.0/solid-os/core/lib/armv7aLaiv/GR_\libsolid_cs.a(solid_dmac.o)
                0xf806d828                _ZN3kmg5solid4dmac10controllerE
 .bss           0xf806d83c        0x4 C:/ProgramData/KMC/SOLID/SDK/2.0/solid-os/core/lib/armv7aLaiv/GR_\libsolid_cs.a(solid_exception.o)
 .bss           0xf806d840     0x4160 C:/ProgramData/KMC/SOLID/SDK/2.0/solid-os/core/lib/armv7aLaiv/GR_\libsolid_cs.a(solid_fs_base.o)
                0xf806d840                _ZN5solid2fs13sysfs_HandlerE
                0xf806d99c                _ZN5solid2fs7filesysE
                0xf806d9a0                _ZN5solid2fs11descstockerE
 .bss           0xf80719a0      0x15c C:/ProgramData/KMC/SOLID/SDK/2.0/solid-os/core/lib/armv7aLaiv/GR_\libsolid_cs.a(solid_fs_mem.o)
 .bss           0xf8071afc      0x15c C:/ProgramData/KMC/SOLID/SDK/2.0/solid-os/core/lib/armv7aLaiv/GR_\libsolid_cs.a(solid_fs_vlink.o)
 .bss           0xf8071c58     0x1020 C:/ProgramData/KMC/SOLID/SDK/2.0/solid-os/core/lib/armv7aLaiv/GR_\libsolid_cs.a(solid_intc.o)
                0xf8071c58                _ZN3kmg5solid4intcE
 .bss           0xf8072c78     0x284c C:/ProgramData/KMC/SOLID/SDK/2.0/solid-os/core/lib/armv7aLaiv/GR_\libsolid_cs.a(solid_iores.o)
                0xf8072c78                _ZN3kmg5solid5iores5iomgrE
 .bss           0xf80754c4      0x10c C:/ProgramData/KMC/SOLID/SDK/2.0/solid-os/core/lib/armv7aLaiv/GR_\libsolid_cs.a(solid_loader.o)
                0xf80754c8                _ZN3kmg5solid3elf9symbolmgrE
                0xf80755c8                _ZN3kmg5solid3elf7loadmgrE
 .bss           0xf80755d0        0x0 C:/ProgramData/KMC/SOLID/SDK/2.0/solid-os/core/lib/armv7aLaiv/GR_\libsolid_cs.a(solid_loader_fixed.o)
 .bss           0xf80755d0        0x8 C:/ProgramData/KMC/SOLID/SDK/2.0/solid-os/core/lib/armv7aLaiv/GR_\libsolid_cs.a(solid_log.o)
 .bss           0xf80755d8        0x4 C:/ProgramData/KMC/SOLID/SDK/2.0/solid-os/core/lib/armv7aLaiv/GR_\libsolid_cs.a(solid_malloc.o)
 .bss           0xf80755dc     0xd220 C:/ProgramData/KMC/SOLID/SDK/2.0/solid-os/core/lib/armv7aLaiv/GR_\libsolid_cs.a(solid_mem.o)
                0xf80755dc                _ZN3kmg5solid5cacheE
                0xf8075694                _ZN3kmg5solid3mmuE
                0xf80758a4                _ZN3kmg5solid6memmgrE
                0xf80788b4                _ZN3kmg5solid6memmapE
                0xf80797c4                _ZN3kmg5solid5iomgrE
                0xf807c7d4                _ZN3kmg5solid8stackmgrE
                0xf807f7ec                _ZN3kmg5solid7heapmgrE
 .bss           0xf80827fc        0x0 C:/ProgramData/KMC/SOLID/SDK/2.0/solid-os/core/lib/armv7aLaiv/GR_\libsolid_cs.a(solid_mem_cache.o)
 .bss           0xf80827fc        0x0 C:/ProgramData/KMC/SOLID/SDK/2.0/solid-os/core/lib/armv7aLaiv/GR_\libsolid_cs.a(solid_mutex.o)
 .bss           0xf80827fc        0x0 C:/ProgramData/KMC/SOLID/SDK/2.0/solid-os/core/lib/armv7aLaiv/GR_\libsolid_cs.a(solid_rtc.o)
 *fill*         0xf80827fc        0x4 
 .bss           0xf8082800       0x60 C:/ProgramData/KMC/SOLID/SDK/2.0/solid-os/core/lib/armv7aLaiv/GR_\libsolid_cs.a(solid_timer.o)
                0xf8082800                _ZN3kmg5solid2tcE
                0xf8082820                _ZN3kmg5solid5timerE
 .bss           0xf8082860       0x28 C:/ProgramData/KMC/SOLID/SDK/2.0/solid-os/core/lib/armv7aLaiv/GR_\libsolid_cs.a(solid_vector.o)
 .bss           0xf8082888        0x8 C:/ProgramData/KMC/SOLID/SDK/2.0/solid-os/core/lib/armv7aLaiv/GR_\libsolid_cs.a(solid_vlink.o)
 .bss           0xf8082890        0x0 C:/ProgramData/KMC/SOLID/SDK/2.0/solid-os/core/lib/armv7aLaiv/GR_\libsolid_cs.a(solid_mem_mmu.o)
 .bss           0xf8082890        0x4 C:/ProgramData/KMC/SOLID/SDK/2.0/solid-os/core/lib/armv7aLaiv/GR_\libsolid_cs.a(kmc_evttracker_core.o)
 .bss           0xf8082894       0x18 C:/ProgramData/KMC/SOLID/SDK/2.0/solid-os/core/lib/armv7aLaiv/GR_\libsolid_cs.a(dlmalloc.o)
 .bss           0xf80828ac        0x0 C:/ProgramData/KMC/SOLID/SDK/2.0/solid-os/core/lib/armv7aLaiv/GR_\libsolid_cs.a(solid_asan.o)
 .bss           0xf80828ac        0x0 C:/ProgramData/KMC/SOLID/SDK/2.0/solid-os/core/lib/armv7aLaiv/GR_\libsolid_cs.a(solid_cs_args.o)
 .bss           0xf80828ac        0x0 C:/ProgramData/KMC/SOLID/SDK/2.0/solid-os/core/lib/armv7aLaiv/GR_\libsolid_cs.a(tasan.o)
 .bss           0xf80828ac       0x58 C:/Users/admin/Documents/SOLID-IDE/Projects/cpptest/Release/exeGCC_SOLID/\libnet.a(sys_arch.o)
 .bss           0xf8082904        0xc C:/Users/admin/Documents/SOLID-IDE/Projects/cpptest/Release/exeGCC_SOLID/\libnet.a(tcpip.o)
 .bss           0xf8082910        0x0 C:/Users/admin/Documents/SOLID-IDE/Projects/cpptest/Release/exeGCC_SOLID/\libnet.a(init.o)
 .bss           0xf8082910        0x2 C:/Users/admin/Documents/SOLID-IDE/Projects/cpptest/Release/exeGCC_SOLID/\libnet.a(ip4.o)
 *fill*         0xf8082912        0x2 
 .bss           0xf8082914       0x10 C:/Users/admin/Documents/SOLID-IDE/Projects/cpptest/Release/exeGCC_SOLID/\libnet.a(ip4_addr.o)
 .bss           0xf8082924        0x6 C:/Users/admin/Documents/SOLID-IDE/Projects/cpptest/Release/exeGCC_SOLID/\libnet.a(ip4_frag.o)
 *fill*         0xf808292a        0x2 
 .bss           0xf808292c       0x10 C:/Users/admin/Documents/SOLID-IDE/Projects/cpptest/Release/exeGCC_SOLID/\libnet.a(mem.o)
 .bss           0xf808293c      0x118 C:/Users/admin/Documents/SOLID-IDE/Projects/cpptest/Release/exeGCC_SOLID/\libnet.a(memp.o)
 .bss           0xf8082a54        0x1 C:/Users/admin/Documents/SOLID-IDE/Projects/cpptest/Release/exeGCC_SOLID/\libnet.a(netif.o)
 .bss           0xf8082a55        0x0 C:/Users/admin/Documents/SOLID-IDE/Projects/cpptest/Release/exeGCC_SOLID/\libnet.a(pbuf.o)
 .bss           0xf8082a55        0x0 C:/Users/admin/Documents/SOLID-IDE/Projects/cpptest/Release/exeGCC_SOLID/\libnet.a(stats.o)
 .bss           0xf8082a55        0x2 C:/Users/admin/Documents/SOLID-IDE/Projects/cpptest/Release/exeGCC_SOLID/\libnet.a(tcp.o)
 *fill*         0xf8082a57        0x1 
 .bss           0xf8082a58       0x3e C:/Users/admin/Documents/SOLID-IDE/Projects/cpptest/Release/exeGCC_SOLID/\libnet.a(tcp_in.o)
 .bss           0xf8082a96        0x0 C:/Users/admin/Documents/SOLID-IDE/Projects/cpptest/Release/exeGCC_SOLID/\libnet.a(tcp_out.o)
 *fill*         0xf8082a96        0x2 
 .bss           0xf8082a98        0xc C:/Users/admin/Documents/SOLID-IDE/Projects/cpptest/Release/exeGCC_SOLID/\libnet.a(timeouts.o)
 .bss           0xf8082aa4        0x0 C:/Users/admin/Documents/SOLID-IDE/Projects/cpptest/Release/exeGCC_SOLID/\libnet.a(udp.o)
 .bss           0xf8082aa4        0x0 C:/Users/admin/Documents/SOLID-IDE/Projects/cpptest/Release/exeGCC_SOLID/\libnet.a(ethernet.o)
 .bss           0xf8082aa4       0x10 C:/Users/admin/Documents/SOLID-IDE/Projects/cpptest/Release/exeGCC_SOLID/\libnet.a(solid_net_if.o)
                0xf8082ab0                pb_ops
 .bss           0xf8082ab4        0x0 C:/Users/admin/Documents/SOLID-IDE/Projects/cpptest/Release/exeGCC_SOLID/\libnet.a(solid_net_registerapi.o)
 .bss           0xf8082ab4        0x4 C:/Users/admin/Documents/SOLID-IDE/Projects/cpptest/Release/exeGCC_SOLID/\libnet.a(impl_net_stack.o)
                0xf8082ab4                _netif
 .bss           0xf8082ab8        0x0 C:/Users/admin/Documents/SOLID-IDE/Projects/cpptest/Release/exeGCC_SOLID/\libnet.a(ethernetif.o)
 .bss           0xf8082ab8        0x0 C:/Users/admin/Documents/SOLID-IDE/Projects/cpptest/Release/exeGCC_SOLID/\libnet.a(api_lib.o)
 .bss           0xf8082ab8        0x0 C:/Users/admin/Documents/SOLID-IDE/Projects/cpptest/Release/exeGCC_SOLID/\libnet.a(api_msg.o)
 .bss           0xf8082ab8        0x0 C:/Users/admin/Documents/SOLID-IDE/Projects/cpptest/Release/exeGCC_SOLID/\libnet.a(netbuf.o)
 .bss           0xf8082ab8      0x128 C:/Users/admin/Documents/SOLID-IDE/Projects/cpptest/Release/exeGCC_SOLID/\libnet.a(netdb.o)
 .bss           0xf8082be0       0x58 C:/Users/admin/Documents/SOLID-IDE/Projects/cpptest/Release/exeGCC_SOLID/\libnet.a(sockets.o)
 .bss           0xf8082c38        0x0 C:/Users/admin/Documents/SOLID-IDE/Projects/cpptest/Release/exeGCC_SOLID/\libnet.a(def.o)
 .bss           0xf8082c38      0x48a C:/Users/admin/Documents/SOLID-IDE/Projects/cpptest/Release/exeGCC_SOLID/\libnet.a(dns.o)
 .bss           0xf80830c2        0x0 C:/Users/admin/Documents/SOLID-IDE/Projects/cpptest/Release/exeGCC_SOLID/\libnet.a(inet_chksum.o)
 .bss           0xf80830c2        0x0 C:/Users/admin/Documents/SOLID-IDE/Projects/cpptest/Release/exeGCC_SOLID/\libnet.a(ip.o)
 *fill*         0xf80830c2        0x2 
 .bss           0xf80830c4        0x9 C:/Users/admin/Documents/SOLID-IDE/Projects/cpptest/Release/exeGCC_SOLID/\libnet.a(dhcp.o)
 *fill*         0xf80830cd        0x3 
 .bss           0xf80830d0       0xf1 C:/Users/admin/Documents/SOLID-IDE/Projects/cpptest/Release/exeGCC_SOLID/\libnet.a(etharp.o)
 .bss           0xf80831c1        0x0 C:/Users/admin/Documents/SOLID-IDE/Projects/cpptest/Release/exeGCC_SOLID/\libnet.a(icmp.o)
 .bss           0xf80831c1        0x0 C:/Users/admin/Documents/SOLID-IDE/Projects/cpptest/Release/exeGCC_SOLID/\libnet.a(impl_net_stack_errno.o)
 .bss           0xf80831c1        0x0 C:/Users/admin/Documents/SOLID-IDE/Projects/cpptest/Release/exeGCC_SOLID/\libnet.a(err.o)
 .bss           0xf80831c1        0x0 C:/ProgramData/KMC/SOLID/SDK/2.0/solid-os/rtos/toppers_asp3/lib/armv7aLaiv/GR__\libkernel.a(dataqueue.o)
 .bss           0xf80831c1        0x0 C:/ProgramData/KMC/SOLID/SDK/2.0/solid-os/rtos/toppers_asp3/lib/armv7aLaiv/GR__\libkernel.a(interrupt.o)
 *fill*         0xf80831c1        0x3 
 .bss           0xf80831c4      0x418 C:/ProgramData/KMC/SOLID/SDK/2.0/solid-os/rtos/toppers_asp3/lib/armv7aLaiv/GR__\libkernel.a(tSysLog.o)
 .bss           0xf80835dc        0x0 C:/ProgramData/KMC/SOLID/SDK/2.0/solid-os/rtos/toppers_asp3/lib/armv7aLaiv/GR__\libkernel.a(vasyslog.o)
 .bss           0xf80835dc        0x0 C:/ProgramData/KMC/SOLID/SDK/2.0/solid-os/rtos/toppers_asp3/lib/armv7aLaiv/GR__\libkernel.a(semaphore.o)
 .bss           0xf80835dc        0x8 C:/ProgramData/KMC/SOLID/SDK/2.0/solid-os/rtos/toppers_asp3/lib/armv7aLaiv/GR__\libkernel.a(startup.o)
                0xf80835e0                _kernel_kerflg
 .bss           0xf80835e4        0x0 C:/ProgramData/KMC/SOLID/SDK/2.0/solid-os/rtos/toppers_asp3/lib/armv7aLaiv/GR__\libkernel.a(sys_manage.o)
 .bss           0xf80835e4        0x0 C:/ProgramData/KMC/SOLID/SDK/2.0/solid-os/rtos/toppers_asp3/lib/armv7aLaiv/GR__\libkernel.a(task.o)
 .bss           0xf80835e4        0xc C:/ProgramData/KMC/SOLID/SDK/2.0/solid-os/rtos/toppers_asp3/lib/armv7aLaiv/GR__\libkernel.a(taskhook.o)
                0xf80835e4                _kernel_mtxhook_release_all
                0xf80835e8                _kernel_mtxhook_scan_ceilmtx
                0xf80835ec                _kernel_mtxhook_check_ceilpri
 .bss           0xf80835f0        0x0 C:/ProgramData/KMC/SOLID/SDK/2.0/solid-os/rtos/toppers_asp3/lib/armv7aLaiv/GR__\libkernel.a(task_manage.o)
 .bss           0xf80835f0        0x8 C:/ProgramData/KMC/SOLID/SDK/2.0/solid-os/rtos/toppers_asp3/lib/armv7aLaiv/GR__\libkernel.a(time_event.o)
 .bss           0xf80835f8        0x0 C:/ProgramData/KMC/SOLID/SDK/2.0/solid-os/rtos/toppers_asp3/lib/armv7aLaiv/GR__\libkernel.a(wait.o)
 .bss           0xf80835f8        0x0 C:/ProgramData/KMC/SOLID/SDK/2.0/solid-os/rtos/toppers_asp3/lib/armv7aLaiv/GR__\libkernel.a(solid_rtos_registerapi.o)
 .bss           0xf80835f8        0x0 C:/ProgramData/KMC/SOLID/SDK/2.0/solid-os/rtos/toppers_asp3/lib/armv7aLaiv/GR__\libkernel.a(target_fput_log.o)
 .bss           0xf80835f8       0x24 C:/ProgramData/KMC/SOLID/SDK/2.0/solid-os/rtos/toppers_asp3/lib/armv7aLaiv/GR__\libkernel.a(target_intc_impl.o)
                0xf80835f8                __TMIN_INTNO__
                0xf80835fc                __TMAX_INTNO__
 *fill*         0xf808361c        0x4 
 .bss           0xf8083620       0x20 C:/ProgramData/KMC/SOLID/SDK/2.0/solid-os/rtos/toppers_asp3/lib/armv7aLaiv/GR__\libkernel.a(target_timer_impl.o)
 .bss           0xf8083640        0x0 C:/ProgramData/KMC/SOLID/SDK/2.0/solid-os/rtos/toppers_asp3/lib/armv7aLaiv/GR__\libkernel.a(kmc_evttracker_rtos.o)
 .bss           0xf8083640        0x4 C:/ProgramData/KMC/SOLID/SDK/2.0/solid-os/rtos/toppers_asp3/lib/armv7aLaiv/GR__\libkernel.a(rtos_prof.o)
 .bss           0xf8083644        0x0 C:/ProgramData/KMC/SOLID/SDK/2.0/solid-os/rtos/toppers_asp3/lib/armv7aLaiv/GR__\libkernel.a(core_support.o)
 *fill*         0xf8083644        0x4 
 .bss           0xf8083648     0x2000 C:/ProgramData/KMC/SOLID/SDK/2.0/solid-os/rtos/toppers_asp3/lib/armv7aLaiv/GR__\libkernel.a(kernel_cfg_intl.o)
 .bss           0xf8085648        0x0 C:/ProgramData/KMC/SOLID/SDK/2.0/solid-os/rtos/toppers_asp3/lib/armv7aLaiv/GR__\libkernel.a(alarm.o)
 .bss           0xf8085648        0x0 C:/ProgramData/KMC/SOLID/SDK/2.0/solid-os/rtos/toppers_asp3/lib/armv7aLaiv/GR__\libkernel.a(core_kernel_impl.o)
 .bss           0xf8085648        0x0 C:/ProgramData/KMC/SOLID/SDK/2.0/solid-os/rtos/toppers_asp3/lib/armv7aLaiv/GR__\libkernel.a(cyclic.o)
 .bss           0xf8085648        0x0 C:/ProgramData/KMC/SOLID/SDK/2.0/solid-os/rtos/toppers_asp3/lib/armv7aLaiv/GR__\libkernel.a(eventflag.o)
 .bss           0xf8085648        0x0 C:/ProgramData/KMC/SOLID/SDK/2.0/solid-os/rtos/toppers_asp3/lib/armv7aLaiv/GR__\libkernel.a(exception.o)
 .bss           0xf8085648        0x0 C:/ProgramData/KMC/SOLID/SDK/2.0/solid-os/rtos/toppers_asp3/lib/armv7aLaiv/GR__\libkernel.a(mempfix.o)
 .bss           0xf8085648        0x0 C:/ProgramData/KMC/SOLID/SDK/2.0/solid-os/rtos/toppers_asp3/lib/armv7aLaiv/GR__\libkernel.a(log_output.o)
 .bss           0xf8085648        0x0 C:/ProgramData/KMC/SOLID/SDK/2.0/solid-os/rtos/toppers_asp3/lib/armv7aLaiv/GR__\libkernel.a(mutex.o)
 .bss           0xf8085648        0x0 C:/ProgramData/KMC/SOLID/SDK/2.0/solid-os/rtos/toppers_asp3/lib/armv7aLaiv/GR__\libkernel.a(pridataq.o)
 .bss           0xf8085648        0x0 C:/ProgramData/KMC/SOLID/SDK/2.0/solid-os/rtos/toppers_asp3/lib/armv7aLaiv/GR__\libkernel.a(task_refer.o)
 .bss           0xf8085648        0x0 C:/ProgramData/KMC/SOLID/SDK/2.0/solid-os/rtos/toppers_asp3/lib/armv7aLaiv/GR__\libkernel.a(task_sync.o)
 .bss           0xf8085648        0x0 C:/ProgramData/KMC/SOLID/SDK/2.0/solid-os/rtos/toppers_asp3/lib/armv7aLaiv/GR__\libkernel.a(task_term.o)
 .bss           0xf8085648        0x0 C:/ProgramData/KMC/SOLID/SDK/2.0/solid-os/rtos/toppers_asp3/lib/armv7aLaiv/GR__\libkernel.a(time_manage.o)
 .bss           0xf8085648        0x0 C:/Users/admin/Documents/SOLID-IDE/Projects/cpptest/Release/exeGCC_SOLID/\libbsp.a(impl_cs_event.o)
 .bss           0xf8085648      0x154 C:/Users/admin/Documents/SOLID-IDE/Projects/cpptest/Release/exeGCC_SOLID/\libbsp.a(impl_dmac.o)
 .bss           0xf808579c        0x0 C:/Users/admin/Documents/SOLID-IDE/Projects/cpptest/Release/exeGCC_SOLID/\libbsp.a(impl_iores.o)
 .bss           0xf808579c        0x4 C:/Users/admin/Documents/SOLID-IDE/Projects/cpptest/Release/exeGCC_SOLID/\libbsp.a(impl_log.o)
 .bss           0xf80857a0     0x964c C:/Users/admin/Documents/SOLID-IDE/Projects/cpptest/Release/exeGCC_SOLID/\libbsp.a(impl_net_dev_ether.o)
                0xf808ed5c                pa_rx_desc_top
                0xf808ed60                pa_rx_desc_tail
                0xf808ede4                pa_tx_desc_top
                0xf808ede8                pa_tx_desc_tail
 .bss           0xf808edec        0xe C:/Users/admin/Documents/SOLID-IDE/Projects/cpptest/Release/exeGCC_SOLID/\libbsp.a(impl_net_dev_get_macaddr.o)
 .bss           0xf808edfa        0x0 C:/Users/admin/Documents/SOLID-IDE/Projects/cpptest/Release/exeGCC_SOLID/\libbsp.a(impl_net_dev_getconfig.o)
 .bss           0xf808edfa        0x0 C:/Users/admin/Documents/SOLID-IDE/Projects/cpptest/Release/exeGCC_SOLID/\libbsp.a(impl_rtc.o)
 *fill*         0xf808edfa        0x2 
 .bss           0xf808edfc       0x18 C:/Users/admin/Documents/SOLID-IDE/Projects/cpptest/Release/exeGCC_SOLID/\libbsp.a(impl_timer.o)
 .bss           0xf808ee14        0x0 C:/Users/admin/Documents/SOLID-IDE/Projects/cpptest/Release/exeGCC_SOLID/\libbsp.a(rtc.o)
 .bss           0xf808ee14        0x0 C:/Users/admin/Documents/SOLID-IDE/Projects/cpptest/Release/exeGCC_SOLID/\libbsp.a(rtc_userdef.o)
 .bss           0xf808ee14        0x0 C:/Users/admin/Documents/SOLID-IDE/Projects/cpptest/Release/exeGCC_SOLID/\libbsp.a(bsp_globals.o)
 .bss           0xf808ee14        0x0 C:/Users/admin/Documents/SOLID-IDE/Projects/cpptest/Release/exeGCC_SOLID/\libbsp.a(rza_io_regrw.o)
 .bss           0xf808ee14        0x0 C:/GCC4/ARM/s002/lib/armv7aLaiv\libstdc++.a(class_type_info.o)
 .bss           0xf808ee14        0x0 C:/GCC4/ARM/s002/lib/armv7aLaiv\libstdc++.a(atexit_arm.o)
 .bss           0xf808ee14        0x0 C:/GCC4/ARM/s002/lib/armv7aLaiv\libstdc++.a(del_ops.o)
 .bss           0xf808ee14        0x0 C:/GCC4/ARM/s002/lib/armv7aLaiv\libstdc++.a(si_class_type_info.o)
 .bss           0xf808ee14        0x0 C:/GCC4/ARM/s002/lib/armv7aLaiv\libstdc++.a(del_op.o)
 .bss           0xf808ee14        0x0 C:/GCC4/ARM/s002/lib/armv7aLaiv\libstdc++.a(tinfo.o)
 .bss           0xf808ee14        0x0 C:/GCC4/ARM/s002/lib/armv7aLaiv/libgcc.a(_udivsi3.o)
 .bss           0xf808ee14        0x0 C:/GCC4/ARM/s002/lib/armv7aLaiv/libgcc.a(_dvmd_tls.o)
 .bss           0xf808ee14        0x0 C:/GCC4/ARM/s002/lib/armv7aLaiv/libgcc.a(_aeabi_uldivmod.o)
 .bss           0xf808ee14        0x0 C:/GCC4/ARM/s002/lib/armv7aLaiv/libgcc.a(_udivmoddi4.o)
 .bss           0xf808ee14        0x0 C:/GCC4/ARM/s002/lib/armv7aLaiv/libgcc.a(unwind-arm.o)
 .bss           0xf808ee14        0x0 C:/GCC4/ARM/s002/lib/armv7aLaiv/libgcc.a(libunwind.o)
 .bss           0xf808ee14        0x0 C:/GCC4/ARM/s002/lib/armv7aLaiv/libgcc.a(pr-support.o)
 .bss           0xf808ee14        0x0 C:/GCC4/ARM/s002/lib/armv7aLaiv/libc.a(_m_init.o)
 .bss._mspace   0xf808ee14        0x4 C:/GCC4/ARM/s002/lib/armv7aLaiv/libc.a(_m_init.o)
 .bss.libc_initialized
                0xf808ee18        0x4 C:/GCC4/ARM/s002/lib/armv7aLaiv/libc.a(_m_init.o)
 .bss.malloc_initialized
                0xf808ee1c        0x4 C:/GCC4/ARM/s002/lib/armv7aLaiv/libc.a(_m_init.o)
 .bss           0xf808ee20        0x0 C:/GCC4/ARM/s002/lib/armv7aLaiv/libc.a(abort.o)
 .bss           0xf808ee20        0x0 C:/GCC4/ARM/s002/lib/armv7aLaiv/libc.a(errno.o)
 .bss           0xf808ee20        0x0 C:/GCC4/ARM/s002/lib/armv7aLaiv/libc.a(atoi.o)
 .bss           0xf808ee20        0x0 C:/GCC4/ARM/s002/lib/armv7aLaiv/libc.a(rand.o)
 .bss           0xf808ee20        0x0 C:/GCC4/ARM/s002/lib/armv7aLaiv/libc.a(strtol.o)
 .bss           0xf808ee20        0x0 C:/GCC4/ARM/s002/lib/armv7aLaiv/libc.a(strtoul.o)
 .bss           0xf808ee20        0x0 C:/GCC4/ARM/s002/lib/armv7aLaiv/libc.a(atexit.o)
 .bss.atexit_handler0
                0xf808ee20      0x230 C:/GCC4/ARM/s002/lib/armv7aLaiv/libc.a(atexit.o)
 .bss.atexit_handler_stack
                0xf808f050        0x4 C:/GCC4/ARM/s002/lib/armv7aLaiv/libc.a(atexit.o)
 .bss.call_depth.5626
                0xf808f054        0x4 C:/GCC4/ARM/s002/lib/armv7aLaiv/libc.a(atexit.o)
 .bss           0xf808f058        0x0 C:/GCC4/ARM/s002/lib/armv7aLaiv/libc.a(memcmp.o)
 .bss           0xf808f058        0x0 C:/GCC4/ARM/s002/lib/armv7aLaiv/libc.a(memcpy.o)
 .bss           0xf808f058        0x0 C:/GCC4/ARM/s002/lib/armv7aLaiv/libc.a(memset.o)
 .bss           0xf808f058        0x0 C:/GCC4/ARM/s002/lib/armv7aLaiv/libc.a(strncpy.o)
 .bss           0xf808f058        0x0 C:/GCC4/ARM/s002/lib/armv7aLaiv/libc.a(strcmp.o)
 .bss           0xf808f058        0x0 C:/GCC4/ARM/s002/lib/armv7aLaiv/libc.a(strncmp.o)
 .bss           0xf808f058        0x0 C:/GCC4/ARM/s002/lib/armv7aLaiv/libc.a(strlen.o)
 .bss           0xf808f058        0x0 C:/GCC4/ARM/s002/lib/armv7aLaiv/libc.a(isctype.o)
 .bss           0xf808f058        0x0 C:/GCC4/ARM/s002/lib/armv7aLaiv/libc.a(global_locale.o)
 .bss           0xf808f058        0x0 C:/GCC4/ARM/s002/lib/armv7aLaiv/libc.a(runetable.o)
 .bss           0xf808f058        0x0 C:/GCC4/ARM/s002/lib/armv7aLaiv/libc.a(thread-stub-init.o)
 .bss           0xf808f058        0x0 C:/GCC4/ARM/s002/lib/armv7aLaiv/libc.a(thread-stub.o)
 .bss.__libc_tsd
                0xf808f058      0x300 C:/GCC4/ARM/s002/lib/armv7aLaiv/libc.a(thread-stub.o)
 .bss.__libc_tsd_nextkey
                0xf808f358        0x4 C:/GCC4/ARM/s002/lib/armv7aLaiv/libc.a(thread-stub.o)
 .bss           0xf808f35c        0x0 C:/GCC4/ARM/s002/lib/armv7aLaiv/libc.a(ssp_init.o)
 .bss.__stack_chk_guard
                0xf808f35c        0x4 C:/GCC4/ARM/s002/lib/armv7aLaiv/libc.a(ssp_init.o)
                0xf808f35c                __stack_chk_guard
 .bss           0xf808f360        0x0 C:/GCC4/ARM/s002/lib/armv7aLaiv/libc.a(findfp.o)
 .bss.empty.6946
                0xf808f360       0x58 C:/GCC4/ARM/s002/lib/armv7aLaiv/libc.a(findfp.o)
 .bss.usual     0xf808f3b8      0x5d8 C:/GCC4/ARM/s002/lib/armv7aLaiv/libc.a(findfp.o)
 .bss.usualext  0xf808f990     0x17e8 C:/GCC4/ARM/s002/lib/armv7aLaiv/libc.a(findfp.o)
 .bss           0xf8091178        0x0 C:/GCC4/ARM/s002/lib/armv7aLaiv/libc.a(fprintf.o)
 .bss           0xf8091178        0x0 C:/GCC4/ARM/s002/lib/armv7aLaiv/libc.a(stdio.o)
 .bss           0xf8091178        0x0 C:/GCC4/ARM/s002/lib/armv7aLaiv/libc.a(vfprintf.o)
 .bss.initial.7357
                0xf8091178       0x80 C:/GCC4/ARM/s002/lib/armv7aLaiv/libc.a(vfprintf.o)
 .bss           0xf80911f8        0x0 C:/GCC4/ARM/s002/lib/armv7aLaiv/libc.a(vsnprintf.o)
 .bss           0xf80911f8        0x0 C:/GCC4/ARM/s002/lib/armv7aLaiv/libc.a(wsetup.o)
 .bss           0xf80911f8        0x0 C:/GCC4/ARM/s002/lib/armv7aLaiv/libc.a(makebuf.o)
 .bss           0xf80911f8        0x0 C:/GCC4/ARM/s002/lib/armv7aLaiv/libc.a(close.o)
 .bss           0xf80911f8        0x0 C:/GCC4/ARM/s002/lib/armv7aLaiv/libc.a(fstat.o)
 .bss           0xf80911f8        0x0 C:/GCC4/ARM/s002/lib/armv7aLaiv/libc.a(lseek.o)
 .bss           0xf80911f8        0x0 C:/GCC4/ARM/s002/lib/armv7aLaiv/libc.a(open.o)
 .bss           0xf80911f8        0x0 C:/GCC4/ARM/s002/lib/armv7aLaiv/libc.a(osemu.o)
 .bss.ffblkp    0xf80911f8        0x4 C:/GCC4/ARM/s002/lib/armv7aLaiv/libc.a(osemu.o)
 .bss.vlink_not_use_osemu
                0xf80911fc        0x4 C:/GCC4/ARM/s002/lib/armv7aLaiv/libc.a(osemu.o)
 .bss           0xf8091200        0x0 C:/GCC4/ARM/s002/lib/armv7aLaiv/libc.a(read.o)
 .bss           0xf8091200        0x0 C:/GCC4/ARM/s002/lib/armv7aLaiv/libc.a(u2dname.o)
 .bss           0xf8091200        0x0 C:/GCC4/ARM/s002/lib/armv7aLaiv/libc.a(utime.o)
 .bss           0xf8091200        0x0 C:/GCC4/ARM/s002/lib/armv7aLaiv/libc.a(write.o)
 .bss           0xf8091200        0x0 C:/GCC4/ARM/s002/lib/armv7aLaiv/libc.a(_env.o)
 .bss.allocated_environ
                0xf8091200        0x4 C:/GCC4/ARM/s002/lib/armv7aLaiv/libc.a(_env.o)
 .bss.allocated_environ_size
                0xf8091204        0x4 C:/GCC4/ARM/s002/lib/armv7aLaiv/libc.a(_env.o)
 .bss.env_tree  0xf8091208       0x10 C:/GCC4/ARM/s002/lib/armv7aLaiv/libc.a(_env.o)
 .bss.marker.6074
                0xf8091218        0x1 C:/GCC4/ARM/s002/lib/armv7aLaiv/libc.a(_env.o)
 .bss           0xf8091219        0x0 C:/GCC4/ARM/s002/lib/armv7aLaiv/libc.a(exit.o)
 *fill*         0xf8091219        0x3 
 .bss.__exiting
                0xf809121c        0x4 C:/GCC4/ARM/s002/lib/armv7aLaiv/libc.a(exit.o)
 .bss           0xf8091220        0x0 C:/GCC4/ARM/s002/lib/armv7aLaiv/libc.a(signal.o)
 .bss           0xf8091220        0x0 C:/GCC4/ARM/s002/lib/armv7aLaiv/libc.a(localtime.o)
 .bss.time.5089
                0xf8091220       0x2c C:/GCC4/ARM/s002/lib/armv7aLaiv/libc.a(localtime.o)
 .bss           0xf809124c        0x0 C:/GCC4/ARM/s002/lib/armv7aLaiv/libc.a(lldiv.o)
 .bss           0xf809124c        0x0 C:/GCC4/ARM/s002/lib/armv7aLaiv/libc.a(memchr.o)
 .bss           0xf809124c        0x0 C:/GCC4/ARM/s002/lib/armv7aLaiv/libc.a(strcspn.o)
 .bss           0xf809124c        0x0 C:/GCC4/ARM/s002/lib/armv7aLaiv/libc.a(strncasecmp.o)
 .bss           0xf809124c        0x0 C:/GCC4/ARM/s002/lib/armv7aLaiv/libc.a(strdup.o)
 .bss           0xf809124c        0x0 C:/GCC4/ARM/s002/lib/armv7aLaiv/libc.a(ctype_.o)
 .bss           0xf809124c        0x0 C:/GCC4/ARM/s002/lib/armv7aLaiv/libc.a(toupper_.o)
 .bss           0xf809124c        0x0 C:/GCC4/ARM/s002/lib/armv7aLaiv/libc.a(tolower_.o)
 .bss           0xf809124c        0x0 C:/GCC4/ARM/s002/lib/armv7aLaiv/libc.a(citrus_ctype.o)
 .bss.mskanji_initialized
                0xf809124c        0x4 C:/GCC4/ARM/s002/lib/armv7aLaiv/libc.a(citrus_ctype.o)
 .bss.utf8_initialized
                0xf8091250        0x4 C:/GCC4/ARM/s002/lib/armv7aLaiv/libc.a(citrus_ctype.o)
 .bss           0xf8091254        0x0 C:/GCC4/ARM/s002/lib/armv7aLaiv/libc.a(citrus_none.o)
 .bss           0xf8091254        0x0 C:/GCC4/ARM/s002/lib/armv7aLaiv/libc.a(citrus_mskanji.o)
 .bss           0xf8091254        0x0 C:/GCC4/ARM/s002/lib/armv7aLaiv/libc.a(citrus_utf8.o)
 .bss._UTF8_count
                0xf8091254        0x4 C:/GCC4/ARM/s002/lib/armv7aLaiv/libc.a(citrus_utf8.o)
 .bss._UTF8_count_array
                0xf8091258      0x400 C:/GCC4/ARM/s002/lib/armv7aLaiv/libc.a(citrus_utf8.o)
 .bss           0xf8091658        0x0 C:/GCC4/ARM/s002/lib/armv7aLaiv/libc.a(localeconv.o)
 .bss           0xf8091658        0x0 C:/GCC4/ARM/s002/lib/armv7aLaiv/libc.a(multibyte_amd1.o)
 .bss           0xf8091658        0x0 C:/GCC4/ARM/s002/lib/armv7aLaiv/libc.a(__isthreaded.o)
 .bss.__isthreaded
                0xf8091658        0x4 C:/GCC4/ARM/s002/lib/armv7aLaiv/libc.a(__isthreaded.o)
                0xf8091658                __isthreaded
 .bss           0xf809165c        0x0 C:/GCC4/ARM/s002/lib/armv7aLaiv/libc.a(dtoa.o)
 .bss           0xf809165c        0x0 C:/GCC4/ARM/s002/lib/armv7aLaiv/libc.a(ldtoa.o)
 .bss           0xf809165c        0x0 C:/GCC4/ARM/s002/lib/armv7aLaiv/libc.a(hdtoa.o)
 .bss           0xf809165c        0x0 C:/GCC4/ARM/s002/lib/armv7aLaiv/libc.a(dmisc.o)
 .bss           0xf809165c        0x0 C:/GCC4/ARM/s002/lib/armv7aLaiv/libc.a(misc.o)
 .bss.freelist  0xf809165c       0x84 C:/GCC4/ARM/s002/lib/armv7aLaiv/libc.a(misc.o)
 .bss.p5s       0xf80916e0        0x4 C:/GCC4/ARM/s002/lib/armv7aLaiv/libc.a(misc.o)
 *fill*         0xf80916e4        0x4 
 .bss.private_mem
                0xf80916e8      0x900 C:/GCC4/ARM/s002/lib/armv7aLaiv/libc.a(misc.o)
 .bss           0xf8091fe8        0x0 C:/GCC4/ARM/s002/lib/armv7aLaiv/libc.a(softfloat.o)
 .bss._softfloat_float_exception_flags
                0xf8091fe8        0x4 C:/GCC4/ARM/s002/lib/armv7aLaiv/libc.a(softfloat.o)
                0xf8091fe8                _softfloat_float_exception_flags
 .bss._softfloat_float_exception_mask
                0xf8091fec        0x4 C:/GCC4/ARM/s002/lib/armv7aLaiv/libc.a(softfloat.o)
                0xf8091fec                _softfloat_float_exception_mask
 .bss._softfloat_float_rounding_mode
                0xf8091ff0        0x4 C:/GCC4/ARM/s002/lib/armv7aLaiv/libc.a(softfloat.o)
                0xf8091ff0                _softfloat_float_rounding_mode
 .bss           0xf8091ff4        0x0 C:/GCC4/ARM/s002/lib/armv7aLaiv/libc.a(__aeabi_dcmpeq.o)
 .bss           0xf8091ff4        0x0 C:/GCC4/ARM/s002/lib/armv7aLaiv/libc.a(__aeabi_dcmpge.o)
 .bss           0xf8091ff4        0x0 C:/GCC4/ARM/s002/lib/armv7aLaiv/libc.a(__aeabi_dcmpgt.o)
 .bss           0xf8091ff4        0x0 C:/GCC4/ARM/s002/lib/armv7aLaiv/libc.a(__aeabi_dcmplt.o)
 .bss           0xf8091ff4        0x0 C:/GCC4/ARM/s002/lib/armv7aLaiv/libc.a(rb.o)
 .bss           0xf8091ff4        0x0 C:/GCC4/ARM/s002/lib/armv7aLaiv/libc.a(fflush.o)
 .bss           0xf8091ff4        0x0 C:/GCC4/ARM/s002/lib/armv7aLaiv/libc.a(flockfile.o)
 .bss           0xf8091ff4        0x0 C:/GCC4/ARM/s002/lib/armv7aLaiv/libc.a(fvwrite.o)
 .bss           0xf8091ff4        0x0 C:/GCC4/ARM/s002/lib/armv7aLaiv/libc.a(fwalk.o)
 .bss           0xf8091ff4        0x0 C:/GCC4/ARM/s002/lib/armv7aLaiv/libc.a(creat.o)
 .bss           0xf8091ff4        0x0 C:/GCC4/ARM/s002/lib/armv7aLaiv/libc.a(fpclassifyd_ieee754.o)
 .bss           0xf8091ff4        0x0 C:/GCC4/ARM/s002/lib/armv7aLaiv/libc.a(strcasecmp.o)
 .bss           0xf8091ff4        0x0 C:/GCC4/ARM/s002/lib/armv7aLaiv/libc.a(gdtoa_locks.o)
 .bss           0xf8091ff4        0x0 C:/GCC4/ARM/s002/lib/armv7aLaiv/libgcc.a(_divsi3.o)
 .bss           0xf8091ff4        0x0 C:/GCC4/ARM/s002/lib/armv7aLaiv/libgcc.a(_arm_addsubdf3.o)
 .bss           0xf8091ff4        0x0 C:/GCC4/ARM/s002/lib/armv7aLaiv/libgcc.a(_aeabi_ldivmod.o)
 *(.gnu.linkonce.b.*)
 *(COMMON)
 *fill*         0xf8091ff4        0x4 
 COMMON         0xf8091ff8    0x302d8 C:/Users/admin/Documents/SOLID-IDE/Projects/cpptest/Release/exeGCC_SOLID/cpptest/cpptest_all.o
                0xf8091ff8                _kernel_isrcb_table
                0xf8091ff8                _kernel_isr_queue_table
                0xf8091ff8                _kernel_cyccb_table
                0xf8091ff8                _kernel_mtxcb_table
                0xf8091ff8                _kernel_apdqinib_table
                0xf8091ff8                _kernel_pdqcb_table
                0xf8091ff8                _kernel_ampfinib_table
                0xf8091ff8                _kernel_aisrinib_table
                0xf8091ff8                _kernel_acyc_nfyinfo_table
                0xf8091ff8                _kernel_dtqcb_table
                0xf8092098                _kernel_atinib_table
                0xf8092098                _kernel_semcb_table
                0xf8092098                _kernel_aalm_nfyinfo_table
                0xf80920e8                _kernel_tmevt_heap
                0xf8092108                _kernel_inhcb_table
                0xf8092108                _kernel_almcb_table
                0xf8092108                _kernel_aflginib_table
                0xf8092108                _kernel_isrinib_table
                0xf8092108                _kernel_amtxinib_table
                0xf8092108                _kernel_aalminib_table
                0xf8092108                _kernel_mpfcb_table
                0xf8092108                _kernel_tcb_table
                0xf80922ac                _kernel_isr_queue_list
                0xf80922b0                __kmc_eventlog_buffer
                0xf80c22d0                _kernel_acycinib_table
                0xf80c22d0                _kernel_flgcb_table
                0xf80c22d0                _kernel_adtqinib_table
                0xf80c22d0                _kernel_aseminib_table
 COMMON         0xf80c22d0        0x4 C:/ProgramData/KMC/SOLID/SDK/2.0/solid-os/core/lib/armv7aLaiv/GR_\libsolid_cs.a(solid_malloc.o)
                0xf80c22d0                csMem
 COMMON         0xf80c22d4        0x4 C:/ProgramData/KMC/SOLID/SDK/2.0/solid-os/core/lib/armv7aLaiv/GR_\libsolid_cs.a(solid_vector.o)
                0xf80c22d4                g_pNestedContext
 COMMON         0xf80c22d8        0x8 C:/ProgramData/KMC/SOLID/SDK/2.0/solid-os/core/lib/armv7aLaiv/GR_\libsolid_cs.a(kmc_evttracker_core.o)
                0xf80c22d8                __kmc_toppers_event_data_size
                0xf80c22dc                __kmc_toppers_event_data
 COMMON         0xf80c22e0       0x78 C:/Users/admin/Documents/SOLID-IDE/Projects/cpptest/Release/exeGCC_SOLID/\libnet.a(sys_arch.o)
                0xf80c22e0                sys_semaphore_table
                0xf80c2308                sys_mutex_table
                0xf80c2330                sys_mbox_table
 COMMON         0xf80c2358        0x4 C:/Users/admin/Documents/SOLID-IDE/Projects/cpptest/Release/exeGCC_SOLID/\libnet.a(tcpip.o)
                0xf80c2358                lock_tcpip_core
 COMMON         0xf80c235c     0x3e93 C:/Users/admin/Documents/SOLID-IDE/Projects/cpptest/Release/exeGCC_SOLID/\libnet.a(mem.o)
                0xf80c235c                ram_heap
 *fill*         0xf80c61ef        0x1 
 COMMON         0xf80c61f0    0x30eaf C:/Users/admin/Documents/SOLID-IDE/Projects/cpptest/Release/exeGCC_SOLID/\libnet.a(memp.o)
                0xf80c61f0                memp_memory_NETDB_base
                0xf80c6328                memp_memory_NETBUF_base
                0xf80c634c                memp_memory_TCPIP_MSG_INPKT_base
                0xf80c6550                memp_memory_TCP_SEG_base
                0xf80c6874                memp_memory_PBUF_POOL_base
                0xf80f6678                memp_memory_FRAG_PBUF_base
                0xf80f67e4                memp_memory_TCPIP_MSG_API_base
                0xf80f68e8                memp_memory_PBUF_base
                0xf80f69ec                memp_memory_TCP_PCB_LISTEN_base
                0xf80f6af0                memp_memory_REASSDATA_base
                0xf80f6b94                memp_memory_UDP_PCB_base
                0xf80f6c18                memp_memory_NETCONN_base
                0xf80f6cdc                memp_memory_TCP_PCB_base
                0xf80f703c                memp_memory_SYS_TIMEOUT_base
 *fill*         0xf80f709f        0x1 
 COMMON         0xf80f70a0        0x8 C:/Users/admin/Documents/SOLID-IDE/Projects/cpptest/Release/exeGCC_SOLID/\libnet.a(netif.o)
                0xf80f70a0                netif_list
                0xf80f70a4                netif_default
 COMMON         0xf80f70a8        0x1 C:/Users/admin/Documents/SOLID-IDE/Projects/cpptest/Release/exeGCC_SOLID/\libnet.a(pbuf.o)
                0xf80f70a8                pbuf_free_ooseq_pending
 *fill*         0xf80f70a9        0x3 
 COMMON         0xf80f70ac      0x104 C:/Users/admin/Documents/SOLID-IDE/Projects/cpptest/Release/exeGCC_SOLID/\libnet.a(stats.o)
                0xf80f70ac                lwip_stats
 COMMON         0xf80f71b0       0x18 C:/Users/admin/Documents/SOLID-IDE/Projects/cpptest/Release/exeGCC_SOLID/\libnet.a(tcp.o)
                0xf80f71b0                tcp_active_pcbs_changed
                0xf80f71b4                tcp_active_pcbs
                0xf80f71b8                tcp_ticks
                0xf80f71bc                tcp_listen_pcbs
                0xf80f71c0                tcp_bound_pcbs
                0xf80f71c4                tcp_tw_pcbs
 COMMON         0xf80f71c8        0x4 C:/Users/admin/Documents/SOLID-IDE/Projects/cpptest/Release/exeGCC_SOLID/\libnet.a(tcp_in.o)
                0xf80f71c8                tcp_input_pcb
 COMMON         0xf80f71cc        0x4 C:/Users/admin/Documents/SOLID-IDE/Projects/cpptest/Release/exeGCC_SOLID/\libnet.a(udp.o)
                0xf80f71cc                udp_pcbs
 COMMON         0xf80f71d0       0x78 C:/Users/admin/Documents/SOLID-IDE/Projects/cpptest/Release/exeGCC_SOLID/\libnet.a(impl_net_stack.o)
                0xf80f71d0                _netif_store_
                0xf80f7208                _dhcp
 COMMON         0xf80f7248        0x1 C:/Users/admin/Documents/SOLID-IDE/Projects/cpptest/Release/exeGCC_SOLID/\libnet.a(api_msg.o)
                0xf80f7248                netconn_aborted
 *fill*         0xf80f7249        0x3 
 COMMON         0xf80f724c        0x4 C:/Users/admin/Documents/SOLID-IDE/Projects/cpptest/Release/exeGCC_SOLID/\libnet.a(netdb.o)
                0xf80f724c                h_errno
 COMMON         0xf80f7250       0x18 C:/Users/admin/Documents/SOLID-IDE/Projects/cpptest/Release/exeGCC_SOLID/\libnet.a(ip.o)
                0xf80f7250                ip_data
 COMMON         0xf80f7268       0x34 C:/Users/admin/Documents/SOLID-IDE/Projects/cpptest/Release/exeGCC_SOLID/\libnet.a(dhcp.o)
                0xf80f7268                dhcp_rx_options_given
                0xf80f7274                dhcp_rx_options_val
 COMMON         0xf80f729c        0x4 C:/Users/admin/Documents/SOLID-IDE/Projects/cpptest/Release/exeGCC_SOLID/\libnet.a(impl_net_stack_errno.o)
                0xf80f729c                _net_sys_errno
 COMMON         0xf80f72a0        0x8 C:/ProgramData/KMC/SOLID/SDK/2.0/solid-os/rtos/toppers_asp3/lib/armv7aLaiv/GR__\libkernel.a(interrupt.o)
                0xf80f72a0                _kernel_free_isrcb
 COMMON         0xf80f72a8       0x9c C:/ProgramData/KMC/SOLID/SDK/2.0/solid-os/rtos/toppers_asp3/lib/armv7aLaiv/GR__\libkernel.a(task.o)
                0xf80f72a8                _kernel_p_schedtsk
                0xf80f72ac                _kernel_ready_queue
                0xf80f732c                _kernel_dspflg
                0xf80f7330                _kernel_ready_primap
                0xf80f7334                _kernel_free_tcb
                0xf80f733c                _kernel_p_runtsk
                0xf80f7340                _kernel_enadsp
 *fill*         0xf80f7344        0x4 
 COMMON         0xf80f7348       0x20 C:/ProgramData/KMC/SOLID/SDK/2.0/solid-os/rtos/toppers_asp3/lib/armv7aLaiv/GR__\libkernel.a(time_event.o)
                0xf80f7348                _kernel_monotonic_evttim
                0xf80f734c                _kernel_in_signal_time
                0xf80f7350                _kernel_boundary_evttim
                0xf80f7354                _kernel_current_evttim
                0xf80f7358                _kernel_current_hrtcnt
                0xf80f7360                _kernel_systim_offset
 COMMON         0xf80f7368        0x4 C:/ProgramData/KMC/SOLID/SDK/2.0/solid-os/rtos/toppers_asp3/lib/armv7aLaiv/GR__\libkernel.a(core_kernel_impl.o)
                0xf80f7368                _kernel_excpt_nest_count
 COMMON         0xf80f736c       0x18 C:/Users/admin/Documents/SOLID-IDE/Projects/cpptest/Release/exeGCC_SOLID/\libbsp.a(impl_dmac.o)
                0xf80f736c                g_DMACRegs
                0xf80f7378                g_DMARSRegs
 COMMON         0xf80f7384        0xc C:/Users/admin/Documents/SOLID-IDE/Projects/cpptest/Release/exeGCC_SOLID/\libbsp.a(impl_net_dev_ether.o)
                0xf80f7384                _eth_io_base1
                0xf80f7388                _eth_io_base3
                0xf80f738c                _eth_io_base2
 COMMON         0xf80f7390        0x4 C:/Users/admin/Documents/SOLID-IDE/Projects/cpptest/Release/exeGCC_SOLID/\libbsp.a(rtc.o)
                0xf80f7390                rtcreg
 COMMON         0xf80f7394      0x2a0 C:/Users/admin/Documents/SOLID-IDE/Projects/cpptest/Release/exeGCC_SOLID/\libbsp.a(bsp_globals.o)
                0xf80f7394                g_MTU2Regs
                0xf80f73a0                g_PFV1Regs
                0xf80f73ac                g_OSTM1Regs
                0xf80f73b8                g_DISC0Regs
                0xf80f73c4                g_SPDIFRegs
                0xf80f73d0                g_SPIBSC0Regs
                0xf80f73dc                g_VDC50Regs
                0xf80f73e8                g_BSCRegs
                0xf80f73f4                g_SSIF1Regs
                0xf80f7400                g_SCUXRegs
                0xf80f740c                g_USB200Regs
                0xf80f7418                g_LIN0Regs
                0xf80f7424                g_CPGRegs
                0xf80f7430                g_RIIC2Regs
                0xf80f743c                g_SDG3Regs
                0xf80f7448                g_LVDSRegs
                0xf80f7454                g_INBRegs
                0xf80f7460                g_SSIF5Regs
                0xf80f746c                g_USB201Regs
                0xf80f7478                g_RTCRegs
                0xf80f7484                g_CEURegs
                0xf80f7490                g_SSIF2Regs
                0xf80f749c                g_RIIC0Regs
                0xf80f74a8                g_IRDARegs
                0xf80f74b4                g_RIIC1Regs
                0xf80f74c0                g_SDG0Regs
                0xf80f74cc                g_ROMDECRegs
                0xf80f74d8                g_RSPI2Regs
                0xf80f74e4                g_RIIC3Regs
                0xf80f74f0                g_DVDEC1Regs
                0xf80f74fc                g_DISC1Regs
                0xf80f7508                g_ADCRegs
                0xf80f7514                g_PWMRegs
                0xf80f7520                g_VDC51Regs
                0xf80f752c                g_SDG1Regs
                0xf80f7538                g_SSIF4Regs
                0xf80f7544                g_WDTRegs
                0xf80f7550                g_SDG2Regs
                0xf80f755c                g_RSPI4Regs
                0xf80f7568                g_RSCAN0Regs
                0xf80f7574                g_IEBRegs
                0xf80f7580                g_LIN1Regs
                0xf80f758c                g_GPIORegs
                0xf80f7598                g_SSIF3Regs
                0xf80f75a4                g_PFV0Regs
                0xf80f75b0                g_RSPI3Regs
                0xf80f75bc                g_SPIBSC1Regs
                0xf80f75c8                g_FLCTLRegs
                0xf80f75d4                g_DMACRSRegs
                0xf80f75e0                g_RSPI0Regs
                0xf80f75ec                g_MLBRegs
                0xf80f75f8                g_SSIF0Regs
                0xf80f7604                g_JCURegs
                0xf80f7610                g_DVDEC0Regs
                0xf80f761c                g_RSPI1Regs
                0xf80f7628                g_OSTM0Regs
 COMMON         0xf80f7634        0x8 C:/GCC4/ARM/s002/lib/armv7aLaiv/libc.a(_m_init.o)
                0xf80f7634                _malloc_start_fnc
                0xf80f7638                _malloc_end_fnc
 COMMON         0xf80f763c        0x8 C:/GCC4/ARM/s002/lib/armv7aLaiv/libc.a(errno.o)
                0xf80f763c                __global_vlink_errno
                0xf80f7640                __global_errno
 COMMON         0xf80f7644       0x1c C:/GCC4/ARM/s002/lib/armv7aLaiv/libc.a(atexit.o)
                0xf80f7644                __atexit_mutex
 COMMON         0xf80f7660        0x4 C:/GCC4/ARM/s002/lib/armv7aLaiv/libc.a(findfp.o)
                0xf80f7660                __sdidinit
 COMMON         0xf80f7664       0x10 C:/GCC4/ARM/s002/lib/armv7aLaiv/libc.a(osemu.o)
                0xf80f7664                _vlink_arg
                0xf80f7668                _vlink_end_fnc
                0xf80f766c                _vlink_env
                0xf80f7670                _vlink_start_fnc
 COMMON         0xf80f7674        0x4 C:/GCC4/ARM/s002/lib/armv7aLaiv/libc.a(_env.o)
                0xf80f7674                environ
 COMMON         0xf80f7678        0x4 C:/GCC4/ARM/s002/lib/armv7aLaiv/libc.a(exit.o)
                0xf80f7678                __cleanup
                0xf80f767c                _heap = .
                0xf80f7a7c                . = (. + 0x400)
 *fill*         0xf80f767c      0x400 
                0xf80f7a7c                _heap_end = .
                0xf80f7a7c                _solid_ldr_buf_start = .
                0xf8107a7c                . = (. + 0x10000)
 *fill*         0xf80f7a7c    0x10000 
                0xf8107a7c                _solid_ldr_buf_end = .
                0xf8107a7c                _solid_bss_end = .
                0x0005d000                _solid_bss_offs = (_solid_bss_start - _solid_start)
                0x000aaa7c                _solid_bss_size = (_solid_bss_end - _solid_bss_start)
                0x0005d000                _solid_args_offs = (_solid_args_start - _solid_start)
                0x00000414                _solid_args_size = (_solid_args_end - _solid_args_start)
                0x00000400                _heap_size = (_heap_end - _heap)
                0x00010000                _solid_ldr_buf_size = (_solid_ldr_buf_end - _solid_ldr_buf_start)
                0xf8108a7c                . = (. + 0x1000)
                0xf810c000                . = ALIGN (0x4000)

.mmu            0xf810c000     0x8000
                0xf810c000                _solid_mmu_start = .
                0xf810c000                _solid_ttbtable = .
                0xf8110000                . = (. + 0x4000)
 *fill*         0xf810c000     0x4000 
                0xf8110000                _solid_l2table = .
                0xf8114000                . = (. + 0x4000)
 *fill*         0xf8110000     0x4000 
                0xf8114000                _solid_mmu_end = .
                0x00004000                _solid_ttb_size = (_solid_l2table - _solid_mmu_start)
                0x00004000                _solid_l2tb_size = (_solid_mmu_end - _solid_l2table)
                0xf8115000                . = (. + 0x1000)
                0x00001000                SVC_STACK_SIZE = 0x1000
                0x00001000                IRQ_STACK_SIZE = 0x1000
                0x00001000                FIQ_STACK_SIZE = 0x1000
                0x00001000                UND_STACK_SIZE = 0x1000
                0x00001000                ABT_STACK_SIZE = 0x1000
                0x00001000                SYS_STACK_SIZE = 0x1000
                0xf8115000                . = ALIGN (0x1000)

.stacks         0xf8115000     0xb000
                0xf8115000                _solid_stack_start = .
                0xf8115000                _stack_top = .
                0xf8115000                _stack_svc_start = .
                0xf8116000                . = (. + SVC_STACK_SIZE)
 *fill*         0xf8115000     0x1000 
                0xf8116000                _stack_svc_end = .
                0xf8116000                . = ALIGN (0x1000)
                0xf8117000                . = (. + 0x1000)
 *fill*         0xf8116000     0x1000 
                0xf8117000                _stack_irq_start = .
                0xf8118000                . = (. + IRQ_STACK_SIZE)
 *fill*         0xf8117000     0x1000 
                0xf8118000                _stack_irq_end = .
                0xf8118000                . = ALIGN (0x1000)
                0xf8119000                . = (. + 0x1000)
 *fill*         0xf8118000     0x1000 
                0xf8119000                _stack_fiq_start = .
                0xf811a000                . = (. + FIQ_STACK_SIZE)
 *fill*         0xf8119000     0x1000 
                0xf811a000                _stack_fiq_end = .
                0xf811a000                . = ALIGN (0x1000)
                0xf811b000                . = (. + 0x1000)
 *fill*         0xf811a000     0x1000 
                0xf811b000                _stack_und_start = .
                0xf811c000                . = (. + UND_STACK_SIZE)
 *fill*         0xf811b000     0x1000 
                0xf811c000                _stack_und_end = .
                0xf811c000                . = ALIGN (0x1000)
                0xf811d000                . = (. + 0x1000)
 *fill*         0xf811c000     0x1000 
                0xf811d000                _stack_abt_start = .
                0xf811e000                . = (. + ABT_STACK_SIZE)
 *fill*         0xf811d000     0x1000 
                0xf811e000                _stack_abt_end = .
                0xf811e000                . = ALIGN (0x1000)
                0xf811f000                . = (. + 0x1000)
 *fill*         0xf811e000     0x1000 
                0xf811f000                _stack_sys_start = .
                0xf8120000                . = (. + SYS_STACK_SIZE)
 *fill*         0xf811f000     0x1000 
                0xf8120000                _stack_sys_end = .
                0xf8120000                _solid_stack_end = .
                0x00001000                _solid_stack_svc_size = (_stack_svc_end - _stack_svc_start)
                0x00001000                _solid_stack_irq_size = (_stack_irq_end - _stack_irq_start)
                0x00001000                _solid_stack_fiq_size = (_stack_fiq_end - _stack_fiq_start)
                0x00001000                _solid_stack_und_size = (_stack_und_end - _stack_und_start)
                0x00001000                _solid_stack_abt_size = (_stack_abt_end - _stack_abt_start)
                0x00001000                _solid_stack_sys_size = (_stack_sys_end - _stack_sys_start)
                0xf8120000                _solid_end = .
                0x00000001                ASSERT ((_solid_end < (_smm_SOLID_VirtualAddress + _smm_SOLID_Size)), SOLID AREA FULL)

.debug
 *(.debug)

.line
 *(.line)

.debug_srcinfo
 *(.debug_srcinfo)

.debug_sfnames
 *(.debug_sfnames)

.debug_aranges  0x00000000     0x2638
 *(.debug_aranges)
 .debug_aranges
                0x00000000       0x80 C:/Users/admin/Documents/SOLID-IDE/Projects/cpptest/Release/exeGCC_SOLID/cpptest/cpptest_all.o
 .debug_aranges
                0x00000080       0x28 C:/ProgramData/KMC/SOLID/SDK/2.0/solid-os/core/lib/armv7aLaiv/GR_\libsolid_cs.a(solid_cs_asm.o)
 .debug_aranges
                0x000000a8       0x20 C:/ProgramData/KMC/SOLID/SDK/2.0/solid-os/core/lib/armv7aLaiv/GR_\libsolid_cs.a(solid_cs_main.o)
 .debug_aranges
                0x000000c8       0x20 C:/ProgramData/KMC/SOLID/SDK/2.0/solid-os/core/lib/armv7aLaiv/GR_\libsolid_cs.a(kmc_trace_mem_dummy.o)
 .debug_aranges
                0x000000e8       0x20 C:/ProgramData/KMC/SOLID/SDK/2.0/solid-os/core/lib/armv7aLaiv/GR_\libsolid_cs.a(solid_cs_event.o)
 .debug_aranges
                0x00000108       0x20 C:/ProgramData/KMC/SOLID/SDK/2.0/solid-os/core/lib/armv7aLaiv/GR_\libsolid_cs.a(solid_debugger.o)
 .debug_aranges
                0x00000128       0x38 C:/ProgramData/KMC/SOLID/SDK/2.0/solid-os/core/lib/armv7aLaiv/GR_\libsolid_cs.a(solid_dmac.o)
 .debug_aranges
                0x00000160       0x20 C:/ProgramData/KMC/SOLID/SDK/2.0/solid-os/core/lib/armv7aLaiv/GR_\libsolid_cs.a(solid_exception.o)
 .debug_aranges
                0x00000180       0x38 C:/ProgramData/KMC/SOLID/SDK/2.0/solid-os/core/lib/armv7aLaiv/GR_\libsolid_cs.a(solid_fs_base.o)
 .debug_aranges
                0x000001b8       0x20 C:/ProgramData/KMC/SOLID/SDK/2.0/solid-os/core/lib/armv7aLaiv/GR_\libsolid_cs.a(solid_fs_mem.o)
 .debug_aranges
                0x000001d8       0x20 C:/ProgramData/KMC/SOLID/SDK/2.0/solid-os/core/lib/armv7aLaiv/GR_\libsolid_cs.a(solid_fs_vlink.o)
 .debug_aranges
                0x000001f8       0x30 C:/ProgramData/KMC/SOLID/SDK/2.0/solid-os/core/lib/armv7aLaiv/GR_\libsolid_cs.a(solid_intc.o)
 .debug_aranges
                0x00000228       0x28 C:/ProgramData/KMC/SOLID/SDK/2.0/solid-os/core/lib/armv7aLaiv/GR_\libsolid_cs.a(solid_iores.o)
 .debug_aranges
                0x00000250       0x40 C:/ProgramData/KMC/SOLID/SDK/2.0/solid-os/core/lib/armv7aLaiv/GR_\libsolid_cs.a(solid_loader.o)
 .debug_aranges
                0x00000290       0x20 C:/ProgramData/KMC/SOLID/SDK/2.0/solid-os/core/lib/armv7aLaiv/GR_\libsolid_cs.a(solid_loader_fixed.o)
 .debug_aranges
                0x000002b0       0x20 C:/ProgramData/KMC/SOLID/SDK/2.0/solid-os/core/lib/armv7aLaiv/GR_\libsolid_cs.a(solid_log.o)
 .debug_aranges
                0x000002d0       0x20 C:/ProgramData/KMC/SOLID/SDK/2.0/solid-os/core/lib/armv7aLaiv/GR_\libsolid_cs.a(solid_malloc.o)
 .debug_aranges
                0x000002f0       0x98 C:/ProgramData/KMC/SOLID/SDK/2.0/solid-os/core/lib/armv7aLaiv/GR_\libsolid_cs.a(solid_mem.o)
 .debug_aranges
                0x00000388       0x20 C:/ProgramData/KMC/SOLID/SDK/2.0/solid-os/core/lib/armv7aLaiv/GR_\libsolid_cs.a(solid_mem_cache.o)
 .debug_aranges
                0x000003a8       0x20 C:/ProgramData/KMC/SOLID/SDK/2.0/solid-os/core/lib/armv7aLaiv/GR_\libsolid_cs.a(solid_mutex.o)
 .debug_aranges
                0x000003c8       0x20 C:/ProgramData/KMC/SOLID/SDK/2.0/solid-os/core/lib/armv7aLaiv/GR_\libsolid_cs.a(solid_rtc.o)
 .debug_aranges
                0x000003e8       0x38 C:/ProgramData/KMC/SOLID/SDK/2.0/solid-os/core/lib/armv7aLaiv/GR_\libsolid_cs.a(solid_timer.o)
 .debug_aranges
                0x00000420       0x20 C:/ProgramData/KMC/SOLID/SDK/2.0/solid-os/core/lib/armv7aLaiv/GR_\libsolid_cs.a(solid_vector.o)
 .debug_aranges
                0x00000440       0x20 C:/ProgramData/KMC/SOLID/SDK/2.0/solid-os/core/lib/armv7aLaiv/GR_\libsolid_cs.a(solid_vlink.o)
 .debug_aranges
                0x00000460       0x20 C:/ProgramData/KMC/SOLID/SDK/2.0/solid-os/core/lib/armv7aLaiv/GR_\libsolid_cs.a(solid_mem_mmu.o)
 .debug_aranges
                0x00000480       0x20 C:/ProgramData/KMC/SOLID/SDK/2.0/solid-os/core/lib/armv7aLaiv/GR_\libsolid_cs.a(kmc_evttracker_core.o)
 .debug_aranges
                0x000004a0       0x20 C:/ProgramData/KMC/SOLID/SDK/2.0/solid-os/core/lib/armv7aLaiv/GR_\libsolid_cs.a(dlmalloc.o)
 .debug_aranges
                0x000004c0       0x20 C:/ProgramData/KMC/SOLID/SDK/2.0/solid-os/core/lib/armv7aLaiv/GR_\libsolid_cs.a(solid_asan.o)
 .debug_aranges
                0x000004e0       0x18 C:/ProgramData/KMC/SOLID/SDK/2.0/solid-os/core/lib/armv7aLaiv/GR_\libsolid_cs.a(solid_cs_args.o)
 .debug_aranges
                0x000004f8       0x20 C:/ProgramData/KMC/SOLID/SDK/2.0/solid-os/core/lib/armv7aLaiv/GR_\libsolid_cs.a(tasan.o)
 .debug_aranges
                0x00000518       0x20 C:/Users/admin/Documents/SOLID-IDE/Projects/cpptest/Release/exeGCC_SOLID/\libnet.a(sys_arch.o)
 .debug_aranges
                0x00000538       0x20 C:/Users/admin/Documents/SOLID-IDE/Projects/cpptest/Release/exeGCC_SOLID/\libnet.a(tcpip.o)
 .debug_aranges
                0x00000558       0x20 C:/Users/admin/Documents/SOLID-IDE/Projects/cpptest/Release/exeGCC_SOLID/\libnet.a(init.o)
 .debug_aranges
                0x00000578       0x20 C:/Users/admin/Documents/SOLID-IDE/Projects/cpptest/Release/exeGCC_SOLID/\libnet.a(ip4.o)
 .debug_aranges
                0x00000598       0x20 C:/Users/admin/Documents/SOLID-IDE/Projects/cpptest/Release/exeGCC_SOLID/\libnet.a(ip4_addr.o)
 .debug_aranges
                0x000005b8       0x20 C:/Users/admin/Documents/SOLID-IDE/Projects/cpptest/Release/exeGCC_SOLID/\libnet.a(ip4_frag.o)
 .debug_aranges
                0x000005d8       0x20 C:/Users/admin/Documents/SOLID-IDE/Projects/cpptest/Release/exeGCC_SOLID/\libnet.a(mem.o)
 .debug_aranges
                0x000005f8       0x20 C:/Users/admin/Documents/SOLID-IDE/Projects/cpptest/Release/exeGCC_SOLID/\libnet.a(memp.o)
 .debug_aranges
                0x00000618       0x20 C:/Users/admin/Documents/SOLID-IDE/Projects/cpptest/Release/exeGCC_SOLID/\libnet.a(netif.o)
 .debug_aranges
                0x00000638       0x20 C:/Users/admin/Documents/SOLID-IDE/Projects/cpptest/Release/exeGCC_SOLID/\libnet.a(pbuf.o)
 .debug_aranges
                0x00000658       0x20 C:/Users/admin/Documents/SOLID-IDE/Projects/cpptest/Release/exeGCC_SOLID/\libnet.a(stats.o)
 .debug_aranges
                0x00000678       0x20 C:/Users/admin/Documents/SOLID-IDE/Projects/cpptest/Release/exeGCC_SOLID/\libnet.a(tcp.o)
 .debug_aranges
                0x00000698       0x20 C:/Users/admin/Documents/SOLID-IDE/Projects/cpptest/Release/exeGCC_SOLID/\libnet.a(tcp_in.o)
 .debug_aranges
                0x000006b8       0x20 C:/Users/admin/Documents/SOLID-IDE/Projects/cpptest/Release/exeGCC_SOLID/\libnet.a(tcp_out.o)
 .debug_aranges
                0x000006d8       0x20 C:/Users/admin/Documents/SOLID-IDE/Projects/cpptest/Release/exeGCC_SOLID/\libnet.a(timeouts.o)
 .debug_aranges
                0x000006f8       0x20 C:/Users/admin/Documents/SOLID-IDE/Projects/cpptest/Release/exeGCC_SOLID/\libnet.a(udp.o)
 .debug_aranges
                0x00000718       0x20 C:/Users/admin/Documents/SOLID-IDE/Projects/cpptest/Release/exeGCC_SOLID/\libnet.a(ethernet.o)
 .debug_aranges
                0x00000738       0x20 C:/Users/admin/Documents/SOLID-IDE/Projects/cpptest/Release/exeGCC_SOLID/\libnet.a(solid_net_if.o)
 .debug_aranges
                0x00000758       0x20 C:/Users/admin/Documents/SOLID-IDE/Projects/cpptest/Release/exeGCC_SOLID/\libnet.a(solid_net_registerapi.o)
 .debug_aranges
                0x00000778       0x20 C:/Users/admin/Documents/SOLID-IDE/Projects/cpptest/Release/exeGCC_SOLID/\libnet.a(impl_net_stack.o)
 .debug_aranges
                0x00000798       0x20 C:/Users/admin/Documents/SOLID-IDE/Projects/cpptest/Release/exeGCC_SOLID/\libnet.a(ethernetif.o)
 .debug_aranges
                0x000007b8       0x20 C:/Users/admin/Documents/SOLID-IDE/Projects/cpptest/Release/exeGCC_SOLID/\libnet.a(api_lib.o)
 .debug_aranges
                0x000007d8       0x20 C:/Users/admin/Documents/SOLID-IDE/Projects/cpptest/Release/exeGCC_SOLID/\libnet.a(api_msg.o)
 .debug_aranges
                0x000007f8       0x20 C:/Users/admin/Documents/SOLID-IDE/Projects/cpptest/Release/exeGCC_SOLID/\libnet.a(netbuf.o)
 .debug_aranges
                0x00000818       0x20 C:/Users/admin/Documents/SOLID-IDE/Projects/cpptest/Release/exeGCC_SOLID/\libnet.a(netdb.o)
 .debug_aranges
                0x00000838       0x20 C:/Users/admin/Documents/SOLID-IDE/Projects/cpptest/Release/exeGCC_SOLID/\libnet.a(sockets.o)
 .debug_aranges
                0x00000858       0x20 C:/Users/admin/Documents/SOLID-IDE/Projects/cpptest/Release/exeGCC_SOLID/\libnet.a(def.o)
 .debug_aranges
                0x00000878       0x20 C:/Users/admin/Documents/SOLID-IDE/Projects/cpptest/Release/exeGCC_SOLID/\libnet.a(dns.o)
 .debug_aranges
                0x00000898       0x20 C:/Users/admin/Documents/SOLID-IDE/Projects/cpptest/Release/exeGCC_SOLID/\libnet.a(inet_chksum.o)
 .debug_aranges
                0x000008b8       0x18 C:/Users/admin/Documents/SOLID-IDE/Projects/cpptest/Release/exeGCC_SOLID/\libnet.a(ip.o)
 .debug_aranges
                0x000008d0       0x28 C:/Users/admin/Documents/SOLID-IDE/Projects/cpptest/Release/exeGCC_SOLID/\libnet.a(dhcp.o)
 .debug_aranges
                0x000008f8       0x20 C:/Users/admin/Documents/SOLID-IDE/Projects/cpptest/Release/exeGCC_SOLID/\libnet.a(etharp.o)
 .debug_aranges
                0x00000918       0x20 C:/Users/admin/Documents/SOLID-IDE/Projects/cpptest/Release/exeGCC_SOLID/\libnet.a(icmp.o)
 .debug_aranges
                0x00000938       0x20 C:/Users/admin/Documents/SOLID-IDE/Projects/cpptest/Release/exeGCC_SOLID/\libnet.a(impl_net_stack_errno.o)
 .debug_aranges
                0x00000958       0x20 C:/Users/admin/Documents/SOLID-IDE/Projects/cpptest/Release/exeGCC_SOLID/\libnet.a(err.o)
 .debug_aranges
                0x00000978       0x28 C:/ProgramData/KMC/SOLID/SDK/2.0/solid-os/rtos/toppers_asp3/lib/armv7aLaiv/GR__\libkernel.a(dataqueue.o)
 .debug_aranges
                0x000009a0       0x20 C:/ProgramData/KMC/SOLID/SDK/2.0/solid-os/rtos/toppers_asp3/lib/armv7aLaiv/GR__\libkernel.a(interrupt.o)
 .debug_aranges
                0x000009c0       0x20 C:/ProgramData/KMC/SOLID/SDK/2.0/solid-os/rtos/toppers_asp3/lib/armv7aLaiv/GR__\libkernel.a(tSysLog.o)
 .debug_aranges
                0x000009e0       0x20 C:/ProgramData/KMC/SOLID/SDK/2.0/solid-os/rtos/toppers_asp3/lib/armv7aLaiv/GR__\libkernel.a(vasyslog.o)
 .debug_aranges
                0x00000a00       0x20 C:/ProgramData/KMC/SOLID/SDK/2.0/solid-os/rtos/toppers_asp3/lib/armv7aLaiv/GR__\libkernel.a(semaphore.o)
 .debug_aranges
                0x00000a20       0x20 C:/ProgramData/KMC/SOLID/SDK/2.0/solid-os/rtos/toppers_asp3/lib/armv7aLaiv/GR__\libkernel.a(startup.o)
 .debug_aranges
                0x00000a40       0x20 C:/ProgramData/KMC/SOLID/SDK/2.0/solid-os/rtos/toppers_asp3/lib/armv7aLaiv/GR__\libkernel.a(sys_manage.o)
 .debug_aranges
                0x00000a60       0x20 C:/ProgramData/KMC/SOLID/SDK/2.0/solid-os/rtos/toppers_asp3/lib/armv7aLaiv/GR__\libkernel.a(task.o)
 .debug_aranges
                0x00000a80       0x18 C:/ProgramData/KMC/SOLID/SDK/2.0/solid-os/rtos/toppers_asp3/lib/armv7aLaiv/GR__\libkernel.a(taskhook.o)
 .debug_aranges
                0x00000a98       0x20 C:/ProgramData/KMC/SOLID/SDK/2.0/solid-os/rtos/toppers_asp3/lib/armv7aLaiv/GR__\libkernel.a(task_manage.o)
 .debug_aranges
                0x00000ab8       0x20 C:/ProgramData/KMC/SOLID/SDK/2.0/solid-os/rtos/toppers_asp3/lib/armv7aLaiv/GR__\libkernel.a(time_event.o)
 .debug_aranges
                0x00000ad8       0x20 C:/ProgramData/KMC/SOLID/SDK/2.0/solid-os/rtos/toppers_asp3/lib/armv7aLaiv/GR__\libkernel.a(wait.o)
 .debug_aranges
                0x00000af8       0x20 C:/ProgramData/KMC/SOLID/SDK/2.0/solid-os/rtos/toppers_asp3/lib/armv7aLaiv/GR__\libkernel.a(solid_rtos_registerapi.o)
 .debug_aranges
                0x00000b18       0x20 C:/ProgramData/KMC/SOLID/SDK/2.0/solid-os/rtos/toppers_asp3/lib/armv7aLaiv/GR__\libkernel.a(target_fput_log.o)
 .debug_aranges
                0x00000b38       0x20 C:/ProgramData/KMC/SOLID/SDK/2.0/solid-os/rtos/toppers_asp3/lib/armv7aLaiv/GR__\libkernel.a(target_intc_impl.o)
 .debug_aranges
                0x00000b58       0x20 C:/ProgramData/KMC/SOLID/SDK/2.0/solid-os/rtos/toppers_asp3/lib/armv7aLaiv/GR__\libkernel.a(target_timer_impl.o)
 .debug_aranges
                0x00000b78       0x20 C:/ProgramData/KMC/SOLID/SDK/2.0/solid-os/rtos/toppers_asp3/lib/armv7aLaiv/GR__\libkernel.a(kmc_evttracker_rtos.o)
 .debug_aranges
                0x00000b98       0x20 C:/ProgramData/KMC/SOLID/SDK/2.0/solid-os/rtos/toppers_asp3/lib/armv7aLaiv/GR__\libkernel.a(rtos_prof.o)
 .debug_aranges
                0x00000bb8       0x20 C:/ProgramData/KMC/SOLID/SDK/2.0/solid-os/rtos/toppers_asp3/lib/armv7aLaiv/GR__\libkernel.a(core_support.o)
 .debug_aranges
                0x00000bd8       0x20 C:/ProgramData/KMC/SOLID/SDK/2.0/solid-os/rtos/toppers_asp3/lib/armv7aLaiv/GR__\libkernel.a(kernel_cfg_intl.o)
 .debug_aranges
                0x00000bf8       0x20 C:/ProgramData/KMC/SOLID/SDK/2.0/solid-os/rtos/toppers_asp3/lib/armv7aLaiv/GR__\libkernel.a(alarm.o)
 .debug_aranges
                0x00000c18       0x20 C:/ProgramData/KMC/SOLID/SDK/2.0/solid-os/rtos/toppers_asp3/lib/armv7aLaiv/GR__\libkernel.a(core_kernel_impl.o)
 .debug_aranges
                0x00000c38       0x20 C:/ProgramData/KMC/SOLID/SDK/2.0/solid-os/rtos/toppers_asp3/lib/armv7aLaiv/GR__\libkernel.a(cyclic.o)
 .debug_aranges
                0x00000c58       0x20 C:/ProgramData/KMC/SOLID/SDK/2.0/solid-os/rtos/toppers_asp3/lib/armv7aLaiv/GR__\libkernel.a(eventflag.o)
 .debug_aranges
                0x00000c78       0x20 C:/ProgramData/KMC/SOLID/SDK/2.0/solid-os/rtos/toppers_asp3/lib/armv7aLaiv/GR__\libkernel.a(exception.o)
 .debug_aranges
                0x00000c98       0x20 C:/ProgramData/KMC/SOLID/SDK/2.0/solid-os/rtos/toppers_asp3/lib/armv7aLaiv/GR__\libkernel.a(mempfix.o)
 .debug_aranges
                0x00000cb8       0x20 C:/ProgramData/KMC/SOLID/SDK/2.0/solid-os/rtos/toppers_asp3/lib/armv7aLaiv/GR__\libkernel.a(log_output.o)
 .debug_aranges
                0x00000cd8       0x20 C:/ProgramData/KMC/SOLID/SDK/2.0/solid-os/rtos/toppers_asp3/lib/armv7aLaiv/GR__\libkernel.a(mutex.o)
 .debug_aranges
                0x00000cf8       0x28 C:/ProgramData/KMC/SOLID/SDK/2.0/solid-os/rtos/toppers_asp3/lib/armv7aLaiv/GR__\libkernel.a(pridataq.o)
 .debug_aranges
                0x00000d20       0x20 C:/ProgramData/KMC/SOLID/SDK/2.0/solid-os/rtos/toppers_asp3/lib/armv7aLaiv/GR__\libkernel.a(task_refer.o)
 .debug_aranges
                0x00000d40       0x20 C:/ProgramData/KMC/SOLID/SDK/2.0/solid-os/rtos/toppers_asp3/lib/armv7aLaiv/GR__\libkernel.a(task_sync.o)
 .debug_aranges
                0x00000d60       0x20 C:/ProgramData/KMC/SOLID/SDK/2.0/solid-os/rtos/toppers_asp3/lib/armv7aLaiv/GR__\libkernel.a(task_term.o)
 .debug_aranges
                0x00000d80       0x20 C:/ProgramData/KMC/SOLID/SDK/2.0/solid-os/rtos/toppers_asp3/lib/armv7aLaiv/GR__\libkernel.a(time_manage.o)
 .debug_aranges
                0x00000da0       0x20 C:/Users/admin/Documents/SOLID-IDE/Projects/cpptest/Release/exeGCC_SOLID/\libbsp.a(impl_cs_event.o)
 .debug_aranges
                0x00000dc0       0x20 C:/Users/admin/Documents/SOLID-IDE/Projects/cpptest/Release/exeGCC_SOLID/\libbsp.a(impl_dmac.o)
 .debug_aranges
                0x00000de0       0x20 C:/Users/admin/Documents/SOLID-IDE/Projects/cpptest/Release/exeGCC_SOLID/\libbsp.a(impl_iores.o)
 .debug_aranges
                0x00000e00       0x20 C:/Users/admin/Documents/SOLID-IDE/Projects/cpptest/Release/exeGCC_SOLID/\libbsp.a(impl_log.o)
 .debug_aranges
                0x00000e20       0x20 C:/Users/admin/Documents/SOLID-IDE/Projects/cpptest/Release/exeGCC_SOLID/\libbsp.a(impl_net_dev_ether.o)
 .debug_aranges
                0x00000e40       0x20 C:/Users/admin/Documents/SOLID-IDE/Projects/cpptest/Release/exeGCC_SOLID/\libbsp.a(impl_net_dev_get_macaddr.o)
 .debug_aranges
                0x00000e60       0x20 C:/Users/admin/Documents/SOLID-IDE/Projects/cpptest/Release/exeGCC_SOLID/\libbsp.a(impl_net_dev_getconfig.o)
 .debug_aranges
                0x00000e80       0x20 C:/Users/admin/Documents/SOLID-IDE/Projects/cpptest/Release/exeGCC_SOLID/\libbsp.a(impl_rtc.o)
 .debug_aranges
                0x00000ea0       0x20 C:/Users/admin/Documents/SOLID-IDE/Projects/cpptest/Release/exeGCC_SOLID/\libbsp.a(impl_timer.o)
 .debug_aranges
                0x00000ec0       0x20 C:/Users/admin/Documents/SOLID-IDE/Projects/cpptest/Release/exeGCC_SOLID/\libbsp.a(rtc.o)
 .debug_aranges
                0x00000ee0       0x20 C:/Users/admin/Documents/SOLID-IDE/Projects/cpptest/Release/exeGCC_SOLID/\libbsp.a(rtc_userdef.o)
 .debug_aranges
                0x00000f00       0x20 C:/Users/admin/Documents/SOLID-IDE/Projects/cpptest/Release/exeGCC_SOLID/\libbsp.a(bsp_globals.o)
 .debug_aranges
                0x00000f20       0x20 C:/Users/admin/Documents/SOLID-IDE/Projects/cpptest/Release/exeGCC_SOLID/\libbsp.a(rza_io_regrw.o)
 .debug_aranges
                0x00000f40       0x50 C:/GCC4/ARM/s002/lib/armv7aLaiv\libstdc++.a(class_type_info.o)
 .debug_aranges
                0x00000f90       0x20 C:/GCC4/ARM/s002/lib/armv7aLaiv\libstdc++.a(atexit_arm.o)
 .debug_aranges
                0x00000fb0       0x20 C:/GCC4/ARM/s002/lib/armv7aLaiv\libstdc++.a(del_ops.o)
 .debug_aranges
                0x00000fd0       0x40 C:/GCC4/ARM/s002/lib/armv7aLaiv\libstdc++.a(si_class_type_info.o)
 .debug_aranges
                0x00001010       0x20 C:/GCC4/ARM/s002/lib/armv7aLaiv\libstdc++.a(del_op.o)
 .debug_aranges
                0x00001030       0x48 C:/GCC4/ARM/s002/lib/armv7aLaiv\libstdc++.a(tinfo.o)
 .debug_aranges
                0x00001078       0x20 C:/GCC4/ARM/s002/lib/armv7aLaiv/libgcc.a(_udivsi3.o)
 .debug_aranges
                0x00001098       0x20 C:/GCC4/ARM/s002/lib/armv7aLaiv/libgcc.a(_dvmd_tls.o)
 .debug_aranges
                0x000010b8       0x20 C:/GCC4/ARM/s002/lib/armv7aLaiv/libgcc.a(_aeabi_uldivmod.o)
 .debug_aranges
                0x000010d8       0x20 C:/GCC4/ARM/s002/lib/armv7aLaiv/libgcc.a(_udivmoddi4.o)
 .debug_aranges
                0x000010f8       0xf0 C:/GCC4/ARM/s002/lib/armv7aLaiv/libgcc.a(unwind-arm.o)
 .debug_aranges
                0x000011e8       0x20 C:/GCC4/ARM/s002/lib/armv7aLaiv/libgcc.a(libunwind.o)
 .debug_aranges
                0x00001208       0x58 C:/GCC4/ARM/s002/lib/armv7aLaiv/libgcc.a(pr-support.o)
 .debug_aranges
                0x00001260       0x80 C:/GCC4/ARM/s002/lib/armv7aLaiv/libc.a(_m_init.o)
 .debug_aranges
                0x000012e0       0x28 C:/GCC4/ARM/s002/lib/armv7aLaiv/libc.a(abort.o)
 .debug_aranges
                0x00001308       0x28 C:/GCC4/ARM/s002/lib/armv7aLaiv/libc.a(errno.o)
 .debug_aranges
                0x00001330       0x20 C:/GCC4/ARM/s002/lib/armv7aLaiv/libc.a(atoi.o)
 .debug_aranges
                0x00001350       0x28 C:/GCC4/ARM/s002/lib/armv7aLaiv/libc.a(rand.o)
 .debug_aranges
                0x00001378       0x30 C:/GCC4/ARM/s002/lib/armv7aLaiv/libc.a(strtol.o)
 .debug_aranges
                0x000013a8       0x30 C:/GCC4/ARM/s002/lib/armv7aLaiv/libc.a(strtoul.o)
 .debug_aranges
                0x000013d8       0x38 C:/GCC4/ARM/s002/lib/armv7aLaiv/libc.a(atexit.o)
 .debug_aranges
                0x00001410       0x20 C:/GCC4/ARM/s002/lib/armv7aLaiv/libc.a(memcmp.o)
 .debug_aranges
                0x00001430       0x20 C:/GCC4/ARM/s002/lib/armv7aLaiv/libc.a(memcpy.o)
 .debug_aranges
                0x00001450       0x20 C:/GCC4/ARM/s002/lib/armv7aLaiv/libc.a(memset.o)
 .debug_aranges
                0x00001470       0x20 C:/GCC4/ARM/s002/lib/armv7aLaiv/libc.a(strncpy.o)
 .debug_aranges
                0x00001490       0x20 C:/GCC4/ARM/s002/lib/armv7aLaiv/libc.a(strcmp.o)
 .debug_aranges
                0x000014b0       0x20 C:/GCC4/ARM/s002/lib/armv7aLaiv/libc.a(strncmp.o)
 .debug_aranges
                0x000014d0       0x20 C:/GCC4/ARM/s002/lib/armv7aLaiv/libc.a(strlen.o)
 .debug_aranges
                0x000014f0      0x108 C:/GCC4/ARM/s002/lib/armv7aLaiv/libc.a(isctype.o)
 .debug_aranges
                0x000015f8       0x18 C:/GCC4/ARM/s002/lib/armv7aLaiv/libc.a(global_locale.o)
 .debug_aranges
                0x00001610       0x18 C:/GCC4/ARM/s002/lib/armv7aLaiv/libc.a(runetable.o)
 .debug_aranges
                0x00001628       0x28 C:/GCC4/ARM/s002/lib/armv7aLaiv/libc.a(thread-stub-init.o)
 .debug_aranges
                0x00001650       0xb0 C:/GCC4/ARM/s002/lib/armv7aLaiv/libc.a(thread-stub.o)
 .debug_aranges
                0x00001700       0x20 C:/GCC4/ARM/s002/lib/armv7aLaiv/libc.a(ssp_init.o)
 .debug_aranges
                0x00001720       0x38 C:/GCC4/ARM/s002/lib/armv7aLaiv/libc.a(findfp.o)
 .debug_aranges
                0x00001758       0x28 C:/GCC4/ARM/s002/lib/armv7aLaiv/libc.a(fprintf.o)
 .debug_aranges
                0x00001780       0x38 C:/GCC4/ARM/s002/lib/armv7aLaiv/libc.a(stdio.o)
 .debug_aranges
                0x000017b8       0x50 C:/GCC4/ARM/s002/lib/armv7aLaiv/libc.a(vfprintf.o)
 .debug_aranges
                0x00001808       0x38 C:/GCC4/ARM/s002/lib/armv7aLaiv/libc.a(vsnprintf.o)
 .debug_aranges
                0x00001840       0x20 C:/GCC4/ARM/s002/lib/armv7aLaiv/libc.a(wsetup.o)
 .debug_aranges
                0x00001860       0x28 C:/GCC4/ARM/s002/lib/armv7aLaiv/libc.a(makebuf.o)
 .debug_aranges
                0x00001888       0x30 C:/GCC4/ARM/s002/lib/armv7aLaiv/libc.a(close.o)
 .debug_aranges
                0x000018b8       0x20 C:/GCC4/ARM/s002/lib/armv7aLaiv/libc.a(fstat.o)
 .debug_aranges
                0x000018d8       0x20 C:/GCC4/ARM/s002/lib/armv7aLaiv/libc.a(lseek.o)
 .debug_aranges
                0x000018f8       0x20 C:/GCC4/ARM/s002/lib/armv7aLaiv/libc.a(open.o)
 .debug_aranges
                0x00001918      0x1a8 C:/GCC4/ARM/s002/lib/armv7aLaiv/libc.a(osemu.o)
 .debug_aranges
                0x00001ac0       0x20 C:/GCC4/ARM/s002/lib/armv7aLaiv/libc.a(read.o)
 .debug_aranges
                0x00001ae0       0x20 C:/GCC4/ARM/s002/lib/armv7aLaiv/libc.a(u2dname.o)
 .debug_aranges
                0x00001b00       0x28 C:/GCC4/ARM/s002/lib/armv7aLaiv/libc.a(utime.o)
 .debug_aranges
                0x00001b28       0x20 C:/GCC4/ARM/s002/lib/armv7aLaiv/libc.a(write.o)
 .debug_aranges
                0x00001b48       0x88 C:/GCC4/ARM/s002/lib/armv7aLaiv/libc.a(_env.o)
 .debug_aranges
                0x00001bd0       0x30 C:/GCC4/ARM/s002/lib/armv7aLaiv/libc.a(exit.o)
 .debug_aranges
                0x00001c00       0x28 C:/GCC4/ARM/s002/lib/armv7aLaiv/libc.a(signal.o)
 .debug_aranges
                0x00001c28       0x38 C:/GCC4/ARM/s002/lib/armv7aLaiv/libc.a(localtime.o)
 .debug_aranges
                0x00001c60       0x20 C:/GCC4/ARM/s002/lib/armv7aLaiv/libc.a(lldiv.o)
 .debug_aranges
                0x00001c80       0x20 C:/GCC4/ARM/s002/lib/armv7aLaiv/libc.a(memchr.o)
 .debug_aranges
                0x00001ca0       0x20 C:/GCC4/ARM/s002/lib/armv7aLaiv/libc.a(strcspn.o)
 .debug_aranges
                0x00001cc0       0x20 C:/GCC4/ARM/s002/lib/armv7aLaiv/libc.a(strncasecmp.o)
 .debug_aranges
                0x00001ce0       0x20 C:/GCC4/ARM/s002/lib/armv7aLaiv/libc.a(strdup.o)
 .debug_aranges
                0x00001d00       0x18 C:/GCC4/ARM/s002/lib/armv7aLaiv/libc.a(ctype_.o)
 .debug_aranges
                0x00001d18       0x18 C:/GCC4/ARM/s002/lib/armv7aLaiv/libc.a(toupper_.o)
 .debug_aranges
                0x00001d30       0x18 C:/GCC4/ARM/s002/lib/armv7aLaiv/libc.a(tolower_.o)
 .debug_aranges
                0x00001d48       0x38 C:/GCC4/ARM/s002/lib/armv7aLaiv/libc.a(citrus_ctype.o)
 .debug_aranges
                0x00001d80       0xe8 C:/GCC4/ARM/s002/lib/armv7aLaiv/libc.a(citrus_none.o)
 .debug_aranges
                0x00001e68      0x120 C:/GCC4/ARM/s002/lib/armv7aLaiv/libc.a(citrus_mskanji.o)
 .debug_aranges
                0x00001f88      0x120 C:/GCC4/ARM/s002/lib/armv7aLaiv/libc.a(citrus_utf8.o)
 .debug_aranges
                0x000020a8       0x28 C:/GCC4/ARM/s002/lib/armv7aLaiv/libc.a(localeconv.o)
 .debug_aranges
                0x000020d0       0xb0 C:/GCC4/ARM/s002/lib/armv7aLaiv/libc.a(multibyte_amd1.o)
 .debug_aranges
                0x00002180       0x18 C:/GCC4/ARM/s002/lib/armv7aLaiv/libc.a(__isthreaded.o)
 .debug_aranges
                0x00002198       0x20 C:/GCC4/ARM/s002/lib/armv7aLaiv/libc.a(dtoa.o)
 .debug_aranges
                0x000021b8       0x20 C:/GCC4/ARM/s002/lib/armv7aLaiv/libc.a(ldtoa.o)
 .debug_aranges
                0x000021d8       0x28 C:/GCC4/ARM/s002/lib/armv7aLaiv/libc.a(hdtoa.o)
 .debug_aranges
                0x00002200       0x38 C:/GCC4/ARM/s002/lib/armv7aLaiv/libc.a(dmisc.o)
 .debug_aranges
                0x00002238       0x88 C:/GCC4/ARM/s002/lib/armv7aLaiv/libc.a(misc.o)
 .debug_aranges
                0x000022c0      0x108 C:/GCC4/ARM/s002/lib/armv7aLaiv/libc.a(softfloat.o)
 .debug_aranges
                0x000023c8       0x20 C:/GCC4/ARM/s002/lib/armv7aLaiv/libc.a(__aeabi_dcmpeq.o)
 .debug_aranges
                0x000023e8       0x20 C:/GCC4/ARM/s002/lib/armv7aLaiv/libc.a(__aeabi_dcmpge.o)
 .debug_aranges
                0x00002408       0x20 C:/GCC4/ARM/s002/lib/armv7aLaiv/libc.a(__aeabi_dcmpgt.o)
 .debug_aranges
                0x00002428       0x20 C:/GCC4/ARM/s002/lib/armv7aLaiv/libc.a(__aeabi_dcmplt.o)
 .debug_aranges
                0x00002448       0x60 C:/GCC4/ARM/s002/lib/armv7aLaiv/libc.a(rb.o)
 .debug_aranges
                0x000024a8       0x28 C:/GCC4/ARM/s002/lib/armv7aLaiv/libc.a(fflush.o)
 .debug_aranges
                0x000024d0       0x50 C:/GCC4/ARM/s002/lib/armv7aLaiv/libc.a(flockfile.o)
 .debug_aranges
                0x00002520       0x20 C:/GCC4/ARM/s002/lib/armv7aLaiv/libc.a(fvwrite.o)
 .debug_aranges
                0x00002540       0x20 C:/GCC4/ARM/s002/lib/armv7aLaiv/libc.a(fwalk.o)
 .debug_aranges
                0x00002560       0x20 C:/GCC4/ARM/s002/lib/armv7aLaiv/libc.a(creat.o)
 .debug_aranges
                0x00002580       0x20 C:/GCC4/ARM/s002/lib/armv7aLaiv/libc.a(fpclassifyd_ieee754.o)
 .debug_aranges
                0x000025a0       0x20 C:/GCC4/ARM/s002/lib/armv7aLaiv/libc.a(strcasecmp.o)
 .debug_aranges
                0x000025c0       0x18 C:/GCC4/ARM/s002/lib/armv7aLaiv/libc.a(gdtoa_locks.o)
 .debug_aranges
                0x000025d8       0x20 C:/GCC4/ARM/s002/lib/armv7aLaiv/libgcc.a(_divsi3.o)
 .debug_aranges
                0x000025f8       0x20 C:/GCC4/ARM/s002/lib/armv7aLaiv/libgcc.a(_arm_addsubdf3.o)
 .debug_aranges
                0x00002618       0x20 C:/GCC4/ARM/s002/lib/armv7aLaiv/libgcc.a(_aeabi_ldivmod.o)

.debug_pubnames
 *(.debug_pubnames)

.debug_info     0x00000000    0x98c00
 *(.debug_info)
 .debug_info    0x00000000     0x1d41 C:/Users/admin/Documents/SOLID-IDE/Projects/cpptest/Release/exeGCC_SOLID/cpptest/cpptest_all.o
 .debug_info    0x00001d41       0x47 C:/ProgramData/KMC/SOLID/SDK/2.0/solid-os/core/lib/armv7aLaiv/GR_\libsolid_cs.a(solid_cs_asm.o)
 .debug_info    0x00001d88      0x924 C:/ProgramData/KMC/SOLID/SDK/2.0/solid-os/core/lib/armv7aLaiv/GR_\libsolid_cs.a(solid_cs_main.o)
 .debug_info    0x000026ac       0x33 C:/ProgramData/KMC/SOLID/SDK/2.0/solid-os/core/lib/armv7aLaiv/GR_\libsolid_cs.a(kmc_trace_mem_dummy.o)
 .debug_info    0x000026df      0x670 C:/ProgramData/KMC/SOLID/SDK/2.0/solid-os/core/lib/armv7aLaiv/GR_\libsolid_cs.a(solid_cs_event.o)
 .debug_info    0x00002d4f      0x23f C:/ProgramData/KMC/SOLID/SDK/2.0/solid-os/core/lib/armv7aLaiv/GR_\libsolid_cs.a(solid_debugger.o)
 .debug_info    0x00002f8e     0x20a2 C:/ProgramData/KMC/SOLID/SDK/2.0/solid-os/core/lib/armv7aLaiv/GR_\libsolid_cs.a(solid_dmac.o)
 .debug_info    0x00005030      0x3b2 C:/ProgramData/KMC/SOLID/SDK/2.0/solid-os/core/lib/armv7aLaiv/GR_\libsolid_cs.a(solid_exception.o)
 .debug_info    0x000053e2     0x221c C:/ProgramData/KMC/SOLID/SDK/2.0/solid-os/core/lib/armv7aLaiv/GR_\libsolid_cs.a(solid_fs_base.o)
 .debug_info    0x000075fe      0xfce C:/ProgramData/KMC/SOLID/SDK/2.0/solid-os/core/lib/armv7aLaiv/GR_\libsolid_cs.a(solid_fs_mem.o)
 .debug_info    0x000085cc     0x12c3 C:/ProgramData/KMC/SOLID/SDK/2.0/solid-os/core/lib/armv7aLaiv/GR_\libsolid_cs.a(solid_fs_vlink.o)
 .debug_info    0x0000988f     0x3360 C:/ProgramData/KMC/SOLID/SDK/2.0/solid-os/core/lib/armv7aLaiv/GR_\libsolid_cs.a(solid_intc.o)
 .debug_info    0x0000cbef     0x1267 C:/ProgramData/KMC/SOLID/SDK/2.0/solid-os/core/lib/armv7aLaiv/GR_\libsolid_cs.a(solid_iores.o)
 .debug_info    0x0000de56     0x6f45 C:/ProgramData/KMC/SOLID/SDK/2.0/solid-os/core/lib/armv7aLaiv/GR_\libsolid_cs.a(solid_loader.o)
 .debug_info    0x00014d9b      0x31e C:/ProgramData/KMC/SOLID/SDK/2.0/solid-os/core/lib/armv7aLaiv/GR_\libsolid_cs.a(solid_loader_fixed.o)
 .debug_info    0x000150b9      0x7ec C:/ProgramData/KMC/SOLID/SDK/2.0/solid-os/core/lib/armv7aLaiv/GR_\libsolid_cs.a(solid_log.o)
 .debug_info    0x000158a5      0xc54 C:/ProgramData/KMC/SOLID/SDK/2.0/solid-os/core/lib/armv7aLaiv/GR_\libsolid_cs.a(solid_malloc.o)
 .debug_info    0x000164f9     0x4594 C:/ProgramData/KMC/SOLID/SDK/2.0/solid-os/core/lib/armv7aLaiv/GR_\libsolid_cs.a(solid_mem.o)
 .debug_info    0x0001aa8d     0x13a4 C:/ProgramData/KMC/SOLID/SDK/2.0/solid-os/core/lib/armv7aLaiv/GR_\libsolid_cs.a(solid_mem_cache.o)
 .debug_info    0x0001be31      0x7bb C:/ProgramData/KMC/SOLID/SDK/2.0/solid-os/core/lib/armv7aLaiv/GR_\libsolid_cs.a(solid_mutex.o)
 .debug_info    0x0001c5ec      0x1c1 C:/ProgramData/KMC/SOLID/SDK/2.0/solid-os/core/lib/armv7aLaiv/GR_\libsolid_cs.a(solid_rtc.o)
 .debug_info    0x0001c7ad     0x1a89 C:/ProgramData/KMC/SOLID/SDK/2.0/solid-os/core/lib/armv7aLaiv/GR_\libsolid_cs.a(solid_timer.o)
 .debug_info    0x0001e236      0x4bd C:/ProgramData/KMC/SOLID/SDK/2.0/solid-os/core/lib/armv7aLaiv/GR_\libsolid_cs.a(solid_vector.o)
 .debug_info    0x0001e6f3      0x343 C:/ProgramData/KMC/SOLID/SDK/2.0/solid-os/core/lib/armv7aLaiv/GR_\libsolid_cs.a(solid_vlink.o)
 .debug_info    0x0001ea36     0x2564 C:/ProgramData/KMC/SOLID/SDK/2.0/solid-os/core/lib/armv7aLaiv/GR_\libsolid_cs.a(solid_mem_mmu.o)
 .debug_info    0x00020f9a      0x5fa C:/ProgramData/KMC/SOLID/SDK/2.0/solid-os/core/lib/armv7aLaiv/GR_\libsolid_cs.a(kmc_evttracker_core.o)
 .debug_info    0x00021594     0x3d5e C:/ProgramData/KMC/SOLID/SDK/2.0/solid-os/core/lib/armv7aLaiv/GR_\libsolid_cs.a(dlmalloc.o)
 .debug_info    0x000252f2      0x1cf C:/ProgramData/KMC/SOLID/SDK/2.0/solid-os/core/lib/armv7aLaiv/GR_\libsolid_cs.a(solid_asan.o)
 .debug_info    0x000254c1      0x10b C:/ProgramData/KMC/SOLID/SDK/2.0/solid-os/core/lib/armv7aLaiv/GR_\libsolid_cs.a(solid_cs_args.o)
 .debug_info    0x000255cc      0x19a C:/ProgramData/KMC/SOLID/SDK/2.0/solid-os/core/lib/armv7aLaiv/GR_\libsolid_cs.a(tasan.o)
 .debug_info    0x00025766     0x1ad8 C:/Users/admin/Documents/SOLID-IDE/Projects/cpptest/Release/exeGCC_SOLID/\libnet.a(sys_arch.o)
 .debug_info    0x0002723e     0x114b C:/Users/admin/Documents/SOLID-IDE/Projects/cpptest/Release/exeGCC_SOLID/\libnet.a(tcpip.o)
 .debug_info    0x00028389     0x1017 C:/Users/admin/Documents/SOLID-IDE/Projects/cpptest/Release/exeGCC_SOLID/\libnet.a(init.o)
 .debug_info    0x000293a0     0x165c C:/Users/admin/Documents/SOLID-IDE/Projects/cpptest/Release/exeGCC_SOLID/\libnet.a(ip4.o)
 .debug_info    0x0002a9fc      0x9cb C:/Users/admin/Documents/SOLID-IDE/Projects/cpptest/Release/exeGCC_SOLID/\libnet.a(ip4_addr.o)
 .debug_info    0x0002b3c7     0x13b3 C:/Users/admin/Documents/SOLID-IDE/Projects/cpptest/Release/exeGCC_SOLID/\libnet.a(ip4_frag.o)
 .debug_info    0x0002c77a      0x929 C:/Users/admin/Documents/SOLID-IDE/Projects/cpptest/Release/exeGCC_SOLID/\libnet.a(mem.o)
 .debug_info    0x0002d0a3     0x17c7 C:/Users/admin/Documents/SOLID-IDE/Projects/cpptest/Release/exeGCC_SOLID/\libnet.a(memp.o)
 .debug_info    0x0002e86a     0x17ac C:/Users/admin/Documents/SOLID-IDE/Projects/cpptest/Release/exeGCC_SOLID/\libnet.a(netif.o)
 .debug_info    0x00030016     0x235d C:/Users/admin/Documents/SOLID-IDE/Projects/cpptest/Release/exeGCC_SOLID/\libnet.a(pbuf.o)
 .debug_info    0x00032373      0x419 C:/Users/admin/Documents/SOLID-IDE/Projects/cpptest/Release/exeGCC_SOLID/\libnet.a(stats.o)
 .debug_info    0x0003278c     0x28fa C:/Users/admin/Documents/SOLID-IDE/Projects/cpptest/Release/exeGCC_SOLID/\libnet.a(tcp.o)
 .debug_info    0x00035086     0x1db5 C:/Users/admin/Documents/SOLID-IDE/Projects/cpptest/Release/exeGCC_SOLID/\libnet.a(tcp_in.o)
 .debug_info    0x00036e3b     0x21dc C:/Users/admin/Documents/SOLID-IDE/Projects/cpptest/Release/exeGCC_SOLID/\libnet.a(tcp_out.o)
 .debug_info    0x00039017     0x146f C:/Users/admin/Documents/SOLID-IDE/Projects/cpptest/Release/exeGCC_SOLID/\libnet.a(timeouts.o)
 .debug_info    0x0003a486     0x1369 C:/Users/admin/Documents/SOLID-IDE/Projects/cpptest/Release/exeGCC_SOLID/\libnet.a(udp.o)
 .debug_info    0x0003b7ef      0xba7 C:/Users/admin/Documents/SOLID-IDE/Projects/cpptest/Release/exeGCC_SOLID/\libnet.a(ethernet.o)
 .debug_info    0x0003c396      0xaaa C:/Users/admin/Documents/SOLID-IDE/Projects/cpptest/Release/exeGCC_SOLID/\libnet.a(solid_net_if.o)
 .debug_info    0x0003ce40      0x9af C:/Users/admin/Documents/SOLID-IDE/Projects/cpptest/Release/exeGCC_SOLID/\libnet.a(solid_net_registerapi.o)
 .debug_info    0x0003d7ef     0x165a C:/Users/admin/Documents/SOLID-IDE/Projects/cpptest/Release/exeGCC_SOLID/\libnet.a(impl_net_stack.o)
 .debug_info    0x0003ee49      0x91d C:/Users/admin/Documents/SOLID-IDE/Projects/cpptest/Release/exeGCC_SOLID/\libnet.a(ethernetif.o)
 .debug_info    0x0003f766     0x2105 C:/Users/admin/Documents/SOLID-IDE/Projects/cpptest/Release/exeGCC_SOLID/\libnet.a(api_lib.o)
 .debug_info    0x0004186b     0x2d69 C:/Users/admin/Documents/SOLID-IDE/Projects/cpptest/Release/exeGCC_SOLID/\libnet.a(api_msg.o)
 .debug_info    0x000445d4      0x8aa C:/Users/admin/Documents/SOLID-IDE/Projects/cpptest/Release/exeGCC_SOLID/\libnet.a(netbuf.o)
 .debug_info    0x00044e7e      0xc52 C:/Users/admin/Documents/SOLID-IDE/Projects/cpptest/Release/exeGCC_SOLID/\libnet.a(netdb.o)
 .debug_info    0x00045ad0     0x3884 C:/Users/admin/Documents/SOLID-IDE/Projects/cpptest/Release/exeGCC_SOLID/\libnet.a(sockets.o)
 .debug_info    0x00049354      0x37d C:/Users/admin/Documents/SOLID-IDE/Projects/cpptest/Release/exeGCC_SOLID/\libnet.a(def.o)
 .debug_info    0x000496d1     0x1a17 C:/Users/admin/Documents/SOLID-IDE/Projects/cpptest/Release/exeGCC_SOLID/\libnet.a(dns.o)
 .debug_info    0x0004b0e8      0x730 C:/Users/admin/Documents/SOLID-IDE/Projects/cpptest/Release/exeGCC_SOLID/\libnet.a(inet_chksum.o)
 .debug_info    0x0004b818      0x7e3 C:/Users/admin/Documents/SOLID-IDE/Projects/cpptest/Release/exeGCC_SOLID/\libnet.a(ip.o)
 .debug_info    0x0004bffb     0x2afc C:/Users/admin/Documents/SOLID-IDE/Projects/cpptest/Release/exeGCC_SOLID/\libnet.a(dhcp.o)
 .debug_info    0x0004eaf7     0x1978 C:/Users/admin/Documents/SOLID-IDE/Projects/cpptest/Release/exeGCC_SOLID/\libnet.a(etharp.o)
 .debug_info    0x0005046f      0xdbb C:/Users/admin/Documents/SOLID-IDE/Projects/cpptest/Release/exeGCC_SOLID/\libnet.a(icmp.o)
 .debug_info    0x0005122a      0x170 C:/Users/admin/Documents/SOLID-IDE/Projects/cpptest/Release/exeGCC_SOLID/\libnet.a(impl_net_stack_errno.o)
 .debug_info    0x0005139a      0x169 C:/Users/admin/Documents/SOLID-IDE/Projects/cpptest/Release/exeGCC_SOLID/\libnet.a(err.o)
 .debug_info    0x00051503     0x1f9d C:/ProgramData/KMC/SOLID/SDK/2.0/solid-os/rtos/toppers_asp3/lib/armv7aLaiv/GR__\libkernel.a(dataqueue.o)
 .debug_info    0x000534a0     0x1200 C:/ProgramData/KMC/SOLID/SDK/2.0/solid-os/rtos/toppers_asp3/lib/armv7aLaiv/GR__\libkernel.a(interrupt.o)
 .debug_info    0x000546a0      0xa6b C:/ProgramData/KMC/SOLID/SDK/2.0/solid-os/rtos/toppers_asp3/lib/armv7aLaiv/GR__\libkernel.a(tSysLog.o)
 .debug_info    0x0005510b      0x2e7 C:/ProgramData/KMC/SOLID/SDK/2.0/solid-os/rtos/toppers_asp3/lib/armv7aLaiv/GR__\libkernel.a(vasyslog.o)
 .debug_info    0x000553f2     0x1161 C:/ProgramData/KMC/SOLID/SDK/2.0/solid-os/rtos/toppers_asp3/lib/armv7aLaiv/GR__\libkernel.a(semaphore.o)
 .debug_info    0x00056553      0x71b C:/ProgramData/KMC/SOLID/SDK/2.0/solid-os/rtos/toppers_asp3/lib/armv7aLaiv/GR__\libkernel.a(startup.o)
 .debug_info    0x00056c6e      0xec9 C:/ProgramData/KMC/SOLID/SDK/2.0/solid-os/rtos/toppers_asp3/lib/armv7aLaiv/GR__\libkernel.a(sys_manage.o)
 .debug_info    0x00057b37     0x1641 C:/ProgramData/KMC/SOLID/SDK/2.0/solid-os/rtos/toppers_asp3/lib/armv7aLaiv/GR__\libkernel.a(task.o)
 .debug_info    0x00059178      0x743 C:/ProgramData/KMC/SOLID/SDK/2.0/solid-os/rtos/toppers_asp3/lib/armv7aLaiv/GR__\libkernel.a(taskhook.o)
 .debug_info    0x000598bb      0xfd9 C:/ProgramData/KMC/SOLID/SDK/2.0/solid-os/rtos/toppers_asp3/lib/armv7aLaiv/GR__\libkernel.a(task_manage.o)
 .debug_info    0x0005a894      0xb5f C:/ProgramData/KMC/SOLID/SDK/2.0/solid-os/rtos/toppers_asp3/lib/armv7aLaiv/GR__\libkernel.a(time_event.o)
 .debug_info    0x0005b3f3     0x11ea C:/ProgramData/KMC/SOLID/SDK/2.0/solid-os/rtos/toppers_asp3/lib/armv7aLaiv/GR__\libkernel.a(wait.o)
 .debug_info    0x0005c5dd      0x132 C:/ProgramData/KMC/SOLID/SDK/2.0/solid-os/rtos/toppers_asp3/lib/armv7aLaiv/GR__\libkernel.a(solid_rtos_registerapi.o)
 .debug_info    0x0005c70f      0x1b5 C:/ProgramData/KMC/SOLID/SDK/2.0/solid-os/rtos/toppers_asp3/lib/armv7aLaiv/GR__\libkernel.a(target_fput_log.o)
 .debug_info    0x0005c8c4      0xb2b C:/ProgramData/KMC/SOLID/SDK/2.0/solid-os/rtos/toppers_asp3/lib/armv7aLaiv/GR__\libkernel.a(target_intc_impl.o)
 .debug_info    0x0005d3ef      0x97d C:/ProgramData/KMC/SOLID/SDK/2.0/solid-os/rtos/toppers_asp3/lib/armv7aLaiv/GR__\libkernel.a(target_timer_impl.o)
 .debug_info    0x0005dd6c      0xd20 C:/ProgramData/KMC/SOLID/SDK/2.0/solid-os/rtos/toppers_asp3/lib/armv7aLaiv/GR__\libkernel.a(kmc_evttracker_rtos.o)
 .debug_info    0x0005ea8c      0xce0 C:/ProgramData/KMC/SOLID/SDK/2.0/solid-os/rtos/toppers_asp3/lib/armv7aLaiv/GR__\libkernel.a(rtos_prof.o)
 .debug_info    0x0005f76c       0x81 C:/ProgramData/KMC/SOLID/SDK/2.0/solid-os/rtos/toppers_asp3/lib/armv7aLaiv/GR__\libkernel.a(core_support.o)
 .debug_info    0x0005f7ed     0x13d5 C:/ProgramData/KMC/SOLID/SDK/2.0/solid-os/rtos/toppers_asp3/lib/armv7aLaiv/GR__\libkernel.a(kernel_cfg_intl.o)
 .debug_info    0x00060bc2      0xc5f C:/ProgramData/KMC/SOLID/SDK/2.0/solid-os/rtos/toppers_asp3/lib/armv7aLaiv/GR__\libkernel.a(alarm.o)
 .debug_info    0x00061821      0xe27 C:/ProgramData/KMC/SOLID/SDK/2.0/solid-os/rtos/toppers_asp3/lib/armv7aLaiv/GR__\libkernel.a(core_kernel_impl.o)
 .debug_info    0x00062648      0x8e2 C:/ProgramData/KMC/SOLID/SDK/2.0/solid-os/rtos/toppers_asp3/lib/armv7aLaiv/GR__\libkernel.a(cyclic.o)
 .debug_info    0x00062f2a     0x158f C:/ProgramData/KMC/SOLID/SDK/2.0/solid-os/rtos/toppers_asp3/lib/armv7aLaiv/GR__\libkernel.a(eventflag.o)
 .debug_info    0x000644b9      0x77c C:/ProgramData/KMC/SOLID/SDK/2.0/solid-os/rtos/toppers_asp3/lib/armv7aLaiv/GR__\libkernel.a(exception.o)
 .debug_info    0x00064c35     0x143d C:/ProgramData/KMC/SOLID/SDK/2.0/solid-os/rtos/toppers_asp3/lib/armv7aLaiv/GR__\libkernel.a(mempfix.o)
 .debug_info    0x00066072      0x492 C:/ProgramData/KMC/SOLID/SDK/2.0/solid-os/rtos/toppers_asp3/lib/armv7aLaiv/GR__\libkernel.a(log_output.o)
 .debug_info    0x00066504     0x1894 C:/ProgramData/KMC/SOLID/SDK/2.0/solid-os/rtos/toppers_asp3/lib/armv7aLaiv/GR__\libkernel.a(mutex.o)
 .debug_info    0x00067d98     0x1de1 C:/ProgramData/KMC/SOLID/SDK/2.0/solid-os/rtos/toppers_asp3/lib/armv7aLaiv/GR__\libkernel.a(pridataq.o)
 .debug_info    0x00069b79     0x1018 C:/ProgramData/KMC/SOLID/SDK/2.0/solid-os/rtos/toppers_asp3/lib/armv7aLaiv/GR__\libkernel.a(task_refer.o)
 .debug_info    0x0006ab91     0x1138 C:/ProgramData/KMC/SOLID/SDK/2.0/solid-os/rtos/toppers_asp3/lib/armv7aLaiv/GR__\libkernel.a(task_sync.o)
 .debug_info    0x0006bcc9      0xc26 C:/ProgramData/KMC/SOLID/SDK/2.0/solid-os/rtos/toppers_asp3/lib/armv7aLaiv/GR__\libkernel.a(task_term.o)
 .debug_info    0x0006c8ef      0x760 C:/ProgramData/KMC/SOLID/SDK/2.0/solid-os/rtos/toppers_asp3/lib/armv7aLaiv/GR__\libkernel.a(time_manage.o)
 .debug_info    0x0006d04f      0x1c3 C:/Users/admin/Documents/SOLID-IDE/Projects/cpptest/Release/exeGCC_SOLID/\libbsp.a(impl_cs_event.o)
 .debug_info    0x0006d212      0xae9 C:/Users/admin/Documents/SOLID-IDE/Projects/cpptest/Release/exeGCC_SOLID/\libbsp.a(impl_dmac.o)
 .debug_info    0x0006dcfb      0x424 C:/Users/admin/Documents/SOLID-IDE/Projects/cpptest/Release/exeGCC_SOLID/\libbsp.a(impl_iores.o)
 .debug_info    0x0006e11f      0x195 C:/Users/admin/Documents/SOLID-IDE/Projects/cpptest/Release/exeGCC_SOLID/\libbsp.a(impl_log.o)
 .debug_info    0x0006e2b4     0x1c91 C:/Users/admin/Documents/SOLID-IDE/Projects/cpptest/Release/exeGCC_SOLID/\libbsp.a(impl_net_dev_ether.o)
 .debug_info    0x0006ff45      0x84f C:/Users/admin/Documents/SOLID-IDE/Projects/cpptest/Release/exeGCC_SOLID/\libbsp.a(impl_net_dev_get_macaddr.o)
 .debug_info    0x00070794      0x141 C:/Users/admin/Documents/SOLID-IDE/Projects/cpptest/Release/exeGCC_SOLID/\libbsp.a(impl_net_dev_getconfig.o)
 .debug_info    0x000708d5      0x319 C:/Users/admin/Documents/SOLID-IDE/Projects/cpptest/Release/exeGCC_SOLID/\libbsp.a(impl_rtc.o)
 .debug_info    0x00070bee      0x2bd C:/Users/admin/Documents/SOLID-IDE/Projects/cpptest/Release/exeGCC_SOLID/\libbsp.a(impl_timer.o)
 .debug_info    0x00070eab     0x119c C:/Users/admin/Documents/SOLID-IDE/Projects/cpptest/Release/exeGCC_SOLID/\libbsp.a(rtc.o)
 .debug_info    0x00072047      0xaf9 C:/Users/admin/Documents/SOLID-IDE/Projects/cpptest/Release/exeGCC_SOLID/\libbsp.a(rtc_userdef.o)
 .debug_info    0x00072b40      0x679 C:/Users/admin/Documents/SOLID-IDE/Projects/cpptest/Release/exeGCC_SOLID/\libbsp.a(bsp_globals.o)
 .debug_info    0x000731b9      0x3ec C:/Users/admin/Documents/SOLID-IDE/Projects/cpptest/Release/exeGCC_SOLID/\libbsp.a(rza_io_regrw.o)
 .debug_info    0x000735a5      0xc73 C:/GCC4/ARM/s002/lib/armv7aLaiv\libstdc++.a(class_type_info.o)
 .debug_info    0x00074218      0x3b5 C:/GCC4/ARM/s002/lib/armv7aLaiv\libstdc++.a(atexit_arm.o)
 .debug_info    0x000745cd      0x3a2 C:/GCC4/ARM/s002/lib/armv7aLaiv\libstdc++.a(del_ops.o)
 .debug_info    0x0007496f      0xac5 C:/GCC4/ARM/s002/lib/armv7aLaiv\libstdc++.a(si_class_type_info.o)
 .debug_info    0x00075434      0x8e7 C:/GCC4/ARM/s002/lib/armv7aLaiv\libstdc++.a(del_op.o)
 .debug_info    0x00075d1b      0x816 C:/GCC4/ARM/s002/lib/armv7aLaiv\libstdc++.a(tinfo.o)
 .debug_info    0x00076531       0xec C:/GCC4/ARM/s002/lib/armv7aLaiv/libgcc.a(_udivsi3.o)
 .debug_info    0x0007661d       0xec C:/GCC4/ARM/s002/lib/armv7aLaiv/libgcc.a(_dvmd_tls.o)
 .debug_info    0x00076709       0xe8 C:/GCC4/ARM/s002/lib/armv7aLaiv/libgcc.a(_aeabi_uldivmod.o)
 .debug_info    0x000767f1      0xc82 C:/GCC4/ARM/s002/lib/armv7aLaiv/libgcc.a(_udivmoddi4.o)
 .debug_info    0x00077473     0x15ff C:/GCC4/ARM/s002/lib/armv7aLaiv/libgcc.a(unwind-arm.o)
 .debug_info    0x00078a72       0xec C:/GCC4/ARM/s002/lib/armv7aLaiv/libgcc.a(libunwind.o)
 .debug_info    0x00078b5e      0x5c3 C:/GCC4/ARM/s002/lib/armv7aLaiv/libgcc.a(pr-support.o)
 .debug_info    0x00079121      0x424 C:/GCC4/ARM/s002/lib/armv7aLaiv/libc.a(_m_init.o)
 .debug_info    0x00079545      0x181 C:/GCC4/ARM/s002/lib/armv7aLaiv/libc.a(abort.o)
 .debug_info    0x000796c6       0xe6 C:/GCC4/ARM/s002/lib/armv7aLaiv/libc.a(errno.o)
 .debug_info    0x000797ac       0xc9 C:/GCC4/ARM/s002/lib/armv7aLaiv/libc.a(atoi.o)
 .debug_info    0x00079875       0xf6 C:/GCC4/ARM/s002/lib/armv7aLaiv/libc.a(rand.o)
 .debug_info    0x0007996b      0x51b C:/GCC4/ARM/s002/lib/armv7aLaiv/libc.a(strtol.o)
 .debug_info    0x00079e86      0x513 C:/GCC4/ARM/s002/lib/armv7aLaiv/libc.a(strtoul.o)
 .debug_info    0x0007a399      0x3ed C:/GCC4/ARM/s002/lib/armv7aLaiv/libc.a(atexit.o)
 .debug_info    0x0007a786       0xc2 C:/GCC4/ARM/s002/lib/armv7aLaiv/libc.a(memcmp.o)
 .debug_info    0x0007a848       0xc6 C:/GCC4/ARM/s002/lib/armv7aLaiv/libc.a(memcpy.o)
 .debug_info    0x0007a90e       0xc2 C:/GCC4/ARM/s002/lib/armv7aLaiv/libc.a(memset.o)
 .debug_info    0x0007a9d0       0xc6 C:/GCC4/ARM/s002/lib/armv7aLaiv/libc.a(strncpy.o)
 .debug_info    0x0007aa96       0xc2 C:/GCC4/ARM/s002/lib/armv7aLaiv/libc.a(strcmp.o)
 .debug_info    0x0007ab58       0xc3 C:/GCC4/ARM/s002/lib/armv7aLaiv/libc.a(strncmp.o)
 .debug_info    0x0007ac1b       0xc6 C:/GCC4/ARM/s002/lib/armv7aLaiv/libc.a(strlen.o)
 .debug_info    0x0007ace1      0xd7d C:/GCC4/ARM/s002/lib/armv7aLaiv/libc.a(isctype.o)
 .debug_info    0x0007ba5e      0xac4 C:/GCC4/ARM/s002/lib/armv7aLaiv/libc.a(global_locale.o)
 .debug_info    0x0007c522      0xb24 C:/GCC4/ARM/s002/lib/armv7aLaiv/libc.a(runetable.o)
 .debug_info    0x0007d046       0xaa C:/GCC4/ARM/s002/lib/armv7aLaiv/libc.a(thread-stub-init.o)
 .debug_info    0x0007d0f0      0xa24 C:/GCC4/ARM/s002/lib/armv7aLaiv/libc.a(thread-stub.o)
 .debug_info    0x0007db14       0x64 C:/GCC4/ARM/s002/lib/armv7aLaiv/libc.a(ssp_init.o)
 .debug_info    0x0007db78      0x8cc C:/GCC4/ARM/s002/lib/armv7aLaiv/libc.a(findfp.o)
 .debug_info    0x0007e444      0x3c3 C:/GCC4/ARM/s002/lib/armv7aLaiv/libc.a(fprintf.o)
 .debug_info    0x0007e807      0x4ef C:/GCC4/ARM/s002/lib/armv7aLaiv/libc.a(stdio.o)
 .debug_info    0x0007ecf6     0x1f5e C:/GCC4/ARM/s002/lib/armv7aLaiv/libc.a(vfprintf.o)
 .debug_info    0x00080c54      0xa72 C:/GCC4/ARM/s002/lib/armv7aLaiv/libc.a(vsnprintf.o)
 .debug_info    0x000816c6      0x5a6 C:/GCC4/ARM/s002/lib/armv7aLaiv/libc.a(wsetup.o)
 .debug_info    0x00081c6c      0x535 C:/GCC4/ARM/s002/lib/armv7aLaiv/libc.a(makebuf.o)
 .debug_info    0x000821a1      0x1ed C:/GCC4/ARM/s002/lib/armv7aLaiv/libc.a(close.o)
 .debug_info    0x0008238e      0x31f C:/GCC4/ARM/s002/lib/armv7aLaiv/libc.a(fstat.o)
 .debug_info    0x000826ad      0x190 C:/GCC4/ARM/s002/lib/armv7aLaiv/libc.a(lseek.o)
 .debug_info    0x0008283d      0x25f C:/GCC4/ARM/s002/lib/armv7aLaiv/libc.a(open.o)
 .debug_info    0x00082a9c     0x1158 C:/GCC4/ARM/s002/lib/armv7aLaiv/libc.a(osemu.o)
 .debug_info    0x00083bf4      0x217 C:/GCC4/ARM/s002/lib/armv7aLaiv/libc.a(read.o)
 .debug_info    0x00083e0b      0x2cd C:/GCC4/ARM/s002/lib/armv7aLaiv/libc.a(u2dname.o)
 .debug_info    0x000840d8      0x35a C:/GCC4/ARM/s002/lib/armv7aLaiv/libc.a(utime.o)
 .debug_info    0x00084432      0x21f C:/GCC4/ARM/s002/lib/armv7aLaiv/libc.a(write.o)
 .debug_info    0x00084651      0x7d3 C:/GCC4/ARM/s002/lib/armv7aLaiv/libc.a(_env.o)
 .debug_info    0x00084e24      0x417 C:/GCC4/ARM/s002/lib/armv7aLaiv/libc.a(exit.o)
 .debug_info    0x0008523b       0xf6 C:/GCC4/ARM/s002/lib/armv7aLaiv/libc.a(signal.o)
 .debug_info    0x00085331      0x471 C:/GCC4/ARM/s002/lib/armv7aLaiv/libc.a(localtime.o)
 .debug_info    0x000857a2      0x101 C:/GCC4/ARM/s002/lib/armv7aLaiv/libc.a(lldiv.o)
 .debug_info    0x000858a3       0xec C:/GCC4/ARM/s002/lib/armv7aLaiv/libc.a(memchr.o)
 .debug_info    0x0008598f      0x121 C:/GCC4/ARM/s002/lib/armv7aLaiv/libc.a(strcspn.o)
 .debug_info    0x00085ab0      0x175 C:/GCC4/ARM/s002/lib/armv7aLaiv/libc.a(strncasecmp.o)
 .debug_info    0x00085c25       0xf8 C:/GCC4/ARM/s002/lib/armv7aLaiv/libc.a(strdup.o)
 .debug_info    0x00085d1d      0x340 C:/GCC4/ARM/s002/lib/armv7aLaiv/libc.a(ctype_.o)
 .debug_info    0x0008605d      0x340 C:/GCC4/ARM/s002/lib/armv7aLaiv/libc.a(toupper_.o)
 .debug_info    0x0008639d      0x340 C:/GCC4/ARM/s002/lib/armv7aLaiv/libc.a(tolower_.o)
 .debug_info    0x000866dd      0xaef C:/GCC4/ARM/s002/lib/armv7aLaiv/libc.a(citrus_ctype.o)
 .debug_info    0x000871cc     0x1a5f C:/GCC4/ARM/s002/lib/armv7aLaiv/libc.a(citrus_none.o)
 .debug_info    0x00088c2b     0x2cfa C:/GCC4/ARM/s002/lib/armv7aLaiv/libc.a(citrus_mskanji.o)
 .debug_info    0x0008b925     0x2c6e C:/GCC4/ARM/s002/lib/armv7aLaiv/libc.a(citrus_utf8.o)
 .debug_info    0x0008e593      0x3cf C:/GCC4/ARM/s002/lib/armv7aLaiv/libc.a(localeconv.o)
 .debug_info    0x0008e962     0x212e C:/GCC4/ARM/s002/lib/armv7aLaiv/libc.a(multibyte_amd1.o)
 .debug_info    0x00090a90       0x33 C:/GCC4/ARM/s002/lib/armv7aLaiv/libc.a(__isthreaded.o)
 .debug_info    0x00090ac3      0x5fe C:/GCC4/ARM/s002/lib/armv7aLaiv/libc.a(dtoa.o)
 .debug_info    0x000910c1      0x2c4 C:/GCC4/ARM/s002/lib/armv7aLaiv/libc.a(ldtoa.o)
 .debug_info    0x00091385      0x4d6 C:/GCC4/ARM/s002/lib/armv7aLaiv/libc.a(hdtoa.o)
 .debug_info    0x0009185b      0x495 C:/GCC4/ARM/s002/lib/armv7aLaiv/libc.a(dmisc.o)
 .debug_info    0x00091cf0      0xb9c C:/GCC4/ARM/s002/lib/armv7aLaiv/libc.a(misc.o)
 .debug_info    0x0009288c     0x37b1 C:/GCC4/ARM/s002/lib/armv7aLaiv/libc.a(softfloat.o)
 .debug_info    0x0009603d      0x124 C:/GCC4/ARM/s002/lib/armv7aLaiv/libc.a(__aeabi_dcmpeq.o)
 .debug_info    0x00096161      0x124 C:/GCC4/ARM/s002/lib/armv7aLaiv/libc.a(__aeabi_dcmpge.o)
 .debug_info    0x00096285      0x124 C:/GCC4/ARM/s002/lib/armv7aLaiv/libc.a(__aeabi_dcmpgt.o)
 .debug_info    0x000963a9      0x124 C:/GCC4/ARM/s002/lib/armv7aLaiv/libc.a(__aeabi_dcmplt.o)
 .debug_info    0x000964cd      0x999 C:/GCC4/ARM/s002/lib/armv7aLaiv/libc.a(rb.o)
 .debug_info    0x00096e66      0x4c7 C:/GCC4/ARM/s002/lib/armv7aLaiv/libc.a(fflush.o)
 .debug_info    0x0009732d      0x729 C:/GCC4/ARM/s002/lib/armv7aLaiv/libc.a(flockfile.o)
 .debug_info    0x00097a56      0x463 C:/GCC4/ARM/s002/lib/armv7aLaiv/libc.a(fvwrite.o)
 .debug_info    0x00097eb9      0x3ac C:/GCC4/ARM/s002/lib/armv7aLaiv/libc.a(fwalk.o)
 .debug_info    0x00098265      0x1bf C:/GCC4/ARM/s002/lib/armv7aLaiv/libc.a(creat.o)
 .debug_info    0x00098424      0x178 C:/GCC4/ARM/s002/lib/armv7aLaiv/libc.a(fpclassifyd_ieee754.o)
 .debug_info    0x0009859c      0x15f C:/GCC4/ARM/s002/lib/armv7aLaiv/libc.a(strcasecmp.o)
 .debug_info    0x000986fb      0x244 C:/GCC4/ARM/s002/lib/armv7aLaiv/libc.a(gdtoa_locks.o)
 .debug_info    0x0009893f       0xec C:/GCC4/ARM/s002/lib/armv7aLaiv/libgcc.a(_divsi3.o)
 .debug_info    0x00098a2b       0xed C:/GCC4/ARM/s002/lib/armv7aLaiv/libgcc.a(_arm_addsubdf3.o)
 .debug_info    0x00098b18       0xe8 C:/GCC4/ARM/s002/lib/armv7aLaiv/libgcc.a(_aeabi_ldivmod.o)

.debug_abbrev   0x00000000    0x1aaf6
 *(.debug_abbrev)
 .debug_abbrev  0x00000000      0x464 C:/Users/admin/Documents/SOLID-IDE/Projects/cpptest/Release/exeGCC_SOLID/cpptest/cpptest_all.o
 .debug_abbrev  0x00000464       0x12 C:/ProgramData/KMC/SOLID/SDK/2.0/solid-os/core/lib/armv7aLaiv/GR_\libsolid_cs.a(solid_cs_asm.o)
 .debug_abbrev  0x00000476      0x1ef C:/ProgramData/KMC/SOLID/SDK/2.0/solid-os/core/lib/armv7aLaiv/GR_\libsolid_cs.a(solid_cs_main.o)
 .debug_abbrev  0x00000665       0x2a C:/ProgramData/KMC/SOLID/SDK/2.0/solid-os/core/lib/armv7aLaiv/GR_\libsolid_cs.a(kmc_trace_mem_dummy.o)
 .debug_abbrev  0x0000068f      0x1a6 C:/ProgramData/KMC/SOLID/SDK/2.0/solid-os/core/lib/armv7aLaiv/GR_\libsolid_cs.a(solid_cs_event.o)
 .debug_abbrev  0x00000835      0x156 C:/ProgramData/KMC/SOLID/SDK/2.0/solid-os/core/lib/armv7aLaiv/GR_\libsolid_cs.a(solid_debugger.o)
 .debug_abbrev  0x0000098b      0x751 C:/ProgramData/KMC/SOLID/SDK/2.0/solid-os/core/lib/armv7aLaiv/GR_\libsolid_cs.a(solid_dmac.o)
 .debug_abbrev  0x000010dc      0x14c C:/ProgramData/KMC/SOLID/SDK/2.0/solid-os/core/lib/armv7aLaiv/GR_\libsolid_cs.a(solid_exception.o)
 .debug_abbrev  0x00001228      0x5dc C:/ProgramData/KMC/SOLID/SDK/2.0/solid-os/core/lib/armv7aLaiv/GR_\libsolid_cs.a(solid_fs_base.o)
 .debug_abbrev  0x00001804      0x2a1 C:/ProgramData/KMC/SOLID/SDK/2.0/solid-os/core/lib/armv7aLaiv/GR_\libsolid_cs.a(solid_fs_mem.o)
 .debug_abbrev  0x00001aa5      0x2ac C:/ProgramData/KMC/SOLID/SDK/2.0/solid-os/core/lib/armv7aLaiv/GR_\libsolid_cs.a(solid_fs_vlink.o)
 .debug_abbrev  0x00001d51      0x4bf C:/ProgramData/KMC/SOLID/SDK/2.0/solid-os/core/lib/armv7aLaiv/GR_\libsolid_cs.a(solid_intc.o)
 .debug_abbrev  0x00002210      0x5fc C:/ProgramData/KMC/SOLID/SDK/2.0/solid-os/core/lib/armv7aLaiv/GR_\libsolid_cs.a(solid_iores.o)
 .debug_abbrev  0x0000280c      0x892 C:/ProgramData/KMC/SOLID/SDK/2.0/solid-os/core/lib/armv7aLaiv/GR_\libsolid_cs.a(solid_loader.o)
 .debug_abbrev  0x0000309e      0x10b C:/ProgramData/KMC/SOLID/SDK/2.0/solid-os/core/lib/armv7aLaiv/GR_\libsolid_cs.a(solid_loader_fixed.o)
 .debug_abbrev  0x000031a9      0x2a7 C:/ProgramData/KMC/SOLID/SDK/2.0/solid-os/core/lib/armv7aLaiv/GR_\libsolid_cs.a(solid_log.o)
 .debug_abbrev  0x00003450      0x1ef C:/ProgramData/KMC/SOLID/SDK/2.0/solid-os/core/lib/armv7aLaiv/GR_\libsolid_cs.a(solid_malloc.o)
 .debug_abbrev  0x0000363f      0x78f C:/ProgramData/KMC/SOLID/SDK/2.0/solid-os/core/lib/armv7aLaiv/GR_\libsolid_cs.a(solid_mem.o)
 .debug_abbrev  0x00003dce      0x3f5 C:/ProgramData/KMC/SOLID/SDK/2.0/solid-os/core/lib/armv7aLaiv/GR_\libsolid_cs.a(solid_mem_cache.o)
 .debug_abbrev  0x000041c3      0x22f C:/ProgramData/KMC/SOLID/SDK/2.0/solid-os/core/lib/armv7aLaiv/GR_\libsolid_cs.a(solid_mutex.o)
 .debug_abbrev  0x000043f2       0xcd C:/ProgramData/KMC/SOLID/SDK/2.0/solid-os/core/lib/armv7aLaiv/GR_\libsolid_cs.a(solid_rtc.o)
 .debug_abbrev  0x000044bf      0x575 C:/ProgramData/KMC/SOLID/SDK/2.0/solid-os/core/lib/armv7aLaiv/GR_\libsolid_cs.a(solid_timer.o)
 .debug_abbrev  0x00004a34      0x249 C:/ProgramData/KMC/SOLID/SDK/2.0/solid-os/core/lib/armv7aLaiv/GR_\libsolid_cs.a(solid_vector.o)
 .debug_abbrev  0x00004c7d      0x23b C:/ProgramData/KMC/SOLID/SDK/2.0/solid-os/core/lib/armv7aLaiv/GR_\libsolid_cs.a(solid_vlink.o)
 .debug_abbrev  0x00004eb8      0x4f0 C:/ProgramData/KMC/SOLID/SDK/2.0/solid-os/core/lib/armv7aLaiv/GR_\libsolid_cs.a(solid_mem_mmu.o)
 .debug_abbrev  0x000053a8      0x211 C:/ProgramData/KMC/SOLID/SDK/2.0/solid-os/core/lib/armv7aLaiv/GR_\libsolid_cs.a(kmc_evttracker_core.o)
 .debug_abbrev  0x000055b9      0x3fb C:/ProgramData/KMC/SOLID/SDK/2.0/solid-os/core/lib/armv7aLaiv/GR_\libsolid_cs.a(dlmalloc.o)
 .debug_abbrev  0x000059b4      0x138 C:/ProgramData/KMC/SOLID/SDK/2.0/solid-os/core/lib/armv7aLaiv/GR_\libsolid_cs.a(solid_asan.o)
 .debug_abbrev  0x00005aec       0x83 C:/ProgramData/KMC/SOLID/SDK/2.0/solid-os/core/lib/armv7aLaiv/GR_\libsolid_cs.a(solid_cs_args.o)
 .debug_abbrev  0x00005b6f       0xf0 C:/ProgramData/KMC/SOLID/SDK/2.0/solid-os/core/lib/armv7aLaiv/GR_\libsolid_cs.a(tasan.o)
 .debug_abbrev  0x00005c5f      0x443 C:/Users/admin/Documents/SOLID-IDE/Projects/cpptest/Release/exeGCC_SOLID/\libnet.a(sys_arch.o)
 .debug_abbrev  0x000060a2      0x36a C:/Users/admin/Documents/SOLID-IDE/Projects/cpptest/Release/exeGCC_SOLID/\libnet.a(tcpip.o)
 .debug_abbrev  0x0000640c      0x1c2 C:/Users/admin/Documents/SOLID-IDE/Projects/cpptest/Release/exeGCC_SOLID/\libnet.a(init.o)
 .debug_abbrev  0x000065ce      0x30a C:/Users/admin/Documents/SOLID-IDE/Projects/cpptest/Release/exeGCC_SOLID/\libnet.a(ip4.o)
 .debug_abbrev  0x000068d8      0x276 C:/Users/admin/Documents/SOLID-IDE/Projects/cpptest/Release/exeGCC_SOLID/\libnet.a(ip4_addr.o)
 .debug_abbrev  0x00006b4e      0x362 C:/Users/admin/Documents/SOLID-IDE/Projects/cpptest/Release/exeGCC_SOLID/\libnet.a(ip4_frag.o)
 .debug_abbrev  0x00006eb0      0x297 C:/Users/admin/Documents/SOLID-IDE/Projects/cpptest/Release/exeGCC_SOLID/\libnet.a(mem.o)
 .debug_abbrev  0x00007147      0x348 C:/Users/admin/Documents/SOLID-IDE/Projects/cpptest/Release/exeGCC_SOLID/\libnet.a(memp.o)
 .debug_abbrev  0x0000748f      0x3b0 C:/Users/admin/Documents/SOLID-IDE/Projects/cpptest/Release/exeGCC_SOLID/\libnet.a(netif.o)
 .debug_abbrev  0x0000783f      0x46d C:/Users/admin/Documents/SOLID-IDE/Projects/cpptest/Release/exeGCC_SOLID/\libnet.a(pbuf.o)
 .debug_abbrev  0x00007cac      0x11f C:/Users/admin/Documents/SOLID-IDE/Projects/cpptest/Release/exeGCC_SOLID/\libnet.a(stats.o)
 .debug_abbrev  0x00007dcb      0x4b9 C:/Users/admin/Documents/SOLID-IDE/Projects/cpptest/Release/exeGCC_SOLID/\libnet.a(tcp.o)
 .debug_abbrev  0x00008284      0x39b C:/Users/admin/Documents/SOLID-IDE/Projects/cpptest/Release/exeGCC_SOLID/\libnet.a(tcp_in.o)
 .debug_abbrev  0x0000861f      0x44e C:/Users/admin/Documents/SOLID-IDE/Projects/cpptest/Release/exeGCC_SOLID/\libnet.a(tcp_out.o)
 .debug_abbrev  0x00008a6d      0x357 C:/Users/admin/Documents/SOLID-IDE/Projects/cpptest/Release/exeGCC_SOLID/\libnet.a(timeouts.o)
 .debug_abbrev  0x00008dc4      0x3f3 C:/Users/admin/Documents/SOLID-IDE/Projects/cpptest/Release/exeGCC_SOLID/\libnet.a(udp.o)
 .debug_abbrev  0x000091b7      0x257 C:/Users/admin/Documents/SOLID-IDE/Projects/cpptest/Release/exeGCC_SOLID/\libnet.a(ethernet.o)
 .debug_abbrev  0x0000940e      0x383 C:/Users/admin/Documents/SOLID-IDE/Projects/cpptest/Release/exeGCC_SOLID/\libnet.a(solid_net_if.o)
 .debug_abbrev  0x00009791      0x18e C:/Users/admin/Documents/SOLID-IDE/Projects/cpptest/Release/exeGCC_SOLID/\libnet.a(solid_net_registerapi.o)
 .debug_abbrev  0x0000991f      0x400 C:/Users/admin/Documents/SOLID-IDE/Projects/cpptest/Release/exeGCC_SOLID/\libnet.a(impl_net_stack.o)
 .debug_abbrev  0x00009d1f      0x263 C:/Users/admin/Documents/SOLID-IDE/Projects/cpptest/Release/exeGCC_SOLID/\libnet.a(ethernetif.o)
 .debug_abbrev  0x00009f82      0x3c2 C:/Users/admin/Documents/SOLID-IDE/Projects/cpptest/Release/exeGCC_SOLID/\libnet.a(api_lib.o)
 .debug_abbrev  0x0000a344      0x455 C:/Users/admin/Documents/SOLID-IDE/Projects/cpptest/Release/exeGCC_SOLID/\libnet.a(api_msg.o)
 .debug_abbrev  0x0000a799      0x1c2 C:/Users/admin/Documents/SOLID-IDE/Projects/cpptest/Release/exeGCC_SOLID/\libnet.a(netbuf.o)
 .debug_abbrev  0x0000a95b      0x291 C:/Users/admin/Documents/SOLID-IDE/Projects/cpptest/Release/exeGCC_SOLID/\libnet.a(netdb.o)
 .debug_abbrev  0x0000abec      0x421 C:/Users/admin/Documents/SOLID-IDE/Projects/cpptest/Release/exeGCC_SOLID/\libnet.a(sockets.o)
 .debug_abbrev  0x0000b00d      0x149 C:/Users/admin/Documents/SOLID-IDE/Projects/cpptest/Release/exeGCC_SOLID/\libnet.a(def.o)
 .debug_abbrev  0x0000b156      0x398 C:/Users/admin/Documents/SOLID-IDE/Projects/cpptest/Release/exeGCC_SOLID/\libnet.a(dns.o)
 .debug_abbrev  0x0000b4ee      0x23a C:/Users/admin/Documents/SOLID-IDE/Projects/cpptest/Release/exeGCC_SOLID/\libnet.a(inet_chksum.o)
 .debug_abbrev  0x0000b728      0x136 C:/Users/admin/Documents/SOLID-IDE/Projects/cpptest/Release/exeGCC_SOLID/\libnet.a(ip.o)
 .debug_abbrev  0x0000b85e      0x420 C:/Users/admin/Documents/SOLID-IDE/Projects/cpptest/Release/exeGCC_SOLID/\libnet.a(dhcp.o)
 .debug_abbrev  0x0000bc7e      0x394 C:/Users/admin/Documents/SOLID-IDE/Projects/cpptest/Release/exeGCC_SOLID/\libnet.a(etharp.o)
 .debug_abbrev  0x0000c012      0x2d2 C:/Users/admin/Documents/SOLID-IDE/Projects/cpptest/Release/exeGCC_SOLID/\libnet.a(icmp.o)
 .debug_abbrev  0x0000c2e4      0x118 C:/Users/admin/Documents/SOLID-IDE/Projects/cpptest/Release/exeGCC_SOLID/\libnet.a(impl_net_stack_errno.o)
 .debug_abbrev  0x0000c3fc       0xcb C:/Users/admin/Documents/SOLID-IDE/Projects/cpptest/Release/exeGCC_SOLID/\libnet.a(err.o)
 .debug_abbrev  0x0000c4c7      0x401 C:/ProgramData/KMC/SOLID/SDK/2.0/solid-os/rtos/toppers_asp3/lib/armv7aLaiv/GR__\libkernel.a(dataqueue.o)
 .debug_abbrev  0x0000c8c8      0x3e2 C:/ProgramData/KMC/SOLID/SDK/2.0/solid-os/rtos/toppers_asp3/lib/armv7aLaiv/GR__\libkernel.a(interrupt.o)
 .debug_abbrev  0x0000ccaa      0x294 C:/ProgramData/KMC/SOLID/SDK/2.0/solid-os/rtos/toppers_asp3/lib/armv7aLaiv/GR__\libkernel.a(tSysLog.o)
 .debug_abbrev  0x0000cf3e      0x15f C:/ProgramData/KMC/SOLID/SDK/2.0/solid-os/rtos/toppers_asp3/lib/armv7aLaiv/GR__\libkernel.a(vasyslog.o)
 .debug_abbrev  0x0000d09d      0x363 C:/ProgramData/KMC/SOLID/SDK/2.0/solid-os/rtos/toppers_asp3/lib/armv7aLaiv/GR__\libkernel.a(semaphore.o)
 .debug_abbrev  0x0000d400      0x299 C:/ProgramData/KMC/SOLID/SDK/2.0/solid-os/rtos/toppers_asp3/lib/armv7aLaiv/GR__\libkernel.a(startup.o)
 .debug_abbrev  0x0000d699      0x32e C:/ProgramData/KMC/SOLID/SDK/2.0/solid-os/rtos/toppers_asp3/lib/armv7aLaiv/GR__\libkernel.a(sys_manage.o)
 .debug_abbrev  0x0000d9c7      0x443 C:/ProgramData/KMC/SOLID/SDK/2.0/solid-os/rtos/toppers_asp3/lib/armv7aLaiv/GR__\libkernel.a(task.o)
 .debug_abbrev  0x0000de0a      0x170 C:/ProgramData/KMC/SOLID/SDK/2.0/solid-os/rtos/toppers_asp3/lib/armv7aLaiv/GR__\libkernel.a(taskhook.o)
 .debug_abbrev  0x0000df7a      0x324 C:/ProgramData/KMC/SOLID/SDK/2.0/solid-os/rtos/toppers_asp3/lib/armv7aLaiv/GR__\libkernel.a(task_manage.o)
 .debug_abbrev  0x0000e29e      0x38c C:/ProgramData/KMC/SOLID/SDK/2.0/solid-os/rtos/toppers_asp3/lib/armv7aLaiv/GR__\libkernel.a(time_event.o)
 .debug_abbrev  0x0000e62a      0x345 C:/ProgramData/KMC/SOLID/SDK/2.0/solid-os/rtos/toppers_asp3/lib/armv7aLaiv/GR__\libkernel.a(wait.o)
 .debug_abbrev  0x0000e96f       0xd7 C:/ProgramData/KMC/SOLID/SDK/2.0/solid-os/rtos/toppers_asp3/lib/armv7aLaiv/GR__\libkernel.a(solid_rtos_registerapi.o)
 .debug_abbrev  0x0000ea46      0x10c C:/ProgramData/KMC/SOLID/SDK/2.0/solid-os/rtos/toppers_asp3/lib/armv7aLaiv/GR__\libkernel.a(target_fput_log.o)
 .debug_abbrev  0x0000eb52      0x283 C:/ProgramData/KMC/SOLID/SDK/2.0/solid-os/rtos/toppers_asp3/lib/armv7aLaiv/GR__\libkernel.a(target_intc_impl.o)
 .debug_abbrev  0x0000edd5      0x27c C:/ProgramData/KMC/SOLID/SDK/2.0/solid-os/rtos/toppers_asp3/lib/armv7aLaiv/GR__\libkernel.a(target_timer_impl.o)
 .debug_abbrev  0x0000f051      0x214 C:/ProgramData/KMC/SOLID/SDK/2.0/solid-os/rtos/toppers_asp3/lib/armv7aLaiv/GR__\libkernel.a(kmc_evttracker_rtos.o)
 .debug_abbrev  0x0000f265      0x330 C:/ProgramData/KMC/SOLID/SDK/2.0/solid-os/rtos/toppers_asp3/lib/armv7aLaiv/GR__\libkernel.a(rtos_prof.o)
 .debug_abbrev  0x0000f595       0x14 C:/ProgramData/KMC/SOLID/SDK/2.0/solid-os/rtos/toppers_asp3/lib/armv7aLaiv/GR__\libkernel.a(core_support.o)
 .debug_abbrev  0x0000f5a9      0x1ff C:/ProgramData/KMC/SOLID/SDK/2.0/solid-os/rtos/toppers_asp3/lib/armv7aLaiv/GR__\libkernel.a(kernel_cfg_intl.o)
 .debug_abbrev  0x0000f7a8      0x30c C:/ProgramData/KMC/SOLID/SDK/2.0/solid-os/rtos/toppers_asp3/lib/armv7aLaiv/GR__\libkernel.a(alarm.o)
 .debug_abbrev  0x0000fab4      0x305 C:/ProgramData/KMC/SOLID/SDK/2.0/solid-os/rtos/toppers_asp3/lib/armv7aLaiv/GR__\libkernel.a(core_kernel_impl.o)
 .debug_abbrev  0x0000fdb9      0x2a1 C:/ProgramData/KMC/SOLID/SDK/2.0/solid-os/rtos/toppers_asp3/lib/armv7aLaiv/GR__\libkernel.a(cyclic.o)
 .debug_abbrev  0x0001005a      0x399 C:/ProgramData/KMC/SOLID/SDK/2.0/solid-os/rtos/toppers_asp3/lib/armv7aLaiv/GR__\libkernel.a(eventflag.o)
 .debug_abbrev  0x000103f3      0x1f5 C:/ProgramData/KMC/SOLID/SDK/2.0/solid-os/rtos/toppers_asp3/lib/armv7aLaiv/GR__\libkernel.a(exception.o)
 .debug_abbrev  0x000105e8      0x3cd C:/ProgramData/KMC/SOLID/SDK/2.0/solid-os/rtos/toppers_asp3/lib/armv7aLaiv/GR__\libkernel.a(mempfix.o)
 .debug_abbrev  0x000109b5      0x1a1 C:/ProgramData/KMC/SOLID/SDK/2.0/solid-os/rtos/toppers_asp3/lib/armv7aLaiv/GR__\libkernel.a(log_output.o)
 .debug_abbrev  0x00010b56      0x432 C:/ProgramData/KMC/SOLID/SDK/2.0/solid-os/rtos/toppers_asp3/lib/armv7aLaiv/GR__\libkernel.a(mutex.o)
 .debug_abbrev  0x00010f88      0x3f2 C:/ProgramData/KMC/SOLID/SDK/2.0/solid-os/rtos/toppers_asp3/lib/armv7aLaiv/GR__\libkernel.a(pridataq.o)
 .debug_abbrev  0x0001137a      0x23e C:/ProgramData/KMC/SOLID/SDK/2.0/solid-os/rtos/toppers_asp3/lib/armv7aLaiv/GR__\libkernel.a(task_refer.o)
 .debug_abbrev  0x000115b8      0x389 C:/ProgramData/KMC/SOLID/SDK/2.0/solid-os/rtos/toppers_asp3/lib/armv7aLaiv/GR__\libkernel.a(task_sync.o)
 .debug_abbrev  0x00011941      0x339 C:/ProgramData/KMC/SOLID/SDK/2.0/solid-os/rtos/toppers_asp3/lib/armv7aLaiv/GR__\libkernel.a(task_term.o)
 .debug_abbrev  0x00011c7a      0x229 C:/ProgramData/KMC/SOLID/SDK/2.0/solid-os/rtos/toppers_asp3/lib/armv7aLaiv/GR__\libkernel.a(time_manage.o)
 .debug_abbrev  0x00011ea3      0x106 C:/Users/admin/Documents/SOLID-IDE/Projects/cpptest/Release/exeGCC_SOLID/\libbsp.a(impl_cs_event.o)
 .debug_abbrev  0x00011fa9      0x23c C:/Users/admin/Documents/SOLID-IDE/Projects/cpptest/Release/exeGCC_SOLID/\libbsp.a(impl_dmac.o)
 .debug_abbrev  0x000121e5       0xbe C:/Users/admin/Documents/SOLID-IDE/Projects/cpptest/Release/exeGCC_SOLID/\libbsp.a(impl_iores.o)
 .debug_abbrev  0x000122a3       0xd6 C:/Users/admin/Documents/SOLID-IDE/Projects/cpptest/Release/exeGCC_SOLID/\libbsp.a(impl_log.o)
 .debug_abbrev  0x00012379      0x4f0 C:/Users/admin/Documents/SOLID-IDE/Projects/cpptest/Release/exeGCC_SOLID/\libbsp.a(impl_net_dev_ether.o)
 .debug_abbrev  0x00012869      0x2ab C:/Users/admin/Documents/SOLID-IDE/Projects/cpptest/Release/exeGCC_SOLID/\libbsp.a(impl_net_dev_get_macaddr.o)
 .debug_abbrev  0x00012b14       0x9d C:/Users/admin/Documents/SOLID-IDE/Projects/cpptest/Release/exeGCC_SOLID/\libbsp.a(impl_net_dev_getconfig.o)
 .debug_abbrev  0x00012bb1      0x11f C:/Users/admin/Documents/SOLID-IDE/Projects/cpptest/Release/exeGCC_SOLID/\libbsp.a(impl_rtc.o)
 .debug_abbrev  0x00012cd0      0x119 C:/Users/admin/Documents/SOLID-IDE/Projects/cpptest/Release/exeGCC_SOLID/\libbsp.a(impl_timer.o)
 .debug_abbrev  0x00012de9      0x28d C:/Users/admin/Documents/SOLID-IDE/Projects/cpptest/Release/exeGCC_SOLID/\libbsp.a(rtc.o)
 .debug_abbrev  0x00013076      0x11a C:/Users/admin/Documents/SOLID-IDE/Projects/cpptest/Release/exeGCC_SOLID/\libbsp.a(rtc_userdef.o)
 .debug_abbrev  0x00013190       0xb3 C:/Users/admin/Documents/SOLID-IDE/Projects/cpptest/Release/exeGCC_SOLID/\libbsp.a(bsp_globals.o)
 .debug_abbrev  0x00013243       0xd0 C:/Users/admin/Documents/SOLID-IDE/Projects/cpptest/Release/exeGCC_SOLID/\libbsp.a(rza_io_regrw.o)
 .debug_abbrev  0x00013313      0x4a4 C:/GCC4/ARM/s002/lib/armv7aLaiv\libstdc++.a(class_type_info.o)
 .debug_abbrev  0x000137b7      0x1de C:/GCC4/ARM/s002/lib/armv7aLaiv\libstdc++.a(atexit_arm.o)
 .debug_abbrev  0x00013995      0x206 C:/GCC4/ARM/s002/lib/armv7aLaiv\libstdc++.a(del_ops.o)
 .debug_abbrev  0x00013b9b      0x3e1 C:/GCC4/ARM/s002/lib/armv7aLaiv\libstdc++.a(si_class_type_info.o)
 .debug_abbrev  0x00013f7c      0x2b4 C:/GCC4/ARM/s002/lib/armv7aLaiv\libstdc++.a(del_op.o)
 .debug_abbrev  0x00014230      0x351 C:/GCC4/ARM/s002/lib/armv7aLaiv\libstdc++.a(tinfo.o)
 .debug_abbrev  0x00014581       0x14 C:/GCC4/ARM/s002/lib/armv7aLaiv/libgcc.a(_udivsi3.o)
 .debug_abbrev  0x00014595       0x14 C:/GCC4/ARM/s002/lib/armv7aLaiv/libgcc.a(_dvmd_tls.o)
 .debug_abbrev  0x000145a9       0x14 C:/GCC4/ARM/s002/lib/armv7aLaiv/libgcc.a(_aeabi_uldivmod.o)
 .debug_abbrev  0x000145bd      0x193 C:/GCC4/ARM/s002/lib/armv7aLaiv/libgcc.a(_udivmoddi4.o)
 .debug_abbrev  0x00014750      0x367 C:/GCC4/ARM/s002/lib/armv7aLaiv/libgcc.a(unwind-arm.o)
 .debug_abbrev  0x00014ab7       0x14 C:/GCC4/ARM/s002/lib/armv7aLaiv/libgcc.a(libunwind.o)
 .debug_abbrev  0x00014acb      0x23d C:/GCC4/ARM/s002/lib/armv7aLaiv/libgcc.a(pr-support.o)
 .debug_abbrev  0x00014d08      0x141 C:/GCC4/ARM/s002/lib/armv7aLaiv/libc.a(_m_init.o)
 .debug_abbrev  0x00014e49       0xd4 C:/GCC4/ARM/s002/lib/armv7aLaiv/libc.a(abort.o)
 .debug_abbrev  0x00014f1d       0x6c C:/GCC4/ARM/s002/lib/armv7aLaiv/libc.a(errno.o)
 .debug_abbrev  0x00014f89       0x80 C:/GCC4/ARM/s002/lib/armv7aLaiv/libc.a(atoi.o)
 .debug_abbrev  0x00015009       0xa1 C:/GCC4/ARM/s002/lib/armv7aLaiv/libc.a(rand.o)
 .debug_abbrev  0x000150aa      0x167 C:/GCC4/ARM/s002/lib/armv7aLaiv/libc.a(strtol.o)
 .debug_abbrev  0x00015211      0x165 C:/GCC4/ARM/s002/lib/armv7aLaiv/libc.a(strtoul.o)
 .debug_abbrev  0x00015376      0x1bc C:/GCC4/ARM/s002/lib/armv7aLaiv/libc.a(atexit.o)
 .debug_abbrev  0x00015532       0x14 C:/GCC4/ARM/s002/lib/armv7aLaiv/libc.a(memcmp.o)
 .debug_abbrev  0x00015546       0x14 C:/GCC4/ARM/s002/lib/armv7aLaiv/libc.a(memcpy.o)
 .debug_abbrev  0x0001555a       0x14 C:/GCC4/ARM/s002/lib/armv7aLaiv/libc.a(memset.o)
 .debug_abbrev  0x0001556e       0x14 C:/GCC4/ARM/s002/lib/armv7aLaiv/libc.a(strncpy.o)
 .debug_abbrev  0x00015582       0x14 C:/GCC4/ARM/s002/lib/armv7aLaiv/libc.a(strcmp.o)
 .debug_abbrev  0x00015596       0x14 C:/GCC4/ARM/s002/lib/armv7aLaiv/libc.a(strncmp.o)
 .debug_abbrev  0x000155aa       0x14 C:/GCC4/ARM/s002/lib/armv7aLaiv/libc.a(strlen.o)
 .debug_abbrev  0x000155be      0x150 C:/GCC4/ARM/s002/lib/armv7aLaiv/libc.a(isctype.o)
 .debug_abbrev  0x0001570e      0x123 C:/GCC4/ARM/s002/lib/armv7aLaiv/libc.a(global_locale.o)
 .debug_abbrev  0x00015831      0x114 C:/GCC4/ARM/s002/lib/armv7aLaiv/libc.a(runetable.o)
 .debug_abbrev  0x00015945       0x5f C:/GCC4/ARM/s002/lib/armv7aLaiv/libc.a(thread-stub-init.o)
 .debug_abbrev  0x000159a4      0x1f9 C:/GCC4/ARM/s002/lib/armv7aLaiv/libc.a(thread-stub.o)
 .debug_abbrev  0x00015b9d       0x62 C:/GCC4/ARM/s002/lib/armv7aLaiv/libc.a(ssp_init.o)
 .debug_abbrev  0x00015bff      0x21e C:/GCC4/ARM/s002/lib/armv7aLaiv/libc.a(findfp.o)
 .debug_abbrev  0x00015e1d      0x13a C:/GCC4/ARM/s002/lib/armv7aLaiv/libc.a(fprintf.o)
 .debug_abbrev  0x00015f57      0x142 C:/GCC4/ARM/s002/lib/armv7aLaiv/libc.a(stdio.o)
 .debug_abbrev  0x00016099      0x395 C:/GCC4/ARM/s002/lib/armv7aLaiv/libc.a(vfprintf.o)
 .debug_abbrev  0x0001642e      0x1f0 C:/GCC4/ARM/s002/lib/armv7aLaiv/libc.a(vsnprintf.o)
 .debug_abbrev  0x0001661e      0x125 C:/GCC4/ARM/s002/lib/armv7aLaiv/libc.a(wsetup.o)
 .debug_abbrev  0x00016743      0x140 C:/GCC4/ARM/s002/lib/armv7aLaiv/libc.a(makebuf.o)
 .debug_abbrev  0x00016883       0xe9 C:/GCC4/ARM/s002/lib/armv7aLaiv/libc.a(close.o)
 .debug_abbrev  0x0001696c      0x116 C:/GCC4/ARM/s002/lib/armv7aLaiv/libc.a(fstat.o)
 .debug_abbrev  0x00016a82       0xc1 C:/GCC4/ARM/s002/lib/armv7aLaiv/libc.a(lseek.o)
 .debug_abbrev  0x00016b43      0x104 C:/GCC4/ARM/s002/lib/armv7aLaiv/libc.a(open.o)
 .debug_abbrev  0x00016c47      0x330 C:/GCC4/ARM/s002/lib/armv7aLaiv/libc.a(osemu.o)
 .debug_abbrev  0x00016f77      0x109 C:/GCC4/ARM/s002/lib/armv7aLaiv/libc.a(read.o)
 .debug_abbrev  0x00017080      0x132 C:/GCC4/ARM/s002/lib/armv7aLaiv/libc.a(u2dname.o)
 .debug_abbrev  0x000171b2      0x13b C:/GCC4/ARM/s002/lib/armv7aLaiv/libc.a(utime.o)
 .debug_abbrev  0x000172ed      0x113 C:/GCC4/ARM/s002/lib/armv7aLaiv/libc.a(write.o)
 .debug_abbrev  0x00017400      0x258 C:/GCC4/ARM/s002/lib/armv7aLaiv/libc.a(_env.o)
 .debug_abbrev  0x00017658      0x131 C:/GCC4/ARM/s002/lib/armv7aLaiv/libc.a(exit.o)
 .debug_abbrev  0x00017789       0xad C:/GCC4/ARM/s002/lib/armv7aLaiv/libc.a(signal.o)
 .debug_abbrev  0x00017836      0x1b1 C:/GCC4/ARM/s002/lib/armv7aLaiv/libc.a(localtime.o)
 .debug_abbrev  0x000179e7       0xc4 C:/GCC4/ARM/s002/lib/armv7aLaiv/libc.a(lldiv.o)
 .debug_abbrev  0x00017aab       0x8f C:/GCC4/ARM/s002/lib/armv7aLaiv/libc.a(memchr.o)
 .debug_abbrev  0x00017b3a       0xb3 C:/GCC4/ARM/s002/lib/armv7aLaiv/libc.a(strcspn.o)
 .debug_abbrev  0x00017bed       0xa0 C:/GCC4/ARM/s002/lib/armv7aLaiv/libc.a(strncasecmp.o)
 .debug_abbrev  0x00017c8d       0x9e C:/GCC4/ARM/s002/lib/armv7aLaiv/libc.a(strdup.o)
 .debug_abbrev  0x00017d2b       0xbf C:/GCC4/ARM/s002/lib/armv7aLaiv/libc.a(ctype_.o)
 .debug_abbrev  0x00017dea       0xbf C:/GCC4/ARM/s002/lib/armv7aLaiv/libc.a(toupper_.o)
 .debug_abbrev  0x00017ea9       0xbf C:/GCC4/ARM/s002/lib/armv7aLaiv/libc.a(tolower_.o)
 .debug_abbrev  0x00017f68      0x195 C:/GCC4/ARM/s002/lib/armv7aLaiv/libc.a(citrus_ctype.o)
 .debug_abbrev  0x000180fd      0x2ff C:/GCC4/ARM/s002/lib/armv7aLaiv/libc.a(citrus_none.o)
 .debug_abbrev  0x000183fc      0x43d C:/GCC4/ARM/s002/lib/armv7aLaiv/libc.a(citrus_mskanji.o)
 .debug_abbrev  0x00018839      0x45d C:/GCC4/ARM/s002/lib/armv7aLaiv/libc.a(citrus_utf8.o)
 .debug_abbrev  0x00018c96      0x13c C:/GCC4/ARM/s002/lib/armv7aLaiv/libc.a(localeconv.o)
 .debug_abbrev  0x00018dd2      0x28b C:/GCC4/ARM/s002/lib/armv7aLaiv/libc.a(multibyte_amd1.o)
 .debug_abbrev  0x0001905d       0x2a C:/GCC4/ARM/s002/lib/armv7aLaiv/libc.a(__isthreaded.o)
 .debug_abbrev  0x00019087      0x1f1 C:/GCC4/ARM/s002/lib/armv7aLaiv/libc.a(dtoa.o)
 .debug_abbrev  0x00019278      0x13a C:/GCC4/ARM/s002/lib/armv7aLaiv/libc.a(ldtoa.o)
 .debug_abbrev  0x000193b2      0x284 C:/GCC4/ARM/s002/lib/armv7aLaiv/libc.a(hdtoa.o)
 .debug_abbrev  0x00019636      0x17e C:/GCC4/ARM/s002/lib/armv7aLaiv/libc.a(dmisc.o)
 .debug_abbrev  0x000197b4      0x2a7 C:/GCC4/ARM/s002/lib/armv7aLaiv/libc.a(misc.o)
 .debug_abbrev  0x00019a5b      0x350 C:/GCC4/ARM/s002/lib/armv7aLaiv/libc.a(softfloat.o)
 .debug_abbrev  0x00019dab       0x8b C:/GCC4/ARM/s002/lib/armv7aLaiv/libc.a(__aeabi_dcmpeq.o)
 .debug_abbrev  0x00019e36       0x8b C:/GCC4/ARM/s002/lib/armv7aLaiv/libc.a(__aeabi_dcmpge.o)
 .debug_abbrev  0x00019ec1       0x8b C:/GCC4/ARM/s002/lib/armv7aLaiv/libc.a(__aeabi_dcmpgt.o)
 .debug_abbrev  0x00019f4c       0x8b C:/GCC4/ARM/s002/lib/armv7aLaiv/libc.a(__aeabi_dcmplt.o)
 .debug_abbrev  0x00019fd7      0x274 C:/GCC4/ARM/s002/lib/armv7aLaiv/libc.a(rb.o)
 .debug_abbrev  0x0001a24b      0x158 C:/GCC4/ARM/s002/lib/armv7aLaiv/libc.a(fflush.o)
 .debug_abbrev  0x0001a3a3      0x1d7 C:/GCC4/ARM/s002/lib/armv7aLaiv/libc.a(flockfile.o)
 .debug_abbrev  0x0001a57a      0x111 C:/GCC4/ARM/s002/lib/armv7aLaiv/libc.a(fvwrite.o)
 .debug_abbrev  0x0001a68b       0xec C:/GCC4/ARM/s002/lib/armv7aLaiv/libc.a(fwalk.o)
 .debug_abbrev  0x0001a777       0xe9 C:/GCC4/ARM/s002/lib/armv7aLaiv/libc.a(creat.o)
 .debug_abbrev  0x0001a860       0xde C:/GCC4/ARM/s002/lib/armv7aLaiv/libc.a(fpclassifyd_ieee754.o)
 .debug_abbrev  0x0001a93e       0x8e C:/GCC4/ARM/s002/lib/armv7aLaiv/libc.a(strcasecmp.o)
 .debug_abbrev  0x0001a9cc       0xee C:/GCC4/ARM/s002/lib/armv7aLaiv/libc.a(gdtoa_locks.o)
 .debug_abbrev  0x0001aaba       0x14 C:/GCC4/ARM/s002/lib/armv7aLaiv/libgcc.a(_divsi3.o)
 .debug_abbrev  0x0001aace       0x14 C:/GCC4/ARM/s002/lib/armv7aLaiv/libgcc.a(_arm_addsubdf3.o)
 .debug_abbrev  0x0001aae2       0x14 C:/GCC4/ARM/s002/lib/armv7aLaiv/libgcc.a(_aeabi_ldivmod.o)

.debug_line     0x00000000    0x2a88d
 *(.debug_line)
 .debug_line    0x00000000      0x7db C:/Users/admin/Documents/SOLID-IDE/Projects/cpptest/Release/exeGCC_SOLID/cpptest/cpptest_all.o
 .debug_line    0x000007db      0x105 C:/ProgramData/KMC/SOLID/SDK/2.0/solid-os/core/lib/armv7aLaiv/GR_\libsolid_cs.a(solid_cs_asm.o)
 .debug_line    0x000008e0      0x2d8 C:/ProgramData/KMC/SOLID/SDK/2.0/solid-os/core/lib/armv7aLaiv/GR_\libsolid_cs.a(solid_cs_main.o)
 .debug_line    0x00000bb8       0x59 C:/ProgramData/KMC/SOLID/SDK/2.0/solid-os/core/lib/armv7aLaiv/GR_\libsolid_cs.a(kmc_trace_mem_dummy.o)
 .debug_line    0x00000c11      0x170 C:/ProgramData/KMC/SOLID/SDK/2.0/solid-os/core/lib/armv7aLaiv/GR_\libsolid_cs.a(solid_cs_event.o)
 .debug_line    0x00000d81       0x74 C:/ProgramData/KMC/SOLID/SDK/2.0/solid-os/core/lib/armv7aLaiv/GR_\libsolid_cs.a(solid_debugger.o)
 .debug_line    0x00000df5      0x676 C:/ProgramData/KMC/SOLID/SDK/2.0/solid-os/core/lib/armv7aLaiv/GR_\libsolid_cs.a(solid_dmac.o)
 .debug_line    0x0000146b       0xab C:/ProgramData/KMC/SOLID/SDK/2.0/solid-os/core/lib/armv7aLaiv/GR_\libsolid_cs.a(solid_exception.o)
 .debug_line    0x00001516      0x5a5 C:/ProgramData/KMC/SOLID/SDK/2.0/solid-os/core/lib/armv7aLaiv/GR_\libsolid_cs.a(solid_fs_base.o)
 .debug_line    0x00001abb      0x237 C:/ProgramData/KMC/SOLID/SDK/2.0/solid-os/core/lib/armv7aLaiv/GR_\libsolid_cs.a(solid_fs_mem.o)
 .debug_line    0x00001cf2      0x29e C:/ProgramData/KMC/SOLID/SDK/2.0/solid-os/core/lib/armv7aLaiv/GR_\libsolid_cs.a(solid_fs_vlink.o)
 .debug_line    0x00001f90      0x748 C:/ProgramData/KMC/SOLID/SDK/2.0/solid-os/core/lib/armv7aLaiv/GR_\libsolid_cs.a(solid_intc.o)
 .debug_line    0x000026d8      0x3bf C:/ProgramData/KMC/SOLID/SDK/2.0/solid-os/core/lib/armv7aLaiv/GR_\libsolid_cs.a(solid_iores.o)
 .debug_line    0x00002a97      0xdeb C:/ProgramData/KMC/SOLID/SDK/2.0/solid-os/core/lib/armv7aLaiv/GR_\libsolid_cs.a(solid_loader.o)
 .debug_line    0x00003882       0xfa C:/ProgramData/KMC/SOLID/SDK/2.0/solid-os/core/lib/armv7aLaiv/GR_\libsolid_cs.a(solid_loader_fixed.o)
 .debug_line    0x0000397c      0x19a C:/ProgramData/KMC/SOLID/SDK/2.0/solid-os/core/lib/armv7aLaiv/GR_\libsolid_cs.a(solid_log.o)
 .debug_line    0x00003b16      0x1ed C:/ProgramData/KMC/SOLID/SDK/2.0/solid-os/core/lib/armv7aLaiv/GR_\libsolid_cs.a(solid_malloc.o)
 .debug_line    0x00003d03      0xa5d C:/ProgramData/KMC/SOLID/SDK/2.0/solid-os/core/lib/armv7aLaiv/GR_\libsolid_cs.a(solid_mem.o)
 .debug_line    0x00004760      0x3c5 C:/ProgramData/KMC/SOLID/SDK/2.0/solid-os/core/lib/armv7aLaiv/GR_\libsolid_cs.a(solid_mem_cache.o)
 .debug_line    0x00004b25      0x156 C:/ProgramData/KMC/SOLID/SDK/2.0/solid-os/core/lib/armv7aLaiv/GR_\libsolid_cs.a(solid_mutex.o)
 .debug_line    0x00004c7b       0x75 C:/ProgramData/KMC/SOLID/SDK/2.0/solid-os/core/lib/armv7aLaiv/GR_\libsolid_cs.a(solid_rtc.o)
 .debug_line    0x00004cf0      0x4e9 C:/ProgramData/KMC/SOLID/SDK/2.0/solid-os/core/lib/armv7aLaiv/GR_\libsolid_cs.a(solid_timer.o)
 .debug_line    0x000051d9      0x175 C:/ProgramData/KMC/SOLID/SDK/2.0/solid-os/core/lib/armv7aLaiv/GR_\libsolid_cs.a(solid_vector.o)
 .debug_line    0x0000534e      0x140 C:/ProgramData/KMC/SOLID/SDK/2.0/solid-os/core/lib/armv7aLaiv/GR_\libsolid_cs.a(solid_vlink.o)
 .debug_line    0x0000548e      0x61c C:/ProgramData/KMC/SOLID/SDK/2.0/solid-os/core/lib/armv7aLaiv/GR_\libsolid_cs.a(solid_mem_mmu.o)
 .debug_line    0x00005aaa      0x1db C:/ProgramData/KMC/SOLID/SDK/2.0/solid-os/core/lib/armv7aLaiv/GR_\libsolid_cs.a(kmc_evttracker_core.o)
 .debug_line    0x00005c85      0xa4b C:/ProgramData/KMC/SOLID/SDK/2.0/solid-os/core/lib/armv7aLaiv/GR_\libsolid_cs.a(dlmalloc.o)
 .debug_line    0x000066d0       0xdd C:/ProgramData/KMC/SOLID/SDK/2.0/solid-os/core/lib/armv7aLaiv/GR_\libsolid_cs.a(solid_asan.o)
 .debug_line    0x000067ad       0x70 C:/ProgramData/KMC/SOLID/SDK/2.0/solid-os/core/lib/armv7aLaiv/GR_\libsolid_cs.a(solid_cs_args.o)
 .debug_line    0x0000681d       0xc4 C:/ProgramData/KMC/SOLID/SDK/2.0/solid-os/core/lib/armv7aLaiv/GR_\libsolid_cs.a(tasan.o)
 .debug_line    0x000068e1      0x7bc C:/Users/admin/Documents/SOLID-IDE/Projects/cpptest/Release/exeGCC_SOLID/\libnet.a(sys_arch.o)
 .debug_line    0x0000709d      0x49c C:/Users/admin/Documents/SOLID-IDE/Projects/cpptest/Release/exeGCC_SOLID/\libnet.a(tcpip.o)
 .debug_line    0x00007539      0x336 C:/Users/admin/Documents/SOLID-IDE/Projects/cpptest/Release/exeGCC_SOLID/\libnet.a(init.o)
 .debug_line    0x0000786f      0x516 C:/Users/admin/Documents/SOLID-IDE/Projects/cpptest/Release/exeGCC_SOLID/\libnet.a(ip4.o)
 .debug_line    0x00007d85      0x3a5 C:/Users/admin/Documents/SOLID-IDE/Projects/cpptest/Release/exeGCC_SOLID/\libnet.a(ip4_addr.o)
 .debug_line    0x0000812a      0x59a C:/Users/admin/Documents/SOLID-IDE/Projects/cpptest/Release/exeGCC_SOLID/\libnet.a(ip4_frag.o)
 .debug_line    0x000086c4      0x41f C:/Users/admin/Documents/SOLID-IDE/Projects/cpptest/Release/exeGCC_SOLID/\libnet.a(mem.o)
 .debug_line    0x00008ae3      0x486 C:/Users/admin/Documents/SOLID-IDE/Projects/cpptest/Release/exeGCC_SOLID/\libnet.a(memp.o)
 .debug_line    0x00008f69      0x4ff C:/Users/admin/Documents/SOLID-IDE/Projects/cpptest/Release/exeGCC_SOLID/\libnet.a(netif.o)
 .debug_line    0x00009468      0x704 C:/Users/admin/Documents/SOLID-IDE/Projects/cpptest/Release/exeGCC_SOLID/\libnet.a(pbuf.o)
 .debug_line    0x00009b6c      0x232 C:/Users/admin/Documents/SOLID-IDE/Projects/cpptest/Release/exeGCC_SOLID/\libnet.a(stats.o)
 .debug_line    0x00009d9e      0xa2c C:/Users/admin/Documents/SOLID-IDE/Projects/cpptest/Release/exeGCC_SOLID/\libnet.a(tcp.o)
 .debug_line    0x0000a7ca      0x938 C:/Users/admin/Documents/SOLID-IDE/Projects/cpptest/Release/exeGCC_SOLID/\libnet.a(tcp_in.o)
 .debug_line    0x0000b102      0x8a6 C:/Users/admin/Documents/SOLID-IDE/Projects/cpptest/Release/exeGCC_SOLID/\libnet.a(tcp_out.o)
 .debug_line    0x0000b9a8      0x481 C:/Users/admin/Documents/SOLID-IDE/Projects/cpptest/Release/exeGCC_SOLID/\libnet.a(timeouts.o)
 .debug_line    0x0000be29      0x522 C:/Users/admin/Documents/SOLID-IDE/Projects/cpptest/Release/exeGCC_SOLID/\libnet.a(udp.o)
 .debug_line    0x0000c34b      0x3da C:/Users/admin/Documents/SOLID-IDE/Projects/cpptest/Release/exeGCC_SOLID/\libnet.a(ethernet.o)
 .debug_line    0x0000c725      0x289 C:/Users/admin/Documents/SOLID-IDE/Projects/cpptest/Release/exeGCC_SOLID/\libnet.a(solid_net_if.o)
 .debug_line    0x0000c9ae      0x355 C:/Users/admin/Documents/SOLID-IDE/Projects/cpptest/Release/exeGCC_SOLID/\libnet.a(solid_net_registerapi.o)
 .debug_line    0x0000cd03      0x57e C:/Users/admin/Documents/SOLID-IDE/Projects/cpptest/Release/exeGCC_SOLID/\libnet.a(impl_net_stack.o)
 .debug_line    0x0000d281      0x3d2 C:/Users/admin/Documents/SOLID-IDE/Projects/cpptest/Release/exeGCC_SOLID/\libnet.a(ethernetif.o)
 .debug_line    0x0000d653      0x6bc C:/Users/admin/Documents/SOLID-IDE/Projects/cpptest/Release/exeGCC_SOLID/\libnet.a(api_lib.o)
 .debug_line    0x0000dd0f      0x9f5 C:/Users/admin/Documents/SOLID-IDE/Projects/cpptest/Release/exeGCC_SOLID/\libnet.a(api_msg.o)
 .debug_line    0x0000e704      0x2cd C:/Users/admin/Documents/SOLID-IDE/Projects/cpptest/Release/exeGCC_SOLID/\libnet.a(netbuf.o)
 .debug_line    0x0000e9d1      0x3c1 C:/Users/admin/Documents/SOLID-IDE/Projects/cpptest/Release/exeGCC_SOLID/\libnet.a(netdb.o)
 .debug_line    0x0000ed92      0xde7 C:/Users/admin/Documents/SOLID-IDE/Projects/cpptest/Release/exeGCC_SOLID/\libnet.a(sockets.o)
 .debug_line    0x0000fb79      0x240 C:/Users/admin/Documents/SOLID-IDE/Projects/cpptest/Release/exeGCC_SOLID/\libnet.a(def.o)
 .debug_line    0x0000fdb9      0x5c2 C:/Users/admin/Documents/SOLID-IDE/Projects/cpptest/Release/exeGCC_SOLID/\libnet.a(dns.o)
 .debug_line    0x0001037b      0x28a C:/Users/admin/Documents/SOLID-IDE/Projects/cpptest/Release/exeGCC_SOLID/\libnet.a(inet_chksum.o)
 .debug_line    0x00010605      0x2c1 C:/Users/admin/Documents/SOLID-IDE/Projects/cpptest/Release/exeGCC_SOLID/\libnet.a(ip.o)
 .debug_line    0x000108c6      0xc12 C:/Users/admin/Documents/SOLID-IDE/Projects/cpptest/Release/exeGCC_SOLID/\libnet.a(dhcp.o)
 .debug_line    0x000114d8      0x6e1 C:/Users/admin/Documents/SOLID-IDE/Projects/cpptest/Release/exeGCC_SOLID/\libnet.a(etharp.o)
 .debug_line    0x00011bb9      0x3d3 C:/Users/admin/Documents/SOLID-IDE/Projects/cpptest/Release/exeGCC_SOLID/\libnet.a(icmp.o)
 .debug_line    0x00011f8c      0x1ab C:/Users/admin/Documents/SOLID-IDE/Projects/cpptest/Release/exeGCC_SOLID/\libnet.a(impl_net_stack_errno.o)
 .debug_line    0x00012137      0x1be C:/Users/admin/Documents/SOLID-IDE/Projects/cpptest/Release/exeGCC_SOLID/\libnet.a(err.o)
 .debug_line    0x000122f5      0x9b7 C:/ProgramData/KMC/SOLID/SDK/2.0/solid-os/rtos/toppers_asp3/lib/armv7aLaiv/GR__\libkernel.a(dataqueue.o)
 .debug_line    0x00012cac      0x54f C:/ProgramData/KMC/SOLID/SDK/2.0/solid-os/rtos/toppers_asp3/lib/armv7aLaiv/GR__\libkernel.a(interrupt.o)
 .debug_line    0x000131fb      0x2fa C:/ProgramData/KMC/SOLID/SDK/2.0/solid-os/rtos/toppers_asp3/lib/armv7aLaiv/GR__\libkernel.a(tSysLog.o)
 .debug_line    0x000134f5      0x1de C:/ProgramData/KMC/SOLID/SDK/2.0/solid-os/rtos/toppers_asp3/lib/armv7aLaiv/GR__\libkernel.a(vasyslog.o)
 .debug_line    0x000136d3      0x4eb C:/ProgramData/KMC/SOLID/SDK/2.0/solid-os/rtos/toppers_asp3/lib/armv7aLaiv/GR__\libkernel.a(semaphore.o)
 .debug_line    0x00013bbe      0x273 C:/ProgramData/KMC/SOLID/SDK/2.0/solid-os/rtos/toppers_asp3/lib/armv7aLaiv/GR__\libkernel.a(startup.o)
 .debug_line    0x00013e31      0x432 C:/ProgramData/KMC/SOLID/SDK/2.0/solid-os/rtos/toppers_asp3/lib/armv7aLaiv/GR__\libkernel.a(sys_manage.o)
 .debug_line    0x00014263      0x722 C:/ProgramData/KMC/SOLID/SDK/2.0/solid-os/rtos/toppers_asp3/lib/armv7aLaiv/GR__\libkernel.a(task.o)
 .debug_line    0x00014985      0x17a C:/ProgramData/KMC/SOLID/SDK/2.0/solid-os/rtos/toppers_asp3/lib/armv7aLaiv/GR__\libkernel.a(taskhook.o)
 .debug_line    0x00014aff      0x4b6 C:/ProgramData/KMC/SOLID/SDK/2.0/solid-os/rtos/toppers_asp3/lib/armv7aLaiv/GR__\libkernel.a(task_manage.o)
 .debug_line    0x00014fb5      0x43c C:/ProgramData/KMC/SOLID/SDK/2.0/solid-os/rtos/toppers_asp3/lib/armv7aLaiv/GR__\libkernel.a(time_event.o)
 .debug_line    0x000153f1      0x4b2 C:/ProgramData/KMC/SOLID/SDK/2.0/solid-os/rtos/toppers_asp3/lib/armv7aLaiv/GR__\libkernel.a(wait.o)
 .debug_line    0x000158a3       0xc1 C:/ProgramData/KMC/SOLID/SDK/2.0/solid-os/rtos/toppers_asp3/lib/armv7aLaiv/GR__\libkernel.a(solid_rtos_registerapi.o)
 .debug_line    0x00015964      0x104 C:/ProgramData/KMC/SOLID/SDK/2.0/solid-os/rtos/toppers_asp3/lib/armv7aLaiv/GR__\libkernel.a(target_fput_log.o)
 .debug_line    0x00015a68      0x2de C:/ProgramData/KMC/SOLID/SDK/2.0/solid-os/rtos/toppers_asp3/lib/armv7aLaiv/GR__\libkernel.a(target_intc_impl.o)
 .debug_line    0x00015d46      0x24b C:/ProgramData/KMC/SOLID/SDK/2.0/solid-os/rtos/toppers_asp3/lib/armv7aLaiv/GR__\libkernel.a(target_timer_impl.o)
 .debug_line    0x00015f91      0x225 C:/ProgramData/KMC/SOLID/SDK/2.0/solid-os/rtos/toppers_asp3/lib/armv7aLaiv/GR__\libkernel.a(kmc_evttracker_rtos.o)
 .debug_line    0x000161b6      0x2de C:/ProgramData/KMC/SOLID/SDK/2.0/solid-os/rtos/toppers_asp3/lib/armv7aLaiv/GR__\libkernel.a(rtos_prof.o)
 .debug_line    0x00016494       0xeb C:/ProgramData/KMC/SOLID/SDK/2.0/solid-os/rtos/toppers_asp3/lib/armv7aLaiv/GR__\libkernel.a(core_support.o)
 .debug_line    0x0001657f      0x21d C:/ProgramData/KMC/SOLID/SDK/2.0/solid-os/rtos/toppers_asp3/lib/armv7aLaiv/GR__\libkernel.a(kernel_cfg_intl.o)
 .debug_line    0x0001679c      0x348 C:/ProgramData/KMC/SOLID/SDK/2.0/solid-os/rtos/toppers_asp3/lib/armv7aLaiv/GR__\libkernel.a(alarm.o)
 .debug_line    0x00016ae4      0x2a8 C:/ProgramData/KMC/SOLID/SDK/2.0/solid-os/rtos/toppers_asp3/lib/armv7aLaiv/GR__\libkernel.a(core_kernel_impl.o)
 .debug_line    0x00016d8c      0x32b C:/ProgramData/KMC/SOLID/SDK/2.0/solid-os/rtos/toppers_asp3/lib/armv7aLaiv/GR__\libkernel.a(cyclic.o)
 .debug_line    0x000170b7      0x5fe C:/ProgramData/KMC/SOLID/SDK/2.0/solid-os/rtos/toppers_asp3/lib/armv7aLaiv/GR__\libkernel.a(eventflag.o)
 .debug_line    0x000176b5      0x1a1 C:/ProgramData/KMC/SOLID/SDK/2.0/solid-os/rtos/toppers_asp3/lib/armv7aLaiv/GR__\libkernel.a(exception.o)
 .debug_line    0x00017856      0x61d C:/ProgramData/KMC/SOLID/SDK/2.0/solid-os/rtos/toppers_asp3/lib/armv7aLaiv/GR__\libkernel.a(mempfix.o)
 .debug_line    0x00017e73      0x182 C:/ProgramData/KMC/SOLID/SDK/2.0/solid-os/rtos/toppers_asp3/lib/armv7aLaiv/GR__\libkernel.a(log_output.o)
 .debug_line    0x00017ff5      0x87d C:/ProgramData/KMC/SOLID/SDK/2.0/solid-os/rtos/toppers_asp3/lib/armv7aLaiv/GR__\libkernel.a(mutex.o)
 .debug_line    0x00018872      0x8e6 C:/ProgramData/KMC/SOLID/SDK/2.0/solid-os/rtos/toppers_asp3/lib/armv7aLaiv/GR__\libkernel.a(pridataq.o)
 .debug_line    0x00019158      0x290 C:/ProgramData/KMC/SOLID/SDK/2.0/solid-os/rtos/toppers_asp3/lib/armv7aLaiv/GR__\libkernel.a(task_refer.o)
 .debug_line    0x000193e8      0x615 C:/ProgramData/KMC/SOLID/SDK/2.0/solid-os/rtos/toppers_asp3/lib/armv7aLaiv/GR__\libkernel.a(task_sync.o)
 .debug_line    0x000199fd      0x3a3 C:/ProgramData/KMC/SOLID/SDK/2.0/solid-os/rtos/toppers_asp3/lib/armv7aLaiv/GR__\libkernel.a(task_term.o)
 .debug_line    0x00019da0      0x2a7 C:/ProgramData/KMC/SOLID/SDK/2.0/solid-os/rtos/toppers_asp3/lib/armv7aLaiv/GR__\libkernel.a(time_manage.o)
 .debug_line    0x0001a047       0xf7 C:/Users/admin/Documents/SOLID-IDE/Projects/cpptest/Release/exeGCC_SOLID/\libbsp.a(impl_cs_event.o)
 .debug_line    0x0001a13e      0x357 C:/Users/admin/Documents/SOLID-IDE/Projects/cpptest/Release/exeGCC_SOLID/\libbsp.a(impl_dmac.o)
 .debug_line    0x0001a495      0x183 C:/Users/admin/Documents/SOLID-IDE/Projects/cpptest/Release/exeGCC_SOLID/\libbsp.a(impl_iores.o)
 .debug_line    0x0001a618      0x162 C:/Users/admin/Documents/SOLID-IDE/Projects/cpptest/Release/exeGCC_SOLID/\libbsp.a(impl_log.o)
 .debug_line    0x0001a77a      0x80e C:/Users/admin/Documents/SOLID-IDE/Projects/cpptest/Release/exeGCC_SOLID/\libbsp.a(impl_net_dev_ether.o)
 .debug_line    0x0001af88      0x2a0 C:/Users/admin/Documents/SOLID-IDE/Projects/cpptest/Release/exeGCC_SOLID/\libbsp.a(impl_net_dev_get_macaddr.o)
 .debug_line    0x0001b228      0x108 C:/Users/admin/Documents/SOLID-IDE/Projects/cpptest/Release/exeGCC_SOLID/\libbsp.a(impl_net_dev_getconfig.o)
 .debug_line    0x0001b330      0x1c1 C:/Users/admin/Documents/SOLID-IDE/Projects/cpptest/Release/exeGCC_SOLID/\libbsp.a(impl_rtc.o)
 .debug_line    0x0001b4f1      0x16c C:/Users/admin/Documents/SOLID-IDE/Projects/cpptest/Release/exeGCC_SOLID/\libbsp.a(impl_timer.o)
 .debug_line    0x0001b65d      0x4b8 C:/Users/admin/Documents/SOLID-IDE/Projects/cpptest/Release/exeGCC_SOLID/\libbsp.a(rtc.o)
 .debug_line    0x0001bb15      0x26d C:/Users/admin/Documents/SOLID-IDE/Projects/cpptest/Release/exeGCC_SOLID/\libbsp.a(rtc_userdef.o)
 .debug_line    0x0001bd82      0x119 C:/Users/admin/Documents/SOLID-IDE/Projects/cpptest/Release/exeGCC_SOLID/\libbsp.a(bsp_globals.o)
 .debug_line    0x0001be9b      0x15b C:/Users/admin/Documents/SOLID-IDE/Projects/cpptest/Release/exeGCC_SOLID/\libbsp.a(rza_io_regrw.o)
 .debug_line    0x0001bff6      0x39f C:/GCC4/ARM/s002/lib/armv7aLaiv\libstdc++.a(class_type_info.o)
 .debug_line    0x0001c395      0x23a C:/GCC4/ARM/s002/lib/armv7aLaiv\libstdc++.a(atexit_arm.o)
 .debug_line    0x0001c5cf      0x231 C:/GCC4/ARM/s002/lib/armv7aLaiv\libstdc++.a(del_ops.o)
 .debug_line    0x0001c800      0x368 C:/GCC4/ARM/s002/lib/armv7aLaiv\libstdc++.a(si_class_type_info.o)
 .debug_line    0x0001cb68      0x324 C:/GCC4/ARM/s002/lib/armv7aLaiv\libstdc++.a(del_op.o)
 .debug_line    0x0001ce8c      0x33b C:/GCC4/ARM/s002/lib/armv7aLaiv\libstdc++.a(tinfo.o)
 .debug_line    0x0001d1c7       0xbb C:/GCC4/ARM/s002/lib/armv7aLaiv/libgcc.a(_udivsi3.o)
 .debug_line    0x0001d282       0x9e C:/GCC4/ARM/s002/lib/armv7aLaiv/libgcc.a(_dvmd_tls.o)
 .debug_line    0x0001d320       0x9e C:/GCC4/ARM/s002/lib/armv7aLaiv/libgcc.a(_aeabi_uldivmod.o)
 .debug_line    0x0001d3be      0x319 C:/GCC4/ARM/s002/lib/armv7aLaiv/libgcc.a(_udivmoddi4.o)
 .debug_line    0x0001d6d7      0x7e1 C:/GCC4/ARM/s002/lib/armv7aLaiv/libgcc.a(unwind-arm.o)
 .debug_line    0x0001deb8       0xeb C:/GCC4/ARM/s002/lib/armv7aLaiv/libgcc.a(libunwind.o)
 .debug_line    0x0001dfa3      0x263 C:/GCC4/ARM/s002/lib/armv7aLaiv/libgcc.a(pr-support.o)
 .debug_line    0x0001e206      0x243 C:/GCC4/ARM/s002/lib/armv7aLaiv/libc.a(_m_init.o)
 .debug_line    0x0001e449      0x137 C:/GCC4/ARM/s002/lib/armv7aLaiv/libc.a(abort.o)
 .debug_line    0x0001e580       0xe3 C:/GCC4/ARM/s002/lib/armv7aLaiv/libc.a(errno.o)
 .debug_line    0x0001e663      0x11e C:/GCC4/ARM/s002/lib/armv7aLaiv/libc.a(atoi.o)
 .debug_line    0x0001e781      0x131 C:/GCC4/ARM/s002/lib/armv7aLaiv/libc.a(rand.o)
 .debug_line    0x0001e8b2      0x26e C:/GCC4/ARM/s002/lib/armv7aLaiv/libc.a(strtol.o)
 .debug_line    0x0001eb20      0x22e C:/GCC4/ARM/s002/lib/armv7aLaiv/libc.a(strtoul.o)
 .debug_line    0x0001ed4e      0x28e C:/GCC4/ARM/s002/lib/armv7aLaiv/libc.a(atexit.o)
 .debug_line    0x0001efdc       0xbd C:/GCC4/ARM/s002/lib/armv7aLaiv/libc.a(memcmp.o)
 .debug_line    0x0001f099      0x123 C:/GCC4/ARM/s002/lib/armv7aLaiv/libc.a(memcpy.o)
 .debug_line    0x0001f1bc       0xdf C:/GCC4/ARM/s002/lib/armv7aLaiv/libc.a(memset.o)
 .debug_line    0x0001f29b      0x11e C:/GCC4/ARM/s002/lib/armv7aLaiv/libc.a(strncpy.o)
 .debug_line    0x0001f3b9       0x91 C:/GCC4/ARM/s002/lib/armv7aLaiv/libc.a(strcmp.o)
 .debug_line    0x0001f44a       0x99 C:/GCC4/ARM/s002/lib/armv7aLaiv/libc.a(strncmp.o)
 .debug_line    0x0001f4e3       0xa9 C:/GCC4/ARM/s002/lib/armv7aLaiv/libc.a(strlen.o)
 .debug_line    0x0001f58c      0x3dc C:/GCC4/ARM/s002/lib/armv7aLaiv/libc.a(isctype.o)
 .debug_line    0x0001f968      0x1b7 C:/GCC4/ARM/s002/lib/armv7aLaiv/libc.a(global_locale.o)
 .debug_line    0x0001fb1f      0x1fa C:/GCC4/ARM/s002/lib/armv7aLaiv/libc.a(runetable.o)
 .debug_line    0x0001fd19       0xa1 C:/GCC4/ARM/s002/lib/armv7aLaiv/libc.a(thread-stub-init.o)
 .debug_line    0x0001fdba      0x35a C:/GCC4/ARM/s002/lib/armv7aLaiv/libc.a(thread-stub.o)
 .debug_line    0x00020114       0x84 C:/GCC4/ARM/s002/lib/armv7aLaiv/libc.a(ssp_init.o)
 .debug_line    0x00020198      0x2f3 C:/GCC4/ARM/s002/lib/armv7aLaiv/libc.a(findfp.o)
 .debug_line    0x0002048b      0x174 C:/GCC4/ARM/s002/lib/armv7aLaiv/libc.a(fprintf.o)
 .debug_line    0x000205ff      0x215 C:/GCC4/ARM/s002/lib/armv7aLaiv/libc.a(stdio.o)
 .debug_line    0x00020814      0xff6 C:/GCC4/ARM/s002/lib/armv7aLaiv/libc.a(vfprintf.o)
 .debug_line    0x0002180a      0x341 C:/GCC4/ARM/s002/lib/armv7aLaiv/libc.a(vsnprintf.o)
 .debug_line    0x00021b4b      0x263 C:/GCC4/ARM/s002/lib/armv7aLaiv/libc.a(wsetup.o)
 .debug_line    0x00021dae      0x234 C:/GCC4/ARM/s002/lib/armv7aLaiv/libc.a(makebuf.o)
 .debug_line    0x00021fe2      0x12d C:/GCC4/ARM/s002/lib/armv7aLaiv/libc.a(close.o)
 .debug_line    0x0002210f      0x1a1 C:/GCC4/ARM/s002/lib/armv7aLaiv/libc.a(fstat.o)
 .debug_line    0x000222b0      0x152 C:/GCC4/ARM/s002/lib/armv7aLaiv/libc.a(lseek.o)
 .debug_line    0x00022402      0x16e C:/GCC4/ARM/s002/lib/armv7aLaiv/libc.a(open.o)
 .debug_line    0x00022570      0x9a0 C:/GCC4/ARM/s002/lib/armv7aLaiv/libc.a(osemu.o)
 .debug_line    0x00022f10      0x11f C:/GCC4/ARM/s002/lib/armv7aLaiv/libc.a(read.o)
 .debug_line    0x0002302f      0x1e2 C:/GCC4/ARM/s002/lib/armv7aLaiv/libc.a(u2dname.o)
 .debug_line    0x00023211      0x199 C:/GCC4/ARM/s002/lib/armv7aLaiv/libc.a(utime.o)
 .debug_line    0x000233aa      0x12d C:/GCC4/ARM/s002/lib/armv7aLaiv/libc.a(write.o)
 .debug_line    0x000234d7      0x3af C:/GCC4/ARM/s002/lib/armv7aLaiv/libc.a(_env.o)
 .debug_line    0x00023886      0x17f C:/GCC4/ARM/s002/lib/armv7aLaiv/libc.a(exit.o)
 .debug_line    0x00023a05       0xd8 C:/GCC4/ARM/s002/lib/armv7aLaiv/libc.a(signal.o)
 .debug_line    0x00023add      0x225 C:/GCC4/ARM/s002/lib/armv7aLaiv/libc.a(localtime.o)
 .debug_line    0x00023d02      0x12b C:/GCC4/ARM/s002/lib/armv7aLaiv/libc.a(lldiv.o)
 .debug_line    0x00023e2d       0xd3 C:/GCC4/ARM/s002/lib/armv7aLaiv/libc.a(memchr.o)
 .debug_line    0x00023f00      0x148 C:/GCC4/ARM/s002/lib/armv7aLaiv/libc.a(strcspn.o)
 .debug_line    0x00024048      0x132 C:/GCC4/ARM/s002/lib/armv7aLaiv/libc.a(strncasecmp.o)
 .debug_line    0x0002417a      0x131 C:/GCC4/ARM/s002/lib/armv7aLaiv/libc.a(strdup.o)
 .debug_line    0x000242ab       0xe0 C:/GCC4/ARM/s002/lib/armv7aLaiv/libc.a(ctype_.o)
 .debug_line    0x0002438b       0xe0 C:/GCC4/ARM/s002/lib/armv7aLaiv/libc.a(toupper_.o)
 .debug_line    0x0002446b       0xe0 C:/GCC4/ARM/s002/lib/armv7aLaiv/libc.a(tolower_.o)
 .debug_line    0x0002454b      0x22e C:/GCC4/ARM/s002/lib/armv7aLaiv/libc.a(citrus_ctype.o)
 .debug_line    0x00024779      0x582 C:/GCC4/ARM/s002/lib/armv7aLaiv/libc.a(citrus_none.o)
 .debug_line    0x00024cfb      0x9f4 C:/GCC4/ARM/s002/lib/armv7aLaiv/libc.a(citrus_mskanji.o)
 .debug_line    0x000256ef      0x9f9 C:/GCC4/ARM/s002/lib/armv7aLaiv/libc.a(citrus_utf8.o)
 .debug_line    0x000260e8      0x16a C:/GCC4/ARM/s002/lib/armv7aLaiv/libc.a(localeconv.o)
 .debug_line    0x00026252      0x5b8 C:/GCC4/ARM/s002/lib/armv7aLaiv/libc.a(multibyte_amd1.o)
 .debug_line    0x0002680a       0x7c C:/GCC4/ARM/s002/lib/armv7aLaiv/libc.a(__isthreaded.o)
 .debug_line    0x00026886      0x586 C:/GCC4/ARM/s002/lib/armv7aLaiv/libc.a(dtoa.o)
 .debug_line    0x00026e0c      0x20c C:/GCC4/ARM/s002/lib/armv7aLaiv/libc.a(ldtoa.o)
 .debug_line    0x00027018      0x2b4 C:/GCC4/ARM/s002/lib/armv7aLaiv/libc.a(hdtoa.o)
 .debug_line    0x000272cc      0x2bb C:/GCC4/ARM/s002/lib/armv7aLaiv/libc.a(dmisc.o)
 .debug_line    0x00027587      0x547 C:/GCC4/ARM/s002/lib/armv7aLaiv/libc.a(misc.o)
 .debug_line    0x00027ace     0x12ee C:/GCC4/ARM/s002/lib/armv7aLaiv/libc.a(softfloat.o)
 .debug_line    0x00028dbc      0x14a C:/GCC4/ARM/s002/lib/armv7aLaiv/libc.a(__aeabi_dcmpeq.o)
 .debug_line    0x00028f06      0x150 C:/GCC4/ARM/s002/lib/armv7aLaiv/libc.a(__aeabi_dcmpge.o)
 .debug_line    0x00029056      0x150 C:/GCC4/ARM/s002/lib/armv7aLaiv/libc.a(__aeabi_dcmpgt.o)
 .debug_line    0x000291a6      0x14a C:/GCC4/ARM/s002/lib/armv7aLaiv/libc.a(__aeabi_dcmplt.o)
 .debug_line    0x000292f0      0x385 C:/GCC4/ARM/s002/lib/armv7aLaiv/libc.a(rb.o)
 .debug_line    0x00029675      0x269 C:/GCC4/ARM/s002/lib/armv7aLaiv/libc.a(fflush.o)
 .debug_line    0x000298de      0x2ea C:/GCC4/ARM/s002/lib/armv7aLaiv/libc.a(flockfile.o)
 .debug_line    0x00029bc8      0x282 C:/GCC4/ARM/s002/lib/armv7aLaiv/libc.a(fvwrite.o)
 .debug_line    0x00029e4a      0x1bf C:/GCC4/ARM/s002/lib/armv7aLaiv/libc.a(fwalk.o)
 .debug_line    0x0002a009      0x144 C:/GCC4/ARM/s002/lib/armv7aLaiv/libc.a(creat.o)
 .debug_line    0x0002a14d      0x147 C:/GCC4/ARM/s002/lib/armv7aLaiv/libc.a(fpclassifyd_ieee754.o)
 .debug_line    0x0002a294       0xdf C:/GCC4/ARM/s002/lib/armv7aLaiv/libc.a(strcasecmp.o)
 .debug_line    0x0002a373      0x1f9 C:/GCC4/ARM/s002/lib/armv7aLaiv/libc.a(gdtoa_locks.o)
 .debug_line    0x0002a56c       0xc7 C:/GCC4/ARM/s002/lib/armv7aLaiv/libgcc.a(_divsi3.o)
 .debug_line    0x0002a633      0x19e C:/GCC4/ARM/s002/lib/armv7aLaiv/libgcc.a(_arm_addsubdf3.o)
 .debug_line    0x0002a7d1       0xbc C:/GCC4/ARM/s002/lib/armv7aLaiv/libgcc.a(_aeabi_ldivmod.o)

.debug_frame    0x00000000     0xc360
 *(.debug_frame)
 .debug_frame   0x00000000       0xa4 C:/Users/admin/Documents/SOLID-IDE/Projects/cpptest/Release/exeGCC_SOLID/cpptest/cpptest_all.o
 .debug_frame   0x000000a4       0x64 C:/ProgramData/KMC/SOLID/SDK/2.0/solid-os/core/lib/armv7aLaiv/GR_\libsolid_cs.a(solid_cs_main.o)
 .debug_frame   0x00000108       0x20 C:/ProgramData/KMC/SOLID/SDK/2.0/solid-os/core/lib/armv7aLaiv/GR_\libsolid_cs.a(kmc_trace_mem_dummy.o)
 .debug_frame   0x00000128       0x70 C:/ProgramData/KMC/SOLID/SDK/2.0/solid-os/core/lib/armv7aLaiv/GR_\libsolid_cs.a(solid_cs_event.o)
 .debug_frame   0x00000198       0x70 C:/ProgramData/KMC/SOLID/SDK/2.0/solid-os/core/lib/armv7aLaiv/GR_\libsolid_cs.a(solid_debugger.o)
 .debug_frame   0x00000208      0x318 C:/ProgramData/KMC/SOLID/SDK/2.0/solid-os/core/lib/armv7aLaiv/GR_\libsolid_cs.a(solid_dmac.o)
 .debug_frame   0x00000520       0xdc C:/ProgramData/KMC/SOLID/SDK/2.0/solid-os/core/lib/armv7aLaiv/GR_\libsolid_cs.a(solid_exception.o)
 .debug_frame   0x000005fc      0x43c C:/ProgramData/KMC/SOLID/SDK/2.0/solid-os/core/lib/armv7aLaiv/GR_\libsolid_cs.a(solid_fs_base.o)
 .debug_frame   0x00000a38       0xf8 C:/ProgramData/KMC/SOLID/SDK/2.0/solid-os/core/lib/armv7aLaiv/GR_\libsolid_cs.a(solid_fs_mem.o)
 .debug_frame   0x00000b30      0x164 C:/ProgramData/KMC/SOLID/SDK/2.0/solid-os/core/lib/armv7aLaiv/GR_\libsolid_cs.a(solid_fs_vlink.o)
 .debug_frame   0x00000c94      0x4e8 C:/ProgramData/KMC/SOLID/SDK/2.0/solid-os/core/lib/armv7aLaiv/GR_\libsolid_cs.a(solid_intc.o)
 .debug_frame   0x0000117c      0x200 C:/ProgramData/KMC/SOLID/SDK/2.0/solid-os/core/lib/armv7aLaiv/GR_\libsolid_cs.a(solid_iores.o)
 .debug_frame   0x0000137c      0x960 C:/ProgramData/KMC/SOLID/SDK/2.0/solid-os/core/lib/armv7aLaiv/GR_\libsolid_cs.a(solid_loader.o)
 .debug_frame   0x00001cdc       0x2c C:/ProgramData/KMC/SOLID/SDK/2.0/solid-os/core/lib/armv7aLaiv/GR_\libsolid_cs.a(solid_loader_fixed.o)
 .debug_frame   0x00001d08      0x154 C:/ProgramData/KMC/SOLID/SDK/2.0/solid-os/core/lib/armv7aLaiv/GR_\libsolid_cs.a(solid_log.o)
 .debug_frame   0x00001e5c      0x1ac C:/ProgramData/KMC/SOLID/SDK/2.0/solid-os/core/lib/armv7aLaiv/GR_\libsolid_cs.a(solid_malloc.o)
 .debug_frame   0x00002008      0x6ec C:/ProgramData/KMC/SOLID/SDK/2.0/solid-os/core/lib/armv7aLaiv/GR_\libsolid_cs.a(solid_mem.o)
 .debug_frame   0x000026f4      0x1e4 C:/ProgramData/KMC/SOLID/SDK/2.0/solid-os/core/lib/armv7aLaiv/GR_\libsolid_cs.a(solid_mem_cache.o)
 .debug_frame   0x000028d8       0x50 C:/ProgramData/KMC/SOLID/SDK/2.0/solid-os/core/lib/armv7aLaiv/GR_\libsolid_cs.a(solid_mutex.o)
 .debug_frame   0x00002928       0x40 C:/ProgramData/KMC/SOLID/SDK/2.0/solid-os/core/lib/armv7aLaiv/GR_\libsolid_cs.a(solid_rtc.o)
 .debug_frame   0x00002968      0x3cc C:/ProgramData/KMC/SOLID/SDK/2.0/solid-os/core/lib/armv7aLaiv/GR_\libsolid_cs.a(solid_timer.o)
 .debug_frame   0x00002d34       0xb0 C:/ProgramData/KMC/SOLID/SDK/2.0/solid-os/core/lib/armv7aLaiv/GR_\libsolid_cs.a(solid_vector.o)
 .debug_frame   0x00002de4       0x8c C:/ProgramData/KMC/SOLID/SDK/2.0/solid-os/core/lib/armv7aLaiv/GR_\libsolid_cs.a(solid_vlink.o)
 .debug_frame   0x00002e70      0x238 C:/ProgramData/KMC/SOLID/SDK/2.0/solid-os/core/lib/armv7aLaiv/GR_\libsolid_cs.a(solid_mem_mmu.o)
 .debug_frame   0x000030a8       0x94 C:/ProgramData/KMC/SOLID/SDK/2.0/solid-os/core/lib/armv7aLaiv/GR_\libsolid_cs.a(kmc_evttracker_core.o)
 .debug_frame   0x0000313c      0x3a8 C:/ProgramData/KMC/SOLID/SDK/2.0/solid-os/core/lib/armv7aLaiv/GR_\libsolid_cs.a(dlmalloc.o)
 .debug_frame   0x000034e4       0x30 C:/ProgramData/KMC/SOLID/SDK/2.0/solid-os/core/lib/armv7aLaiv/GR_\libsolid_cs.a(solid_asan.o)
 .debug_frame   0x00003514       0x30 C:/ProgramData/KMC/SOLID/SDK/2.0/solid-os/core/lib/armv7aLaiv/GR_\libsolid_cs.a(tasan.o)
 .debug_frame   0x00003544      0x21c C:/Users/admin/Documents/SOLID-IDE/Projects/cpptest/Release/exeGCC_SOLID/\libnet.a(sys_arch.o)
 .debug_frame   0x00003760      0x130 C:/Users/admin/Documents/SOLID-IDE/Projects/cpptest/Release/exeGCC_SOLID/\libnet.a(tcpip.o)
 .debug_frame   0x00003890       0x2c C:/Users/admin/Documents/SOLID-IDE/Projects/cpptest/Release/exeGCC_SOLID/\libnet.a(init.o)
 .debug_frame   0x000038bc       0xe0 C:/Users/admin/Documents/SOLID-IDE/Projects/cpptest/Release/exeGCC_SOLID/\libnet.a(ip4.o)
 .debug_frame   0x0000399c       0xcc C:/Users/admin/Documents/SOLID-IDE/Projects/cpptest/Release/exeGCC_SOLID/\libnet.a(ip4_addr.o)
 .debug_frame   0x00003a68      0x118 C:/Users/admin/Documents/SOLID-IDE/Projects/cpptest/Release/exeGCC_SOLID/\libnet.a(ip4_frag.o)
 .debug_frame   0x00003b80       0xcc C:/Users/admin/Documents/SOLID-IDE/Projects/cpptest/Release/exeGCC_SOLID/\libnet.a(mem.o)
 .debug_frame   0x00003c4c       0xd0 C:/Users/admin/Documents/SOLID-IDE/Projects/cpptest/Release/exeGCC_SOLID/\libnet.a(memp.o)
 .debug_frame   0x00003d1c      0x178 C:/Users/admin/Documents/SOLID-IDE/Projects/cpptest/Release/exeGCC_SOLID/\libnet.a(netif.o)
 .debug_frame   0x00003e94      0x314 C:/Users/admin/Documents/SOLID-IDE/Projects/cpptest/Release/exeGCC_SOLID/\libnet.a(pbuf.o)
 .debug_frame   0x000041a8       0x20 C:/Users/admin/Documents/SOLID-IDE/Projects/cpptest/Release/exeGCC_SOLID/\libnet.a(stats.o)
 .debug_frame   0x000041c8      0x490 C:/Users/admin/Documents/SOLID-IDE/Projects/cpptest/Release/exeGCC_SOLID/\libnet.a(tcp.o)
 .debug_frame   0x00004658       0xf8 C:/Users/admin/Documents/SOLID-IDE/Projects/cpptest/Release/exeGCC_SOLID/\libnet.a(tcp_in.o)
 .debug_frame   0x00004750      0x27c C:/Users/admin/Documents/SOLID-IDE/Projects/cpptest/Release/exeGCC_SOLID/\libnet.a(tcp_out.o)
 .debug_frame   0x000049cc      0x100 C:/Users/admin/Documents/SOLID-IDE/Projects/cpptest/Release/exeGCC_SOLID/\libnet.a(timeouts.o)
 .debug_frame   0x00004acc      0x1b4 C:/Users/admin/Documents/SOLID-IDE/Projects/cpptest/Release/exeGCC_SOLID/\libnet.a(udp.o)
 .debug_frame   0x00004c80       0x58 C:/Users/admin/Documents/SOLID-IDE/Projects/cpptest/Release/exeGCC_SOLID/\libnet.a(ethernet.o)
 .debug_frame   0x00004cd8      0x140 C:/Users/admin/Documents/SOLID-IDE/Projects/cpptest/Release/exeGCC_SOLID/\libnet.a(solid_net_if.o)
 .debug_frame   0x00004e18       0x2c C:/Users/admin/Documents/SOLID-IDE/Projects/cpptest/Release/exeGCC_SOLID/\libnet.a(solid_net_registerapi.o)
 .debug_frame   0x00004e44      0x184 C:/Users/admin/Documents/SOLID-IDE/Projects/cpptest/Release/exeGCC_SOLID/\libnet.a(impl_net_stack.o)
 .debug_frame   0x00004fc8       0x54 C:/Users/admin/Documents/SOLID-IDE/Projects/cpptest/Release/exeGCC_SOLID/\libnet.a(ethernetif.o)
 .debug_frame   0x0000501c      0x274 C:/Users/admin/Documents/SOLID-IDE/Projects/cpptest/Release/exeGCC_SOLID/\libnet.a(api_lib.o)
 .debug_frame   0x00005290      0x3e0 C:/Users/admin/Documents/SOLID-IDE/Projects/cpptest/Release/exeGCC_SOLID/\libnet.a(api_msg.o)
 .debug_frame   0x00005670       0xe8 C:/Users/admin/Documents/SOLID-IDE/Projects/cpptest/Release/exeGCC_SOLID/\libnet.a(netbuf.o)
 .debug_frame   0x00005758       0xb0 C:/Users/admin/Documents/SOLID-IDE/Projects/cpptest/Release/exeGCC_SOLID/\libnet.a(netdb.o)
 .debug_frame   0x00005808      0x444 C:/Users/admin/Documents/SOLID-IDE/Projects/cpptest/Release/exeGCC_SOLID/\libnet.a(sockets.o)
 .debug_frame   0x00005c4c       0xb0 C:/Users/admin/Documents/SOLID-IDE/Projects/cpptest/Release/exeGCC_SOLID/\libnet.a(def.o)
 .debug_frame   0x00005cfc      0x178 C:/Users/admin/Documents/SOLID-IDE/Projects/cpptest/Release/exeGCC_SOLID/\libnet.a(dns.o)
 .debug_frame   0x00005e74       0xcc C:/Users/admin/Documents/SOLID-IDE/Projects/cpptest/Release/exeGCC_SOLID/\libnet.a(inet_chksum.o)
 .debug_frame   0x00005f40      0x304 C:/Users/admin/Documents/SOLID-IDE/Projects/cpptest/Release/exeGCC_SOLID/\libnet.a(dhcp.o)
 .debug_frame   0x00006244      0x298 C:/Users/admin/Documents/SOLID-IDE/Projects/cpptest/Release/exeGCC_SOLID/\libnet.a(etharp.o)
 .debug_frame   0x000064dc       0xb0 C:/Users/admin/Documents/SOLID-IDE/Projects/cpptest/Release/exeGCC_SOLID/\libnet.a(icmp.o)
 .debug_frame   0x0000658c       0x20 C:/Users/admin/Documents/SOLID-IDE/Projects/cpptest/Release/exeGCC_SOLID/\libnet.a(impl_net_stack_errno.o)
 .debug_frame   0x000065ac       0x30 C:/Users/admin/Documents/SOLID-IDE/Projects/cpptest/Release/exeGCC_SOLID/\libnet.a(err.o)
 .debug_frame   0x000065dc      0x2c4 C:/ProgramData/KMC/SOLID/SDK/2.0/solid-os/rtos/toppers_asp3/lib/armv7aLaiv/GR__\libkernel.a(dataqueue.o)
 .debug_frame   0x000068a0      0x104 C:/ProgramData/KMC/SOLID/SDK/2.0/solid-os/rtos/toppers_asp3/lib/armv7aLaiv/GR__\libkernel.a(interrupt.o)
 .debug_frame   0x000069a4       0xa8 C:/ProgramData/KMC/SOLID/SDK/2.0/solid-os/rtos/toppers_asp3/lib/armv7aLaiv/GR__\libkernel.a(tSysLog.o)
 .debug_frame   0x00006a4c       0x48 C:/ProgramData/KMC/SOLID/SDK/2.0/solid-os/rtos/toppers_asp3/lib/armv7aLaiv/GR__\libkernel.a(vasyslog.o)
 .debug_frame   0x00006a94       0xd8 C:/ProgramData/KMC/SOLID/SDK/2.0/solid-os/rtos/toppers_asp3/lib/armv7aLaiv/GR__\libkernel.a(semaphore.o)
 .debug_frame   0x00006b6c       0x90 C:/ProgramData/KMC/SOLID/SDK/2.0/solid-os/rtos/toppers_asp3/lib/armv7aLaiv/GR__\libkernel.a(startup.o)
 .debug_frame   0x00006bfc      0x104 C:/ProgramData/KMC/SOLID/SDK/2.0/solid-os/rtos/toppers_asp3/lib/armv7aLaiv/GR__\libkernel.a(sys_manage.o)
 .debug_frame   0x00006d00      0x134 C:/ProgramData/KMC/SOLID/SDK/2.0/solid-os/rtos/toppers_asp3/lib/armv7aLaiv/GR__\libkernel.a(task.o)
 .debug_frame   0x00006e34       0xd0 C:/ProgramData/KMC/SOLID/SDK/2.0/solid-os/rtos/toppers_asp3/lib/armv7aLaiv/GR__\libkernel.a(task_manage.o)
 .debug_frame   0x00006f04      0x158 C:/ProgramData/KMC/SOLID/SDK/2.0/solid-os/rtos/toppers_asp3/lib/armv7aLaiv/GR__\libkernel.a(time_event.o)
 .debug_frame   0x0000705c      0x120 C:/ProgramData/KMC/SOLID/SDK/2.0/solid-os/rtos/toppers_asp3/lib/armv7aLaiv/GR__\libkernel.a(wait.o)
 .debug_frame   0x0000717c       0x34 C:/ProgramData/KMC/SOLID/SDK/2.0/solid-os/rtos/toppers_asp3/lib/armv7aLaiv/GR__\libkernel.a(solid_rtos_registerapi.o)
 .debug_frame   0x000071b0       0x38 C:/ProgramData/KMC/SOLID/SDK/2.0/solid-os/rtos/toppers_asp3/lib/armv7aLaiv/GR__\libkernel.a(target_fput_log.o)
 .debug_frame   0x000071e8      0x108 C:/ProgramData/KMC/SOLID/SDK/2.0/solid-os/rtos/toppers_asp3/lib/armv7aLaiv/GR__\libkernel.a(target_intc_impl.o)
 .debug_frame   0x000072f0       0xc0 C:/ProgramData/KMC/SOLID/SDK/2.0/solid-os/rtos/toppers_asp3/lib/armv7aLaiv/GR__\libkernel.a(target_timer_impl.o)
 .debug_frame   0x000073b0       0x70 C:/ProgramData/KMC/SOLID/SDK/2.0/solid-os/rtos/toppers_asp3/lib/armv7aLaiv/GR__\libkernel.a(kmc_evttracker_rtos.o)
 .debug_frame   0x00007420       0xec C:/ProgramData/KMC/SOLID/SDK/2.0/solid-os/rtos/toppers_asp3/lib/armv7aLaiv/GR__\libkernel.a(rtos_prof.o)
 .debug_frame   0x0000750c       0x2c C:/ProgramData/KMC/SOLID/SDK/2.0/solid-os/rtos/toppers_asp3/lib/armv7aLaiv/GR__\libkernel.a(kernel_cfg_intl.o)
 .debug_frame   0x00007538       0xa0 C:/ProgramData/KMC/SOLID/SDK/2.0/solid-os/rtos/toppers_asp3/lib/armv7aLaiv/GR__\libkernel.a(alarm.o)
 .debug_frame   0x000075d8       0xb4 C:/ProgramData/KMC/SOLID/SDK/2.0/solid-os/rtos/toppers_asp3/lib/armv7aLaiv/GR__\libkernel.a(core_kernel_impl.o)
 .debug_frame   0x0000768c       0xac C:/ProgramData/KMC/SOLID/SDK/2.0/solid-os/rtos/toppers_asp3/lib/armv7aLaiv/GR__\libkernel.a(cyclic.o)
 .debug_frame   0x00007738      0x170 C:/ProgramData/KMC/SOLID/SDK/2.0/solid-os/rtos/toppers_asp3/lib/armv7aLaiv/GR__\libkernel.a(eventflag.o)
 .debug_frame   0x000078a8       0x20 C:/ProgramData/KMC/SOLID/SDK/2.0/solid-os/rtos/toppers_asp3/lib/armv7aLaiv/GR__\libkernel.a(exception.o)
 .debug_frame   0x000078c8      0x180 C:/ProgramData/KMC/SOLID/SDK/2.0/solid-os/rtos/toppers_asp3/lib/armv7aLaiv/GR__\libkernel.a(mempfix.o)
 .debug_frame   0x00007a48       0x9c C:/ProgramData/KMC/SOLID/SDK/2.0/solid-os/rtos/toppers_asp3/lib/armv7aLaiv/GR__\libkernel.a(log_output.o)
 .debug_frame   0x00007ae4      0x228 C:/ProgramData/KMC/SOLID/SDK/2.0/solid-os/rtos/toppers_asp3/lib/armv7aLaiv/GR__\libkernel.a(mutex.o)
 .debug_frame   0x00007d0c      0x2a8 C:/ProgramData/KMC/SOLID/SDK/2.0/solid-os/rtos/toppers_asp3/lib/armv7aLaiv/GR__\libkernel.a(pridataq.o)
 .debug_frame   0x00007fb4       0x40 C:/ProgramData/KMC/SOLID/SDK/2.0/solid-os/rtos/toppers_asp3/lib/armv7aLaiv/GR__\libkernel.a(task_refer.o)
 .debug_frame   0x00007ff4      0x158 C:/ProgramData/KMC/SOLID/SDK/2.0/solid-os/rtos/toppers_asp3/lib/armv7aLaiv/GR__\libkernel.a(task_sync.o)
 .debug_frame   0x0000814c       0xcc C:/ProgramData/KMC/SOLID/SDK/2.0/solid-os/rtos/toppers_asp3/lib/armv7aLaiv/GR__\libkernel.a(task_term.o)
 .debug_frame   0x00008218       0x90 C:/ProgramData/KMC/SOLID/SDK/2.0/solid-os/rtos/toppers_asp3/lib/armv7aLaiv/GR__\libkernel.a(time_manage.o)
 .debug_frame   0x000082a8       0x20 C:/Users/admin/Documents/SOLID-IDE/Projects/cpptest/Release/exeGCC_SOLID/\libbsp.a(impl_cs_event.o)
 .debug_frame   0x000082c8       0xd4 C:/Users/admin/Documents/SOLID-IDE/Projects/cpptest/Release/exeGCC_SOLID/\libbsp.a(impl_dmac.o)
 .debug_frame   0x0000839c       0x20 C:/Users/admin/Documents/SOLID-IDE/Projects/cpptest/Release/exeGCC_SOLID/\libbsp.a(impl_iores.o)
 .debug_frame   0x000083bc       0x44 C:/Users/admin/Documents/SOLID-IDE/Projects/cpptest/Release/exeGCC_SOLID/\libbsp.a(impl_log.o)
 .debug_frame   0x00008400      0x240 C:/Users/admin/Documents/SOLID-IDE/Projects/cpptest/Release/exeGCC_SOLID/\libbsp.a(impl_net_dev_ether.o)
 .debug_frame   0x00008640       0x4c C:/Users/admin/Documents/SOLID-IDE/Projects/cpptest/Release/exeGCC_SOLID/\libbsp.a(impl_net_dev_get_macaddr.o)
 .debug_frame   0x0000868c       0x20 C:/Users/admin/Documents/SOLID-IDE/Projects/cpptest/Release/exeGCC_SOLID/\libbsp.a(impl_net_dev_getconfig.o)
 .debug_frame   0x000086ac       0x78 C:/Users/admin/Documents/SOLID-IDE/Projects/cpptest/Release/exeGCC_SOLID/\libbsp.a(impl_rtc.o)
 .debug_frame   0x00008724       0xcc C:/Users/admin/Documents/SOLID-IDE/Projects/cpptest/Release/exeGCC_SOLID/\libbsp.a(impl_timer.o)
 .debug_frame   0x000087f0      0x178 C:/Users/admin/Documents/SOLID-IDE/Projects/cpptest/Release/exeGCC_SOLID/\libbsp.a(rtc.o)
 .debug_frame   0x00008968       0x30 C:/Users/admin/Documents/SOLID-IDE/Projects/cpptest/Release/exeGCC_SOLID/\libbsp.a(rtc_userdef.o)
 .debug_frame   0x00008998       0x28 C:/Users/admin/Documents/SOLID-IDE/Projects/cpptest/Release/exeGCC_SOLID/\libbsp.a(bsp_globals.o)
 .debug_frame   0x000089c0       0xc4 C:/Users/admin/Documents/SOLID-IDE/Projects/cpptest/Release/exeGCC_SOLID/\libbsp.a(rza_io_regrw.o)
 .debug_frame   0x00008a84       0xe4 C:/GCC4/ARM/s002/lib/armv7aLaiv\libstdc++.a(class_type_info.o)
 .debug_frame   0x00008b68       0x20 C:/GCC4/ARM/s002/lib/armv7aLaiv\libstdc++.a(atexit_arm.o)
 .debug_frame   0x00008b88       0x20 C:/GCC4/ARM/s002/lib/armv7aLaiv\libstdc++.a(del_ops.o)
 .debug_frame   0x00008ba8       0xe4 C:/GCC4/ARM/s002/lib/armv7aLaiv\libstdc++.a(si_class_type_info.o)
 .debug_frame   0x00008c8c       0x20 C:/GCC4/ARM/s002/lib/armv7aLaiv\libstdc++.a(del_op.o)
 .debug_frame   0x00008cac       0x84 C:/GCC4/ARM/s002/lib/armv7aLaiv\libstdc++.a(tinfo.o)
 .debug_frame   0x00008d30       0x20 C:/GCC4/ARM/s002/lib/armv7aLaiv/libgcc.a(_udivsi3.o)
 .debug_frame   0x00008d50       0x2c C:/GCC4/ARM/s002/lib/armv7aLaiv/libgcc.a(_aeabi_uldivmod.o)
 .debug_frame   0x00008d7c       0x34 C:/GCC4/ARM/s002/lib/armv7aLaiv/libgcc.a(_udivmoddi4.o)
 .debug_frame   0x00008db0      0x2d0 C:/GCC4/ARM/s002/lib/armv7aLaiv/libgcc.a(unwind-arm.o)
 .debug_frame   0x00009080       0xf4 C:/GCC4/ARM/s002/lib/armv7aLaiv/libgcc.a(pr-support.o)
 .debug_frame   0x00009174      0x164 C:/GCC4/ARM/s002/lib/armv7aLaiv/libc.a(_m_init.o)
 .debug_frame   0x000092d8       0x40 C:/GCC4/ARM/s002/lib/armv7aLaiv/libc.a(abort.o)
 .debug_frame   0x00009318       0x30 C:/GCC4/ARM/s002/lib/armv7aLaiv/libc.a(errno.o)
 .debug_frame   0x00009348       0x20 C:/GCC4/ARM/s002/lib/armv7aLaiv/libc.a(atoi.o)
 .debug_frame   0x00009368       0x30 C:/GCC4/ARM/s002/lib/armv7aLaiv/libc.a(rand.o)
 .debug_frame   0x00009398       0x68 C:/GCC4/ARM/s002/lib/armv7aLaiv/libc.a(strtol.o)
 .debug_frame   0x00009400       0x68 C:/GCC4/ARM/s002/lib/armv7aLaiv/libc.a(strtoul.o)
 .debug_frame   0x00009468       0x84 C:/GCC4/ARM/s002/lib/armv7aLaiv/libc.a(atexit.o)
 .debug_frame   0x000094ec      0x1f0 C:/GCC4/ARM/s002/lib/armv7aLaiv/libc.a(isctype.o)
 .debug_frame   0x000096dc       0x38 C:/GCC4/ARM/s002/lib/armv7aLaiv/libc.a(thread-stub-init.o)
 .debug_frame   0x00009714      0x1fc C:/GCC4/ARM/s002/lib/armv7aLaiv/libc.a(thread-stub.o)
 .debug_frame   0x00009910       0x20 C:/GCC4/ARM/s002/lib/armv7aLaiv/libc.a(ssp_init.o)
 .debug_frame   0x00009930       0x80 C:/GCC4/ARM/s002/lib/armv7aLaiv/libc.a(findfp.o)
 .debug_frame   0x000099b0       0x6c C:/GCC4/ARM/s002/lib/armv7aLaiv/libc.a(fprintf.o)
 .debug_frame   0x00009a1c       0x88 C:/GCC4/ARM/s002/lib/armv7aLaiv/libc.a(stdio.o)
 .debug_frame   0x00009aa4      0x120 C:/GCC4/ARM/s002/lib/armv7aLaiv/libc.a(vfprintf.o)
 .debug_frame   0x00009bc4       0xac C:/GCC4/ARM/s002/lib/armv7aLaiv/libc.a(vsnprintf.o)
 .debug_frame   0x00009c70       0x28 C:/GCC4/ARM/s002/lib/armv7aLaiv/libc.a(wsetup.o)
 .debug_frame   0x00009c98       0x6c C:/GCC4/ARM/s002/lib/armv7aLaiv/libc.a(makebuf.o)
 .debug_frame   0x00009d04       0x58 C:/GCC4/ARM/s002/lib/armv7aLaiv/libc.a(close.o)
 .debug_frame   0x00009d5c       0x44 C:/GCC4/ARM/s002/lib/armv7aLaiv/libc.a(fstat.o)
 .debug_frame   0x00009da0       0x28 C:/GCC4/ARM/s002/lib/armv7aLaiv/libc.a(lseek.o)
 .debug_frame   0x00009dc8       0x50 C:/GCC4/ARM/s002/lib/armv7aLaiv/libc.a(open.o)
 .debug_frame   0x00009e18      0x5dc C:/GCC4/ARM/s002/lib/armv7aLaiv/libc.a(osemu.o)
 .debug_frame   0x0000a3f4       0x2c C:/GCC4/ARM/s002/lib/armv7aLaiv/libc.a(read.o)
 .debug_frame   0x0000a420       0x48 C:/GCC4/ARM/s002/lib/armv7aLaiv/libc.a(u2dname.o)
 .debug_frame   0x0000a468       0x54 C:/GCC4/ARM/s002/lib/armv7aLaiv/libc.a(utime.o)
 .debug_frame   0x0000a4bc       0x50 C:/GCC4/ARM/s002/lib/armv7aLaiv/libc.a(write.o)
 .debug_frame   0x0000a50c      0x188 C:/GCC4/ARM/s002/lib/armv7aLaiv/libc.a(_env.o)
 .debug_frame   0x0000a694       0x58 C:/GCC4/ARM/s002/lib/armv7aLaiv/libc.a(exit.o)
 .debug_frame   0x0000a6ec       0x30 C:/GCC4/ARM/s002/lib/armv7aLaiv/libc.a(signal.o)
 .debug_frame   0x0000a71c       0x94 C:/GCC4/ARM/s002/lib/armv7aLaiv/libc.a(localtime.o)
 .debug_frame   0x0000a7b0       0x30 C:/GCC4/ARM/s002/lib/armv7aLaiv/libc.a(lldiv.o)
 .debug_frame   0x0000a7e0       0x20 C:/GCC4/ARM/s002/lib/armv7aLaiv/libc.a(memchr.o)
 .debug_frame   0x0000a800       0x4c C:/GCC4/ARM/s002/lib/armv7aLaiv/libc.a(strcspn.o)
 .debug_frame   0x0000a84c       0x38 C:/GCC4/ARM/s002/lib/armv7aLaiv/libc.a(strncasecmp.o)
 .debug_frame   0x0000a884       0x2c C:/GCC4/ARM/s002/lib/armv7aLaiv/libc.a(strdup.o)
 .debug_frame   0x0000a8b0       0x74 C:/GCC4/ARM/s002/lib/armv7aLaiv/libc.a(citrus_ctype.o)
 .debug_frame   0x0000a924      0x208 C:/GCC4/ARM/s002/lib/armv7aLaiv/libc.a(citrus_none.o)
 .debug_frame   0x0000ab2c      0x438 C:/GCC4/ARM/s002/lib/armv7aLaiv/libc.a(citrus_mskanji.o)
 .debug_frame   0x0000af64      0x450 C:/GCC4/ARM/s002/lib/armv7aLaiv/libc.a(citrus_utf8.o)
 .debug_frame   0x0000b3b4       0x30 C:/GCC4/ARM/s002/lib/armv7aLaiv/libc.a(localeconv.o)
 .debug_frame   0x0000b3e4      0x254 C:/GCC4/ARM/s002/lib/armv7aLaiv/libc.a(multibyte_amd1.o)
 .debug_frame   0x0000b638       0x50 C:/GCC4/ARM/s002/lib/armv7aLaiv/libc.a(dtoa.o)
 .debug_frame   0x0000b688       0x30 C:/GCC4/ARM/s002/lib/armv7aLaiv/libc.a(ldtoa.o)
 .debug_frame   0x0000b6b8       0x84 C:/GCC4/ARM/s002/lib/armv7aLaiv/libc.a(hdtoa.o)
 .debug_frame   0x0000b73c       0x80 C:/GCC4/ARM/s002/lib/armv7aLaiv/libc.a(dmisc.o)
 .debug_frame   0x0000b7bc      0x1d0 C:/GCC4/ARM/s002/lib/armv7aLaiv/libc.a(misc.o)
 .debug_frame   0x0000b98c      0x4ec C:/GCC4/ARM/s002/lib/armv7aLaiv/libc.a(softfloat.o)
 .debug_frame   0x0000be78       0x20 C:/GCC4/ARM/s002/lib/armv7aLaiv/libc.a(__aeabi_dcmpeq.o)
 .debug_frame   0x0000be98       0x30 C:/GCC4/ARM/s002/lib/armv7aLaiv/libc.a(__aeabi_dcmpge.o)
 .debug_frame   0x0000bec8       0x30 C:/GCC4/ARM/s002/lib/armv7aLaiv/libc.a(__aeabi_dcmpgt.o)
 .debug_frame   0x0000bef8       0x20 C:/GCC4/ARM/s002/lib/armv7aLaiv/libc.a(__aeabi_dcmplt.o)
 .debug_frame   0x0000bf18      0x138 C:/GCC4/ARM/s002/lib/armv7aLaiv/libc.a(rb.o)
 .debug_frame   0x0000c050       0x50 C:/GCC4/ARM/s002/lib/armv7aLaiv/libc.a(fflush.o)
 .debug_frame   0x0000c0a0       0xc8 C:/GCC4/ARM/s002/lib/armv7aLaiv/libc.a(flockfile.o)
 .debug_frame   0x0000c168       0x38 C:/GCC4/ARM/s002/lib/armv7aLaiv/libc.a(fvwrite.o)
 .debug_frame   0x0000c1a0       0x30 C:/GCC4/ARM/s002/lib/armv7aLaiv/libc.a(fwalk.o)
 .debug_frame   0x0000c1d0       0x38 C:/GCC4/ARM/s002/lib/armv7aLaiv/libc.a(creat.o)
 .debug_frame   0x0000c208       0x20 C:/GCC4/ARM/s002/lib/armv7aLaiv/libc.a(fpclassifyd_ieee754.o)
 .debug_frame   0x0000c228       0x28 C:/GCC4/ARM/s002/lib/armv7aLaiv/libc.a(strcasecmp.o)
 .debug_frame   0x0000c250       0x20 C:/GCC4/ARM/s002/lib/armv7aLaiv/libgcc.a(_divsi3.o)
 .debug_frame   0x0000c270       0xac C:/GCC4/ARM/s002/lib/armv7aLaiv/libgcc.a(_arm_addsubdf3.o)
 .debug_frame   0x0000c31c       0x44 C:/GCC4/ARM/s002/lib/armv7aLaiv/libgcc.a(_aeabi_ldivmod.o)

.debug_str      0x00000000    0x1a017
 *(.debug_str)
 .debug_str     0x00000000     0x14aa C:/Users/admin/Documents/SOLID-IDE/Projects/cpptest/Release/exeGCC_SOLID/cpptest/cpptest_all.o
                               0x1a88 (size before relaxing)
 .debug_str     0x000014aa      0x663 C:/ProgramData/KMC/SOLID/SDK/2.0/solid-os/core/lib/armv7aLaiv/GR_\libsolid_cs.a(solid_cs_main.o)
                                0x824 (size before relaxing)
 .debug_str     0x00001b0d       0x2c C:/ProgramData/KMC/SOLID/SDK/2.0/solid-os/core/lib/armv7aLaiv/GR_\libsolid_cs.a(kmc_trace_mem_dummy.o)
                                0x107 (size before relaxing)
 .debug_str     0x00001b39      0x2b5 C:/ProgramData/KMC/SOLID/SDK/2.0/solid-os/core/lib/armv7aLaiv/GR_\libsolid_cs.a(solid_cs_event.o)
                                0x4e9 (size before relaxing)
 .debug_str     0x00001dee       0x6b C:/ProgramData/KMC/SOLID/SDK/2.0/solid-os/core/lib/armv7aLaiv/GR_\libsolid_cs.a(solid_debugger.o)
                                0x33b (size before relaxing)
 .debug_str     0x00001e59      0xe6c C:/ProgramData/KMC/SOLID/SDK/2.0/solid-os/core/lib/armv7aLaiv/GR_\libsolid_cs.a(solid_dmac.o)
                               0x11ab (size before relaxing)
 .debug_str     0x00002cc5      0x186 C:/ProgramData/KMC/SOLID/SDK/2.0/solid-os/core/lib/armv7aLaiv/GR_\libsolid_cs.a(solid_exception.o)
                                0x348 (size before relaxing)
 .debug_str     0x00002e4b      0x79d C:/ProgramData/KMC/SOLID/SDK/2.0/solid-os/core/lib/armv7aLaiv/GR_\libsolid_cs.a(solid_fs_base.o)
                                0xbcc (size before relaxing)
 .debug_str     0x000035e8       0xb1 C:/ProgramData/KMC/SOLID/SDK/2.0/solid-os/core/lib/armv7aLaiv/GR_\libsolid_cs.a(solid_fs_mem.o)
                                0x5b5 (size before relaxing)
 .debug_str     0x00003699      0x1c7 C:/ProgramData/KMC/SOLID/SDK/2.0/solid-os/core/lib/armv7aLaiv/GR_\libsolid_cs.a(solid_fs_vlink.o)
                                0x6eb (size before relaxing)
 .debug_str     0x00003860      0xf03 C:/ProgramData/KMC/SOLID/SDK/2.0/solid-os/core/lib/armv7aLaiv/GR_\libsolid_cs.a(solid_intc.o)
                               0x1372 (size before relaxing)
 .debug_str     0x00004763      0x466 C:/ProgramData/KMC/SOLID/SDK/2.0/solid-os/core/lib/armv7aLaiv/GR_\libsolid_cs.a(solid_iores.o)
                                0xb96 (size before relaxing)
 .debug_str     0x00004bc9     0x2704 C:/ProgramData/KMC/SOLID/SDK/2.0/solid-os/core/lib/armv7aLaiv/GR_\libsolid_cs.a(solid_loader.o)
                               0x34a8 (size before relaxing)
 .debug_str     0x000072cd       0x3e C:/ProgramData/KMC/SOLID/SDK/2.0/solid-os/core/lib/armv7aLaiv/GR_\libsolid_cs.a(solid_loader_fixed.o)
                                0x30a (size before relaxing)
 .debug_str     0x0000730b      0x167 C:/ProgramData/KMC/SOLID/SDK/2.0/solid-os/core/lib/armv7aLaiv/GR_\libsolid_cs.a(solid_log.o)
                                0x422 (size before relaxing)
 .debug_str     0x00007472      0x1cc C:/ProgramData/KMC/SOLID/SDK/2.0/solid-os/core/lib/armv7aLaiv/GR_\libsolid_cs.a(solid_malloc.o)
                                0x6df (size before relaxing)
 .debug_str     0x0000763e      0x8ac C:/ProgramData/KMC/SOLID/SDK/2.0/solid-os/core/lib/armv7aLaiv/GR_\libsolid_cs.a(solid_mem.o)
                               0x1b81 (size before relaxing)
 .debug_str     0x00007eea       0xfd C:/ProgramData/KMC/SOLID/SDK/2.0/solid-os/core/lib/armv7aLaiv/GR_\libsolid_cs.a(solid_mem_cache.o)
                                0x64d (size before relaxing)
 .debug_str     0x00007fe7       0x3a C:/ProgramData/KMC/SOLID/SDK/2.0/solid-os/core/lib/armv7aLaiv/GR_\libsolid_cs.a(solid_mutex.o)
                                0x3d4 (size before relaxing)
 .debug_str     0x00008021       0xc1 C:/ProgramData/KMC/SOLID/SDK/2.0/solid-os/core/lib/armv7aLaiv/GR_\libsolid_cs.a(solid_rtc.o)
                                0x22d (size before relaxing)
 .debug_str     0x000080e2      0x7ac C:/ProgramData/KMC/SOLID/SDK/2.0/solid-os/core/lib/armv7aLaiv/GR_\libsolid_cs.a(solid_timer.o)
                                0xc56 (size before relaxing)
 .debug_str     0x0000888e      0x131 C:/ProgramData/KMC/SOLID/SDK/2.0/solid-os/core/lib/armv7aLaiv/GR_\libsolid_cs.a(solid_vector.o)
                                0x35c (size before relaxing)
 .debug_str     0x000089bf       0xd4 C:/ProgramData/KMC/SOLID/SDK/2.0/solid-os/core/lib/armv7aLaiv/GR_\libsolid_cs.a(solid_vlink.o)
                                0x312 (size before relaxing)
 .debug_str     0x00008a93       0x99 C:/ProgramData/KMC/SOLID/SDK/2.0/solid-os/core/lib/armv7aLaiv/GR_\libsolid_cs.a(solid_mem_mmu.o)
                               0x106e (size before relaxing)
 .debug_str     0x00008b2c      0x1b7 C:/ProgramData/KMC/SOLID/SDK/2.0/solid-os/core/lib/armv7aLaiv/GR_\libsolid_cs.a(kmc_evttracker_core.o)
                                0x57f (size before relaxing)
 .debug_str     0x00008ce3      0x5ff C:/ProgramData/KMC/SOLID/SDK/2.0/solid-os/core/lib/armv7aLaiv/GR_\libsolid_cs.a(dlmalloc.o)
                                0xa8f (size before relaxing)
 .debug_str     0x000092e2      0x159 C:/ProgramData/KMC/SOLID/SDK/2.0/solid-os/core/lib/armv7aLaiv/GR_\libsolid_cs.a(solid_asan.o)
                                0x2f5 (size before relaxing)
 .debug_str     0x0000943b       0x1c C:/ProgramData/KMC/SOLID/SDK/2.0/solid-os/core/lib/armv7aLaiv/GR_\libsolid_cs.a(solid_cs_args.o)
                                0x1f2 (size before relaxing)
 .debug_str     0x00009457       0x1a C:/ProgramData/KMC/SOLID/SDK/2.0/solid-os/core/lib/armv7aLaiv/GR_\libsolid_cs.a(tasan.o)
                                0x2c3 (size before relaxing)
 .debug_str     0x00009471      0x876 C:/Users/admin/Documents/SOLID-IDE/Projects/cpptest/Release/exeGCC_SOLID/\libnet.a(sys_arch.o)
                               0x10e3 (size before relaxing)
 .debug_str     0x00009ce7      0x328 C:/Users/admin/Documents/SOLID-IDE/Projects/cpptest/Release/exeGCC_SOLID/\libnet.a(tcpip.o)
                                0xabb (size before relaxing)
 .debug_str     0x0000a00f      0x3f9 C:/Users/admin/Documents/SOLID-IDE/Projects/cpptest/Release/exeGCC_SOLID/\libnet.a(init.o)
                                0xa2f (size before relaxing)
 .debug_str     0x0000a408      0x1ee C:/Users/admin/Documents/SOLID-IDE/Projects/cpptest/Release/exeGCC_SOLID/\libnet.a(ip4.o)
                                0xccb (size before relaxing)
 .debug_str     0x0000a5f6       0xc5 C:/Users/admin/Documents/SOLID-IDE/Projects/cpptest/Release/exeGCC_SOLID/\libnet.a(ip4_addr.o)
                                0x671 (size before relaxing)
 .debug_str     0x0000a6bb      0x38b C:/Users/admin/Documents/SOLID-IDE/Projects/cpptest/Release/exeGCC_SOLID/\libnet.a(ip4_frag.o)
                                0xb4d (size before relaxing)
 .debug_str     0x0000aa46       0xc8 C:/Users/admin/Documents/SOLID-IDE/Projects/cpptest/Release/exeGCC_SOLID/\libnet.a(mem.o)
                                0x5c9 (size before relaxing)
 .debug_str     0x0000ab0e      0x518 C:/Users/admin/Documents/SOLID-IDE/Projects/cpptest/Release/exeGCC_SOLID/\libnet.a(memp.o)
                               0x106a (size before relaxing)
 .debug_str     0x0000b026      0x1f5 C:/Users/admin/Documents/SOLID-IDE/Projects/cpptest/Release/exeGCC_SOLID/\libnet.a(netif.o)
                                0xcf5 (size before relaxing)
 .debug_str     0x0000b21b      0x2ff C:/Users/admin/Documents/SOLID-IDE/Projects/cpptest/Release/exeGCC_SOLID/\libnet.a(pbuf.o)
                               0x1007 (size before relaxing)
 .debug_str     0x0000b51a       0x53 C:/Users/admin/Documents/SOLID-IDE/Projects/cpptest/Release/exeGCC_SOLID/\libnet.a(stats.o)
                                0x418 (size before relaxing)
 .debug_str     0x0000b56d      0x4f0 C:/Users/admin/Documents/SOLID-IDE/Projects/cpptest/Release/exeGCC_SOLID/\libnet.a(tcp.o)
                               0x108b (size before relaxing)
 .debug_str     0x0000ba5d      0x1d6 C:/Users/admin/Documents/SOLID-IDE/Projects/cpptest/Release/exeGCC_SOLID/\libnet.a(tcp_in.o)
                                0xe72 (size before relaxing)
 .debug_str     0x0000bc33      0x1a6 C:/Users/admin/Documents/SOLID-IDE/Projects/cpptest/Release/exeGCC_SOLID/\libnet.a(tcp_out.o)
                                0xe02 (size before relaxing)
 .debug_str     0x0000bdd9      0x139 C:/Users/admin/Documents/SOLID-IDE/Projects/cpptest/Release/exeGCC_SOLID/\libnet.a(timeouts.o)
                                0xcb4 (size before relaxing)
 .debug_str     0x0000bf12      0x153 C:/Users/admin/Documents/SOLID-IDE/Projects/cpptest/Release/exeGCC_SOLID/\libnet.a(udp.o)
                                0xab0 (size before relaxing)
 .debug_str     0x0000c065      0x1ac C:/Users/admin/Documents/SOLID-IDE/Projects/cpptest/Release/exeGCC_SOLID/\libnet.a(ethernet.o)
                                0x912 (size before relaxing)
 .debug_str     0x0000c211      0x39f C:/Users/admin/Documents/SOLID-IDE/Projects/cpptest/Release/exeGCC_SOLID/\libnet.a(solid_net_if.o)
                                0x752 (size before relaxing)
 .debug_str     0x0000c5b0       0x6c C:/Users/admin/Documents/SOLID-IDE/Projects/cpptest/Release/exeGCC_SOLID/\libnet.a(solid_net_registerapi.o)
                                0x78e (size before relaxing)
 .debug_str     0x0000c61c      0x326 C:/Users/admin/Documents/SOLID-IDE/Projects/cpptest/Release/exeGCC_SOLID/\libnet.a(impl_net_stack.o)
                                0xdef (size before relaxing)
 .debug_str     0x0000c942       0xb3 C:/Users/admin/Documents/SOLID-IDE/Projects/cpptest/Release/exeGCC_SOLID/\libnet.a(ethernetif.o)
                                0x614 (size before relaxing)
 .debug_str     0x0000c9f5      0x3dc C:/Users/admin/Documents/SOLID-IDE/Projects/cpptest/Release/exeGCC_SOLID/\libnet.a(api_lib.o)
                               0x101c (size before relaxing)
 .debug_str     0x0000cdd1      0x34b C:/Users/admin/Documents/SOLID-IDE/Projects/cpptest/Release/exeGCC_SOLID/\libnet.a(api_msg.o)
                               0x1286 (size before relaxing)
 .debug_str     0x0000d11c       0xb4 C:/Users/admin/Documents/SOLID-IDE/Projects/cpptest/Release/exeGCC_SOLID/\libnet.a(netbuf.o)
                                0x65a (size before relaxing)
 .debug_str     0x0000d1d0      0x26a C:/Users/admin/Documents/SOLID-IDE/Projects/cpptest/Release/exeGCC_SOLID/\libnet.a(netdb.o)
                                0x851 (size before relaxing)
 .debug_str     0x0000d43a      0x4b8 C:/Users/admin/Documents/SOLID-IDE/Projects/cpptest/Release/exeGCC_SOLID/\libnet.a(sockets.o)
                               0x14be (size before relaxing)
 .debug_str     0x0000d8f2       0xca C:/Users/admin/Documents/SOLID-IDE/Projects/cpptest/Release/exeGCC_SOLID/\libnet.a(def.o)
                                0x2fa (size before relaxing)
 .debug_str     0x0000d9bc      0x2cd C:/Users/admin/Documents/SOLID-IDE/Projects/cpptest/Release/exeGCC_SOLID/\libnet.a(dns.o)
                                0xc7f (size before relaxing)
 .debug_str     0x0000dc89      0x120 C:/Users/admin/Documents/SOLID-IDE/Projects/cpptest/Release/exeGCC_SOLID/\libnet.a(inet_chksum.o)
                                0x3dd (size before relaxing)
 .debug_str     0x0000dda9       0x50 C:/Users/admin/Documents/SOLID-IDE/Projects/cpptest/Release/exeGCC_SOLID/\libnet.a(ip.o)
                                0x6a5 (size before relaxing)
 .debug_str     0x0000ddf9      0x601 C:/Users/admin/Documents/SOLID-IDE/Projects/cpptest/Release/exeGCC_SOLID/\libnet.a(dhcp.o)
                               0x107c (size before relaxing)
 .debug_str     0x0000e3fa      0x36a C:/Users/admin/Documents/SOLID-IDE/Projects/cpptest/Release/exeGCC_SOLID/\libnet.a(etharp.o)
                                0xd22 (size before relaxing)
 .debug_str     0x0000e764       0x97 C:/Users/admin/Documents/SOLID-IDE/Projects/cpptest/Release/exeGCC_SOLID/\libnet.a(icmp.o)
                                0x815 (size before relaxing)
 .debug_str     0x0000e7fb       0xdc C:/Users/admin/Documents/SOLID-IDE/Projects/cpptest/Release/exeGCC_SOLID/\libnet.a(impl_net_stack_errno.o)
                                0x2c2 (size before relaxing)
 .debug_str     0x0000e8d7       0x7a C:/Users/admin/Documents/SOLID-IDE/Projects/cpptest/Release/exeGCC_SOLID/\libnet.a(err.o)
                                0x260 (size before relaxing)
 .debug_str     0x0000e951      0x3f8 C:/ProgramData/KMC/SOLID/SDK/2.0/solid-os/rtos/toppers_asp3/lib/armv7aLaiv/GR__\libkernel.a(dataqueue.o)
                                0xb55 (size before relaxing)
 .debug_str     0x0000ed49      0x19e C:/ProgramData/KMC/SOLID/SDK/2.0/solid-os/rtos/toppers_asp3/lib/armv7aLaiv/GR__\libkernel.a(interrupt.o)
                                0xa82 (size before relaxing)
 .debug_str     0x0000eee7      0x1c2 C:/ProgramData/KMC/SOLID/SDK/2.0/solid-os/rtos/toppers_asp3/lib/armv7aLaiv/GR__\libkernel.a(tSysLog.o)
                                0x5c8 (size before relaxing)
 .debug_str     0x0000f0a9       0x4d C:/ProgramData/KMC/SOLID/SDK/2.0/solid-os/rtos/toppers_asp3/lib/armv7aLaiv/GR__\libkernel.a(vasyslog.o)
                                0x335 (size before relaxing)
 .debug_str     0x0000f0f6       0xb9 C:/ProgramData/KMC/SOLID/SDK/2.0/solid-os/rtos/toppers_asp3/lib/armv7aLaiv/GR__\libkernel.a(semaphore.o)
                                0x9a3 (size before relaxing)
 .debug_str     0x0000f1af      0x160 C:/ProgramData/KMC/SOLID/SDK/2.0/solid-os/rtos/toppers_asp3/lib/armv7aLaiv/GR__\libkernel.a(startup.o)
                                0x65a (size before relaxing)
 .debug_str     0x0000f30f       0xa0 C:/ProgramData/KMC/SOLID/SDK/2.0/solid-os/rtos/toppers_asp3/lib/armv7aLaiv/GR__\libkernel.a(sys_manage.o)
                                0x7b9 (size before relaxing)
 .debug_str     0x0000f3af      0x1fa C:/ProgramData/KMC/SOLID/SDK/2.0/solid-os/rtos/toppers_asp3/lib/armv7aLaiv/GR__\libkernel.a(task.o)
                                0xa7a (size before relaxing)
 .debug_str     0x0000f5a9       0x2c C:/ProgramData/KMC/SOLID/SDK/2.0/solid-os/rtos/toppers_asp3/lib/armv7aLaiv/GR__\libkernel.a(taskhook.o)
                                0x6ec (size before relaxing)
 .debug_str     0x0000f5d5       0x7a C:/ProgramData/KMC/SOLID/SDK/2.0/solid-os/rtos/toppers_asp3/lib/armv7aLaiv/GR__\libkernel.a(task_manage.o)
                                0x893 (size before relaxing)
 .debug_str     0x0000f64f      0x23c C:/ProgramData/KMC/SOLID/SDK/2.0/solid-os/rtos/toppers_asp3/lib/armv7aLaiv/GR__\libkernel.a(time_event.o)
                                0x728 (size before relaxing)
 .debug_str     0x0000f88b       0x92 C:/ProgramData/KMC/SOLID/SDK/2.0/solid-os/rtos/toppers_asp3/lib/armv7aLaiv/GR__\libkernel.a(wait.o)
                                0x923 (size before relaxing)
 .debug_str     0x0000f91d       0x59 C:/ProgramData/KMC/SOLID/SDK/2.0/solid-os/rtos/toppers_asp3/lib/armv7aLaiv/GR__\libkernel.a(solid_rtos_registerapi.o)
                                0x22f (size before relaxing)
 .debug_str     0x0000f976       0x39 C:/ProgramData/KMC/SOLID/SDK/2.0/solid-os/rtos/toppers_asp3/lib/armv7aLaiv/GR__\libkernel.a(target_fput_log.o)
                                0x25b (size before relaxing)
 .debug_str     0x0000f9af      0x11e C:/ProgramData/KMC/SOLID/SDK/2.0/solid-os/rtos/toppers_asp3/lib/armv7aLaiv/GR__\libkernel.a(target_intc_impl.o)
                                0x875 (size before relaxing)
 .debug_str     0x0000facd       0x78 C:/ProgramData/KMC/SOLID/SDK/2.0/solid-os/rtos/toppers_asp3/lib/armv7aLaiv/GR__\libkernel.a(target_timer_impl.o)
                                0x85e (size before relaxing)
 .debug_str     0x0000fb45       0xb1 C:/ProgramData/KMC/SOLID/SDK/2.0/solid-os/rtos/toppers_asp3/lib/armv7aLaiv/GR__\libkernel.a(kmc_evttracker_rtos.o)
                                0x9d3 (size before relaxing)
 .debug_str     0x0000fbf6      0x1e8 C:/ProgramData/KMC/SOLID/SDK/2.0/solid-os/rtos/toppers_asp3/lib/armv7aLaiv/GR__\libkernel.a(rtos_prof.o)
                                0x825 (size before relaxing)
 .debug_str     0x0000fdde       0xff C:/ProgramData/KMC/SOLID/SDK/2.0/solid-os/rtos/toppers_asp3/lib/armv7aLaiv/GR__\libkernel.a(kernel_cfg_intl.o)
                               0x10ea (size before relaxing)
 .debug_str     0x0000fedd       0x9f C:/ProgramData/KMC/SOLID/SDK/2.0/solid-os/rtos/toppers_asp3/lib/armv7aLaiv/GR__\libkernel.a(alarm.o)
                                0x744 (size before relaxing)
 .debug_str     0x0000ff7c      0x108 C:/ProgramData/KMC/SOLID/SDK/2.0/solid-os/rtos/toppers_asp3/lib/armv7aLaiv/GR__\libkernel.a(core_kernel_impl.o)
                                0x757 (size before relaxing)
 .debug_str     0x00010084       0x74 C:/ProgramData/KMC/SOLID/SDK/2.0/solid-os/rtos/toppers_asp3/lib/armv7aLaiv/GR__\libkernel.a(cyclic.o)
                                0x602 (size before relaxing)
 .debug_str     0x000100f8       0xe4 C:/ProgramData/KMC/SOLID/SDK/2.0/solid-os/rtos/toppers_asp3/lib/armv7aLaiv/GR__\libkernel.a(eventflag.o)
                                0x9f3 (size before relaxing)
 .debug_str     0x000101dc       0x78 C:/ProgramData/KMC/SOLID/SDK/2.0/solid-os/rtos/toppers_asp3/lib/armv7aLaiv/GR__\libkernel.a(exception.o)
                                0x65f (size before relaxing)
 .debug_str     0x00010254       0xe5 C:/ProgramData/KMC/SOLID/SDK/2.0/solid-os/rtos/toppers_asp3/lib/armv7aLaiv/GR__\libkernel.a(mempfix.o)
                                0xa49 (size before relaxing)
 .debug_str     0x00010339       0x97 C:/ProgramData/KMC/SOLID/SDK/2.0/solid-os/rtos/toppers_asp3/lib/armv7aLaiv/GR__\libkernel.a(log_output.o)
                                0x28e (size before relaxing)
 .debug_str     0x000103d0      0x153 C:/ProgramData/KMC/SOLID/SDK/2.0/solid-os/rtos/toppers_asp3/lib/armv7aLaiv/GR__\libkernel.a(mutex.o)
                                0xb20 (size before relaxing)
 .debug_str     0x00010523      0x16d C:/ProgramData/KMC/SOLID/SDK/2.0/solid-os/rtos/toppers_asp3/lib/armv7aLaiv/GR__\libkernel.a(pridataq.o)
                                0xb58 (size before relaxing)
 .debug_str     0x00010690       0x79 C:/ProgramData/KMC/SOLID/SDK/2.0/solid-os/rtos/toppers_asp3/lib/armv7aLaiv/GR__\libkernel.a(task_refer.o)
                                0xda7 (size before relaxing)
 .debug_str     0x00010709       0x5e C:/ProgramData/KMC/SOLID/SDK/2.0/solid-os/rtos/toppers_asp3/lib/armv7aLaiv/GR__\libkernel.a(task_sync.o)
                                0x83d (size before relaxing)
 .debug_str     0x00010767       0x5d C:/ProgramData/KMC/SOLID/SDK/2.0/solid-os/rtos/toppers_asp3/lib/armv7aLaiv/GR__\libkernel.a(task_term.o)
                                0x7b2 (size before relaxing)
 .debug_str     0x000107c4       0x58 C:/ProgramData/KMC/SOLID/SDK/2.0/solid-os/rtos/toppers_asp3/lib/armv7aLaiv/GR__\libkernel.a(time_manage.o)
                                0x541 (size before relaxing)
 .debug_str     0x0001081c       0x85 C:/Users/admin/Documents/SOLID-IDE/Projects/cpptest/Release/exeGCC_SOLID/\libbsp.a(impl_cs_event.o)
                                0x34e (size before relaxing)
 .debug_str     0x000108a1      0x3ea C:/Users/admin/Documents/SOLID-IDE/Projects/cpptest/Release/exeGCC_SOLID/\libbsp.a(impl_dmac.o)
                                0x844 (size before relaxing)
 .debug_str     0x00010c8b       0x95 C:/Users/admin/Documents/SOLID-IDE/Projects/cpptest/Release/exeGCC_SOLID/\libbsp.a(impl_iores.o)
                                0x533 (size before relaxing)
 .debug_str     0x00010d20       0x71 C:/Users/admin/Documents/SOLID-IDE/Projects/cpptest/Release/exeGCC_SOLID/\libbsp.a(impl_log.o)
                                0x26a (size before relaxing)
 .debug_str     0x00010d91      0x433 C:/Users/admin/Documents/SOLID-IDE/Projects/cpptest/Release/exeGCC_SOLID/\libbsp.a(impl_net_dev_ether.o)
                                0x99c (size before relaxing)
 .debug_str     0x000111c4      0x1f8 C:/Users/admin/Documents/SOLID-IDE/Projects/cpptest/Release/exeGCC_SOLID/\libbsp.a(impl_net_dev_get_macaddr.o)
                                0x45d (size before relaxing)
 .debug_str     0x000113bc       0x7b C:/Users/admin/Documents/SOLID-IDE/Projects/cpptest/Release/exeGCC_SOLID/\libbsp.a(impl_net_dev_getconfig.o)
                                0x26b (size before relaxing)
 .debug_str     0x00011437       0xdf C:/Users/admin/Documents/SOLID-IDE/Projects/cpptest/Release/exeGCC_SOLID/\libbsp.a(impl_rtc.o)
                                0x2f6 (size before relaxing)
 .debug_str     0x00011516       0xd9 C:/Users/admin/Documents/SOLID-IDE/Projects/cpptest/Release/exeGCC_SOLID/\libbsp.a(impl_timer.o)
                                0x39e (size before relaxing)
 .debug_str     0x000115ef      0x307 C:/Users/admin/Documents/SOLID-IDE/Projects/cpptest/Release/exeGCC_SOLID/\libbsp.a(rtc.o)
                                0x826 (size before relaxing)
 .debug_str     0x000118f6      0x282 C:/Users/admin/Documents/SOLID-IDE/Projects/cpptest/Release/exeGCC_SOLID/\libbsp.a(rtc_userdef.o)
                                0x843 (size before relaxing)
 .debug_str     0x00011b78       0x6d C:/Users/admin/Documents/SOLID-IDE/Projects/cpptest/Release/exeGCC_SOLID/\libbsp.a(bsp_globals.o)
                                0x4d0 (size before relaxing)
 .debug_str     0x00011be5       0xa8 C:/Users/admin/Documents/SOLID-IDE/Projects/cpptest/Release/exeGCC_SOLID/\libbsp.a(rza_io_regrw.o)
                                0x2b5 (size before relaxing)
 .debug_str     0x00011c8d      0x9b5 C:/GCC4/ARM/s002/lib/armv7aLaiv\libstdc++.a(class_type_info.o)
                                0xe59 (size before relaxing)
 .debug_str     0x00012642      0x1c1 C:/GCC4/ARM/s002/lib/armv7aLaiv\libstdc++.a(atexit_arm.o)
                                0x695 (size before relaxing)
 .debug_str     0x00012803      0x1b3 C:/GCC4/ARM/s002/lib/armv7aLaiv\libstdc++.a(del_ops.o)
                                0x6a1 (size before relaxing)
 .debug_str     0x000129b6      0x454 C:/GCC4/ARM/s002/lib/armv7aLaiv\libstdc++.a(si_class_type_info.o)
                                0xc8e (size before relaxing)
 .debug_str     0x00012e0a      0x1ab C:/GCC4/ARM/s002/lib/armv7aLaiv\libstdc++.a(del_op.o)
                                0x7d7 (size before relaxing)
 .debug_str     0x00012fb5      0x3be C:/GCC4/ARM/s002/lib/armv7aLaiv\libstdc++.a(tinfo.o)
                                0x99d (size before relaxing)
 .debug_str     0x00013373      0xc2b C:/GCC4/ARM/s002/lib/armv7aLaiv/libgcc.a(_udivmoddi4.o)
                                0xe30 (size before relaxing)
 .debug_str     0x00013f9e      0x8bf C:/GCC4/ARM/s002/lib/armv7aLaiv/libgcc.a(unwind-arm.o)
                                0xcfa (size before relaxing)
 .debug_str     0x0001485d      0x12c C:/GCC4/ARM/s002/lib/armv7aLaiv/libgcc.a(pr-support.o)
                                0x59f (size before relaxing)
 .debug_str     0x00014989      0x1e1 C:/GCC4/ARM/s002/lib/armv7aLaiv/libc.a(_m_init.o)
                                0x344 (size before relaxing)
 .debug_str     0x00014b6a       0x8f C:/GCC4/ARM/s002/lib/armv7aLaiv/libc.a(abort.o)
                                0x266 (size before relaxing)
 .debug_str     0x00014bf9       0x6d C:/GCC4/ARM/s002/lib/armv7aLaiv/libc.a(errno.o)
                                0x24f (size before relaxing)
 .debug_str     0x00014c66       0x4f C:/GCC4/ARM/s002/lib/armv7aLaiv/libc.a(atoi.o)
                                0x20e (size before relaxing)
 .debug_str     0x00014cb5       0x61 C:/GCC4/ARM/s002/lib/armv7aLaiv/libc.a(rand.o)
                                0x22b (size before relaxing)
 .debug_str     0x00014d16      0x224 C:/GCC4/ARM/s002/lib/armv7aLaiv/libc.a(strtol.o)
                                0x4f4 (size before relaxing)
 .debug_str     0x00014f3a       0x61 C:/GCC4/ARM/s002/lib/armv7aLaiv/libc.a(strtoul.o)
                                0x4f8 (size before relaxing)
 .debug_str     0x00014f9b      0x257 C:/GCC4/ARM/s002/lib/armv7aLaiv/libc.a(atexit.o)
                                0x429 (size before relaxing)
 .debug_str     0x000151f2      0x2f4 C:/GCC4/ARM/s002/lib/armv7aLaiv/libc.a(isctype.o)
                                0x7fb (size before relaxing)
 .debug_str     0x000154e6      0x143 C:/GCC4/ARM/s002/lib/armv7aLaiv/libc.a(global_locale.o)
                                0x7e7 (size before relaxing)
 .debug_str     0x00015629      0x3f1 C:/GCC4/ARM/s002/lib/armv7aLaiv/libc.a(runetable.o)
                                0x82d (size before relaxing)
 .debug_str     0x00015a1a       0x8b C:/GCC4/ARM/s002/lib/armv7aLaiv/libc.a(thread-stub-init.o)
                                0x231 (size before relaxing)
 .debug_str     0x00015aa5      0x53e C:/GCC4/ARM/s002/lib/armv7aLaiv/libc.a(thread-stub.o)
                                0x881 (size before relaxing)
 .debug_str     0x00015fe3       0x6c C:/GCC4/ARM/s002/lib/armv7aLaiv/libc.a(ssp_init.o)
                                0x14e (size before relaxing)
 .debug_str     0x0001604f      0x1aa C:/GCC4/ARM/s002/lib/armv7aLaiv/libc.a(findfp.o)
                                0x681 (size before relaxing)
 .debug_str     0x000161f9       0x5c C:/GCC4/ARM/s002/lib/armv7aLaiv/libc.a(fprintf.o)
                                0x2fb (size before relaxing)
 .debug_str     0x00016255       0x71 C:/GCC4/ARM/s002/lib/armv7aLaiv/libc.a(stdio.o)
                                0x358 (size before relaxing)
 .debug_str     0x000162c6      0x4b4 C:/GCC4/ARM/s002/lib/armv7aLaiv/libc.a(vfprintf.o)
                                0xd61 (size before relaxing)
 .debug_str     0x0001677a       0x86 C:/GCC4/ARM/s002/lib/armv7aLaiv/libc.a(vsnprintf.o)
                                0x7f5 (size before relaxing)
 .debug_str     0x00016800       0x5a C:/GCC4/ARM/s002/lib/armv7aLaiv/libc.a(wsetup.o)
                                0x52e (size before relaxing)
 .debug_str     0x0001685a       0x72 C:/GCC4/ARM/s002/lib/armv7aLaiv/libc.a(makebuf.o)
                                0x3f1 (size before relaxing)
 .debug_str     0x000168cc       0x55 C:/GCC4/ARM/s002/lib/armv7aLaiv/libc.a(close.o)
                                0x27e (size before relaxing)
 .debug_str     0x00016921       0x65 C:/GCC4/ARM/s002/lib/armv7aLaiv/libc.a(fstat.o)
                                0x345 (size before relaxing)
 .debug_str     0x00016986       0x49 C:/GCC4/ARM/s002/lib/armv7aLaiv/libc.a(lseek.o)
                                0x26b (size before relaxing)
 .debug_str     0x000169cf       0x52 C:/GCC4/ARM/s002/lib/armv7aLaiv/libc.a(open.o)
                                0x2d1 (size before relaxing)
 .debug_str     0x00016a21      0x380 C:/GCC4/ARM/s002/lib/armv7aLaiv/libc.a(osemu.o)
                                0x6c1 (size before relaxing)
 .debug_str     0x00016da1       0x5f C:/GCC4/ARM/s002/lib/armv7aLaiv/libc.a(read.o)
                                0x282 (size before relaxing)
 .debug_str     0x00016e00       0xb1 C:/GCC4/ARM/s002/lib/armv7aLaiv/libc.a(u2dname.o)
                                0x31d (size before relaxing)
 .debug_str     0x00016eb1       0x94 C:/GCC4/ARM/s002/lib/armv7aLaiv/libc.a(utime.o)
                                0x319 (size before relaxing)
 .debug_str     0x00016f45       0x4f C:/GCC4/ARM/s002/lib/armv7aLaiv/libc.a(write.o)
                                0x27e (size before relaxing)
 .debug_str     0x00016f94      0x2b5 C:/GCC4/ARM/s002/lib/armv7aLaiv/libc.a(_env.o)
                                0x5db (size before relaxing)
 .debug_str     0x00017249       0x62 C:/GCC4/ARM/s002/lib/armv7aLaiv/libc.a(exit.o)
                                0x338 (size before relaxing)
 .debug_str     0x000172ab       0x5e C:/GCC4/ARM/s002/lib/armv7aLaiv/libc.a(signal.o)
                                0x219 (size before relaxing)
 .debug_str     0x00017309       0x9c C:/GCC4/ARM/s002/lib/armv7aLaiv/libc.a(localtime.o)
                                0x312 (size before relaxing)
 .debug_str     0x000173a5       0x5d C:/GCC4/ARM/s002/lib/armv7aLaiv/libc.a(lldiv.o)
                                0x224 (size before relaxing)
 .debug_str     0x00017402       0x58 C:/GCC4/ARM/s002/lib/armv7aLaiv/libc.a(memchr.o)
                                0x1b7 (size before relaxing)
 .debug_str     0x0001745a       0x62 C:/GCC4/ARM/s002/lib/armv7aLaiv/libc.a(strcspn.o)
                                0x1d9 (size before relaxing)
 .debug_str     0x000174bc       0x63 C:/GCC4/ARM/s002/lib/armv7aLaiv/libc.a(strncasecmp.o)
                                0x21d (size before relaxing)
 .debug_str     0x0001751f       0x59 C:/GCC4/ARM/s002/lib/armv7aLaiv/libc.a(strdup.o)
                                0x220 (size before relaxing)
 .debug_str     0x00017578       0x50 C:/GCC4/ARM/s002/lib/armv7aLaiv/libc.a(ctype_.o)
                                0x2fe (size before relaxing)
 .debug_str     0x000175c8       0x52 C:/GCC4/ARM/s002/lib/armv7aLaiv/libc.a(toupper_.o)
                                0x300 (size before relaxing)
 .debug_str     0x0001761a       0x52 C:/GCC4/ARM/s002/lib/armv7aLaiv/libc.a(tolower_.o)
                                0x300 (size before relaxing)
 .debug_str     0x0001766c      0x161 C:/GCC4/ARM/s002/lib/armv7aLaiv/libc.a(citrus_ctype.o)
                                0x7f5 (size before relaxing)
 .debug_str     0x000177cd      0x567 C:/GCC4/ARM/s002/lib/armv7aLaiv/libc.a(citrus_none.o)
                                0xc4b (size before relaxing)
 .debug_str     0x00017d34      0x6f4 C:/GCC4/ARM/s002/lib/armv7aLaiv/libc.a(citrus_mskanji.o)
                                0xfb4 (size before relaxing)
 .debug_str     0x00018428      0x5d8 C:/GCC4/ARM/s002/lib/armv7aLaiv/libc.a(citrus_utf8.o)
                                0xf48 (size before relaxing)
 .debug_str     0x00018a00       0x6d C:/GCC4/ARM/s002/lib/armv7aLaiv/libc.a(localeconv.o)
                                0x496 (size before relaxing)
 .debug_str     0x00018a6d      0x279 C:/GCC4/ARM/s002/lib/armv7aLaiv/libc.a(multibyte_amd1.o)
                                0xd60 (size before relaxing)
 .debug_str     0x00018ce6       0x5c C:/GCC4/ARM/s002/lib/armv7aLaiv/libc.a(__isthreaded.o)
                                0x13d (size before relaxing)
 .debug_str     0x00018d42      0x161 C:/GCC4/ARM/s002/lib/armv7aLaiv/libc.a(dtoa.o)
                                0x472 (size before relaxing)
 .debug_str     0x00018ea3       0x57 C:/GCC4/ARM/s002/lib/armv7aLaiv/libc.a(ldtoa.o)
                                0x3b1 (size before relaxing)
 .debug_str     0x00018efa       0xd1 C:/GCC4/ARM/s002/lib/armv7aLaiv/libc.a(hdtoa.o)
                                0x43a (size before relaxing)
 .debug_str     0x00018fcb       0x93 C:/GCC4/ARM/s002/lib/armv7aLaiv/libc.a(dmisc.o)
                                0x403 (size before relaxing)
 .debug_str     0x0001905e      0x113 C:/GCC4/ARM/s002/lib/armv7aLaiv/libc.a(misc.o)
                                0x49e (size before relaxing)
 .debug_str     0x00019171      0x76c C:/GCC4/ARM/s002/lib/armv7aLaiv/libc.a(softfloat.o)
                                0x99e (size before relaxing)
 .debug_str     0x000198dd       0x74 C:/GCC4/ARM/s002/lib/armv7aLaiv/libc.a(__aeabi_dcmpeq.o)
                                0x271 (size before relaxing)
 .debug_str     0x00019951       0x74 C:/GCC4/ARM/s002/lib/armv7aLaiv/libc.a(__aeabi_dcmpge.o)
                                0x271 (size before relaxing)
 .debug_str     0x000199c5       0x74 C:/GCC4/ARM/s002/lib/armv7aLaiv/libc.a(__aeabi_dcmpgt.o)
                                0x271 (size before relaxing)
 .debug_str     0x00019a39       0x74 C:/GCC4/ARM/s002/lib/armv7aLaiv/libc.a(__aeabi_dcmplt.o)
                                0x271 (size before relaxing)
 .debug_str     0x00019aad      0x228 C:/GCC4/ARM/s002/lib/armv7aLaiv/libc.a(rb.o)
                                0x503 (size before relaxing)
 .debug_str     0x00019cd5       0x60 C:/GCC4/ARM/s002/lib/armv7aLaiv/libc.a(fflush.o)
                                0x3f3 (size before relaxing)
 .debug_str     0x00019d35       0xb5 C:/GCC4/ARM/s002/lib/armv7aLaiv/libc.a(flockfile.o)
                                0x585 (size before relaxing)
 .debug_str     0x00019dea       0x6b C:/GCC4/ARM/s002/lib/armv7aLaiv/libc.a(fvwrite.o)
                                0x351 (size before relaxing)
 .debug_str     0x00019e55       0x56 C:/GCC4/ARM/s002/lib/armv7aLaiv/libc.a(fwalk.o)
                                0x2fe (size before relaxing)
 .debug_str     0x00019eab       0x49 C:/GCC4/ARM/s002/lib/armv7aLaiv/libc.a(creat.o)
                                0x27d (size before relaxing)
 .debug_str     0x00019ef4       0x6d C:/GCC4/ARM/s002/lib/armv7aLaiv/libc.a(fpclassifyd_ieee754.o)
                                0x2d4 (size before relaxing)
 .debug_str     0x00019f61       0x61 C:/GCC4/ARM/s002/lib/armv7aLaiv/libc.a(strcasecmp.o)
                                0x214 (size before relaxing)
 .debug_str     0x00019fc2       0x55 C:/GCC4/ARM/s002/lib/armv7aLaiv/libc.a(gdtoa_locks.o)
                                0x397 (size before relaxing)

.debug_loc      0x00000000    0x51220
 *(.debug_loc)
 .debug_loc     0x00000000       0x21 C:/Users/admin/Documents/SOLID-IDE/Projects/cpptest/Release/exeGCC_SOLID/cpptest/cpptest_all.o
 .debug_loc     0x00000021       0xb3 C:/ProgramData/KMC/SOLID/SDK/2.0/solid-os/core/lib/armv7aLaiv/GR_\libsolid_cs.a(solid_cs_main.o)
 .debug_loc     0x000000d4      0x1b8 C:/ProgramData/KMC/SOLID/SDK/2.0/solid-os/core/lib/armv7aLaiv/GR_\libsolid_cs.a(solid_cs_event.o)
 .debug_loc     0x0000028c       0x87 C:/ProgramData/KMC/SOLID/SDK/2.0/solid-os/core/lib/armv7aLaiv/GR_\libsolid_cs.a(solid_debugger.o)
 .debug_loc     0x00000313     0x111e C:/ProgramData/KMC/SOLID/SDK/2.0/solid-os/core/lib/armv7aLaiv/GR_\libsolid_cs.a(solid_dmac.o)
 .debug_loc     0x00001431      0x12f C:/ProgramData/KMC/SOLID/SDK/2.0/solid-os/core/lib/armv7aLaiv/GR_\libsolid_cs.a(solid_exception.o)
 .debug_loc     0x00001560     0x15d8 C:/ProgramData/KMC/SOLID/SDK/2.0/solid-os/core/lib/armv7aLaiv/GR_\libsolid_cs.a(solid_fs_base.o)
 .debug_loc     0x00002b38      0x3f3 C:/ProgramData/KMC/SOLID/SDK/2.0/solid-os/core/lib/armv7aLaiv/GR_\libsolid_cs.a(solid_fs_mem.o)
 .debug_loc     0x00002f2b      0x5a4 C:/ProgramData/KMC/SOLID/SDK/2.0/solid-os/core/lib/armv7aLaiv/GR_\libsolid_cs.a(solid_fs_vlink.o)
 .debug_loc     0x000034cf     0x29f7 C:/ProgramData/KMC/SOLID/SDK/2.0/solid-os/core/lib/armv7aLaiv/GR_\libsolid_cs.a(solid_intc.o)
 .debug_loc     0x00005ec6      0xd73 C:/ProgramData/KMC/SOLID/SDK/2.0/solid-os/core/lib/armv7aLaiv/GR_\libsolid_cs.a(solid_iores.o)
 .debug_loc     0x00006c39     0x4627 C:/ProgramData/KMC/SOLID/SDK/2.0/solid-os/core/lib/armv7aLaiv/GR_\libsolid_cs.a(solid_loader.o)
 .debug_loc     0x0000b260       0x14 C:/ProgramData/KMC/SOLID/SDK/2.0/solid-os/core/lib/armv7aLaiv/GR_\libsolid_cs.a(solid_loader_fixed.o)
 .debug_loc     0x0000b274      0x331 C:/ProgramData/KMC/SOLID/SDK/2.0/solid-os/core/lib/armv7aLaiv/GR_\libsolid_cs.a(solid_log.o)
 .debug_loc     0x0000b5a5      0x4c1 C:/ProgramData/KMC/SOLID/SDK/2.0/solid-os/core/lib/armv7aLaiv/GR_\libsolid_cs.a(solid_malloc.o)
 .debug_loc     0x0000ba66     0x311e C:/ProgramData/KMC/SOLID/SDK/2.0/solid-os/core/lib/armv7aLaiv/GR_\libsolid_cs.a(solid_mem.o)
 .debug_loc     0x0000eb84      0xe4a C:/ProgramData/KMC/SOLID/SDK/2.0/solid-os/core/lib/armv7aLaiv/GR_\libsolid_cs.a(solid_mem_cache.o)
 .debug_loc     0x0000f9ce       0xbb C:/ProgramData/KMC/SOLID/SDK/2.0/solid-os/core/lib/armv7aLaiv/GR_\libsolid_cs.a(solid_mutex.o)
 .debug_loc     0x0000fa89       0x74 C:/ProgramData/KMC/SOLID/SDK/2.0/solid-os/core/lib/armv7aLaiv/GR_\libsolid_cs.a(solid_rtc.o)
 .debug_loc     0x0000fafd      0xb79 C:/ProgramData/KMC/SOLID/SDK/2.0/solid-os/core/lib/armv7aLaiv/GR_\libsolid_cs.a(solid_timer.o)
 .debug_loc     0x00010676      0x319 C:/ProgramData/KMC/SOLID/SDK/2.0/solid-os/core/lib/armv7aLaiv/GR_\libsolid_cs.a(solid_vector.o)
 .debug_loc     0x0001098f       0xc0 C:/ProgramData/KMC/SOLID/SDK/2.0/solid-os/core/lib/armv7aLaiv/GR_\libsolid_cs.a(solid_vlink.o)
 .debug_loc     0x00010a4f     0x15d2 C:/ProgramData/KMC/SOLID/SDK/2.0/solid-os/core/lib/armv7aLaiv/GR_\libsolid_cs.a(solid_mem_mmu.o)
 .debug_loc     0x00012021      0x176 C:/ProgramData/KMC/SOLID/SDK/2.0/solid-os/core/lib/armv7aLaiv/GR_\libsolid_cs.a(kmc_evttracker_core.o)
 .debug_loc     0x00012197     0x85e5 C:/ProgramData/KMC/SOLID/SDK/2.0/solid-os/core/lib/armv7aLaiv/GR_\libsolid_cs.a(dlmalloc.o)
 .debug_loc     0x0001a77c       0x21 C:/ProgramData/KMC/SOLID/SDK/2.0/solid-os/core/lib/armv7aLaiv/GR_\libsolid_cs.a(solid_asan.o)
 .debug_loc     0x0001a79d      0x82c C:/Users/admin/Documents/SOLID-IDE/Projects/cpptest/Release/exeGCC_SOLID/\libnet.a(sys_arch.o)
 .debug_loc     0x0001afc9      0x3f4 C:/Users/admin/Documents/SOLID-IDE/Projects/cpptest/Release/exeGCC_SOLID/\libnet.a(tcpip.o)
 .debug_loc     0x0001b3bd      0x60f C:/Users/admin/Documents/SOLID-IDE/Projects/cpptest/Release/exeGCC_SOLID/\libnet.a(ip4.o)
 .debug_loc     0x0001b9cc      0x516 C:/Users/admin/Documents/SOLID-IDE/Projects/cpptest/Release/exeGCC_SOLID/\libnet.a(ip4_addr.o)
 .debug_loc     0x0001bee2      0xd4b C:/Users/admin/Documents/SOLID-IDE/Projects/cpptest/Release/exeGCC_SOLID/\libnet.a(ip4_frag.o)
 .debug_loc     0x0001cc2d      0x4b1 C:/Users/admin/Documents/SOLID-IDE/Projects/cpptest/Release/exeGCC_SOLID/\libnet.a(mem.o)
 .debug_loc     0x0001d0de      0x396 C:/Users/admin/Documents/SOLID-IDE/Projects/cpptest/Release/exeGCC_SOLID/\libnet.a(memp.o)
 .debug_loc     0x0001d474      0x672 C:/Users/admin/Documents/SOLID-IDE/Projects/cpptest/Release/exeGCC_SOLID/\libnet.a(netif.o)
 .debug_loc     0x0001dae6     0x1ac6 C:/Users/admin/Documents/SOLID-IDE/Projects/cpptest/Release/exeGCC_SOLID/\libnet.a(pbuf.o)
 .debug_loc     0x0001f5ac     0x1881 C:/Users/admin/Documents/SOLID-IDE/Projects/cpptest/Release/exeGCC_SOLID/\libnet.a(tcp.o)
 .debug_loc     0x00020e2d      0xad4 C:/Users/admin/Documents/SOLID-IDE/Projects/cpptest/Release/exeGCC_SOLID/\libnet.a(tcp_in.o)
 .debug_loc     0x00021901     0x17fb C:/Users/admin/Documents/SOLID-IDE/Projects/cpptest/Release/exeGCC_SOLID/\libnet.a(tcp_out.o)
 .debug_loc     0x000230fc      0x307 C:/Users/admin/Documents/SOLID-IDE/Projects/cpptest/Release/exeGCC_SOLID/\libnet.a(timeouts.o)
 .debug_loc     0x00023403      0xad6 C:/Users/admin/Documents/SOLID-IDE/Projects/cpptest/Release/exeGCC_SOLID/\libnet.a(udp.o)
 .debug_loc     0x00023ed9      0x1e2 C:/Users/admin/Documents/SOLID-IDE/Projects/cpptest/Release/exeGCC_SOLID/\libnet.a(ethernet.o)
 .debug_loc     0x000240bb      0x232 C:/Users/admin/Documents/SOLID-IDE/Projects/cpptest/Release/exeGCC_SOLID/\libnet.a(solid_net_if.o)
 .debug_loc     0x000242ed       0x14 C:/Users/admin/Documents/SOLID-IDE/Projects/cpptest/Release/exeGCC_SOLID/\libnet.a(solid_net_registerapi.o)
 .debug_loc     0x00024301      0x599 C:/Users/admin/Documents/SOLID-IDE/Projects/cpptest/Release/exeGCC_SOLID/\libnet.a(impl_net_stack.o)
 .debug_loc     0x0002489a       0xc2 C:/Users/admin/Documents/SOLID-IDE/Projects/cpptest/Release/exeGCC_SOLID/\libnet.a(ethernetif.o)
 .debug_loc     0x0002495c      0xcc9 C:/Users/admin/Documents/SOLID-IDE/Projects/cpptest/Release/exeGCC_SOLID/\libnet.a(api_lib.o)
 .debug_loc     0x00025625     0x1988 C:/Users/admin/Documents/SOLID-IDE/Projects/cpptest/Release/exeGCC_SOLID/\libnet.a(api_msg.o)
 .debug_loc     0x00026fad      0x20c C:/Users/admin/Documents/SOLID-IDE/Projects/cpptest/Release/exeGCC_SOLID/\libnet.a(netbuf.o)
 .debug_loc     0x000271b9      0x55d C:/Users/admin/Documents/SOLID-IDE/Projects/cpptest/Release/exeGCC_SOLID/\libnet.a(netdb.o)
 .debug_loc     0x00027716     0x3262 C:/Users/admin/Documents/SOLID-IDE/Projects/cpptest/Release/exeGCC_SOLID/\libnet.a(sockets.o)
 .debug_loc     0x0002a978      0x3d4 C:/Users/admin/Documents/SOLID-IDE/Projects/cpptest/Release/exeGCC_SOLID/\libnet.a(def.o)
 .debug_loc     0x0002ad4c      0xfbf C:/Users/admin/Documents/SOLID-IDE/Projects/cpptest/Release/exeGCC_SOLID/\libnet.a(dns.o)
 .debug_loc     0x0002bd0b      0x736 C:/Users/admin/Documents/SOLID-IDE/Projects/cpptest/Release/exeGCC_SOLID/\libnet.a(inet_chksum.o)
 .debug_loc     0x0002c441     0x1d7e C:/Users/admin/Documents/SOLID-IDE/Projects/cpptest/Release/exeGCC_SOLID/\libnet.a(dhcp.o)
 .debug_loc     0x0002e1bf      0xfc5 C:/Users/admin/Documents/SOLID-IDE/Projects/cpptest/Release/exeGCC_SOLID/\libnet.a(etharp.o)
 .debug_loc     0x0002f184      0x37f C:/Users/admin/Documents/SOLID-IDE/Projects/cpptest/Release/exeGCC_SOLID/\libnet.a(icmp.o)
 .debug_loc     0x0002f503       0x39 C:/Users/admin/Documents/SOLID-IDE/Projects/cpptest/Release/exeGCC_SOLID/\libnet.a(impl_net_stack_errno.o)
 .debug_loc     0x0002f53c       0x42 C:/Users/admin/Documents/SOLID-IDE/Projects/cpptest/Release/exeGCC_SOLID/\libnet.a(err.o)
 .debug_loc     0x0002f57e     0x124b C:/ProgramData/KMC/SOLID/SDK/2.0/solid-os/rtos/toppers_asp3/lib/armv7aLaiv/GR__\libkernel.a(dataqueue.o)
 .debug_loc     0x000307c9      0x5d8 C:/ProgramData/KMC/SOLID/SDK/2.0/solid-os/rtos/toppers_asp3/lib/armv7aLaiv/GR__\libkernel.a(interrupt.o)
 .debug_loc     0x00030da1      0x220 C:/ProgramData/KMC/SOLID/SDK/2.0/solid-os/rtos/toppers_asp3/lib/armv7aLaiv/GR__\libkernel.a(tSysLog.o)
 .debug_loc     0x00030fc1      0x1d7 C:/ProgramData/KMC/SOLID/SDK/2.0/solid-os/rtos/toppers_asp3/lib/armv7aLaiv/GR__\libkernel.a(vasyslog.o)
 .debug_loc     0x00031198      0x58d C:/ProgramData/KMC/SOLID/SDK/2.0/solid-os/rtos/toppers_asp3/lib/armv7aLaiv/GR__\libkernel.a(semaphore.o)
 .debug_loc     0x00031725       0xde C:/ProgramData/KMC/SOLID/SDK/2.0/solid-os/rtos/toppers_asp3/lib/armv7aLaiv/GR__\libkernel.a(startup.o)
 .debug_loc     0x00031803      0x382 C:/ProgramData/KMC/SOLID/SDK/2.0/solid-os/rtos/toppers_asp3/lib/armv7aLaiv/GR__\libkernel.a(sys_manage.o)
 .debug_loc     0x00031b85      0xbde C:/ProgramData/KMC/SOLID/SDK/2.0/solid-os/rtos/toppers_asp3/lib/armv7aLaiv/GR__\libkernel.a(task.o)
 .debug_loc     0x00032763      0x635 C:/ProgramData/KMC/SOLID/SDK/2.0/solid-os/rtos/toppers_asp3/lib/armv7aLaiv/GR__\libkernel.a(task_manage.o)
 .debug_loc     0x00032d98      0x5d8 C:/ProgramData/KMC/SOLID/SDK/2.0/solid-os/rtos/toppers_asp3/lib/armv7aLaiv/GR__\libkernel.a(time_event.o)
 .debug_loc     0x00033370      0xa68 C:/ProgramData/KMC/SOLID/SDK/2.0/solid-os/rtos/toppers_asp3/lib/armv7aLaiv/GR__\libkernel.a(wait.o)
 .debug_loc     0x00033dd8       0x14 C:/ProgramData/KMC/SOLID/SDK/2.0/solid-os/rtos/toppers_asp3/lib/armv7aLaiv/GR__\libkernel.a(solid_rtos_registerapi.o)
 .debug_loc     0x00033dec       0x63 C:/ProgramData/KMC/SOLID/SDK/2.0/solid-os/rtos/toppers_asp3/lib/armv7aLaiv/GR__\libkernel.a(target_fput_log.o)
 .debug_loc     0x00033e4f      0x299 C:/ProgramData/KMC/SOLID/SDK/2.0/solid-os/rtos/toppers_asp3/lib/armv7aLaiv/GR__\libkernel.a(target_intc_impl.o)
 .debug_loc     0x000340e8      0x135 C:/ProgramData/KMC/SOLID/SDK/2.0/solid-os/rtos/toppers_asp3/lib/armv7aLaiv/GR__\libkernel.a(target_timer_impl.o)
 .debug_loc     0x0003421d      0x1f0 C:/ProgramData/KMC/SOLID/SDK/2.0/solid-os/rtos/toppers_asp3/lib/armv7aLaiv/GR__\libkernel.a(kmc_evttracker_rtos.o)
 .debug_loc     0x0003440d      0x4fa C:/ProgramData/KMC/SOLID/SDK/2.0/solid-os/rtos/toppers_asp3/lib/armv7aLaiv/GR__\libkernel.a(rtos_prof.o)
 .debug_loc     0x00034907      0x359 C:/ProgramData/KMC/SOLID/SDK/2.0/solid-os/rtos/toppers_asp3/lib/armv7aLaiv/GR__\libkernel.a(alarm.o)
 .debug_loc     0x00034c60      0x618 C:/ProgramData/KMC/SOLID/SDK/2.0/solid-os/rtos/toppers_asp3/lib/armv7aLaiv/GR__\libkernel.a(core_kernel_impl.o)
 .debug_loc     0x00035278      0x255 C:/ProgramData/KMC/SOLID/SDK/2.0/solid-os/rtos/toppers_asp3/lib/armv7aLaiv/GR__\libkernel.a(cyclic.o)
 .debug_loc     0x000354cd      0xbef C:/ProgramData/KMC/SOLID/SDK/2.0/solid-os/rtos/toppers_asp3/lib/armv7aLaiv/GR__\libkernel.a(eventflag.o)
 .debug_loc     0x000360bc       0x4d C:/ProgramData/KMC/SOLID/SDK/2.0/solid-os/rtos/toppers_asp3/lib/armv7aLaiv/GR__\libkernel.a(exception.o)
 .debug_loc     0x00036109      0x86b C:/ProgramData/KMC/SOLID/SDK/2.0/solid-os/rtos/toppers_asp3/lib/armv7aLaiv/GR__\libkernel.a(mempfix.o)
 .debug_loc     0x00036974      0x40e C:/ProgramData/KMC/SOLID/SDK/2.0/solid-os/rtos/toppers_asp3/lib/armv7aLaiv/GR__\libkernel.a(log_output.o)
 .debug_loc     0x00036d82      0xc38 C:/ProgramData/KMC/SOLID/SDK/2.0/solid-os/rtos/toppers_asp3/lib/armv7aLaiv/GR__\libkernel.a(mutex.o)
 .debug_loc     0x000379ba     0x1310 C:/ProgramData/KMC/SOLID/SDK/2.0/solid-os/rtos/toppers_asp3/lib/armv7aLaiv/GR__\libkernel.a(pridataq.o)
 .debug_loc     0x00038cca      0x208 C:/ProgramData/KMC/SOLID/SDK/2.0/solid-os/rtos/toppers_asp3/lib/armv7aLaiv/GR__\libkernel.a(task_refer.o)
 .debug_loc     0x00038ed2      0x556 C:/ProgramData/KMC/SOLID/SDK/2.0/solid-os/rtos/toppers_asp3/lib/armv7aLaiv/GR__\libkernel.a(task_sync.o)
 .debug_loc     0x00039428      0x203 C:/ProgramData/KMC/SOLID/SDK/2.0/solid-os/rtos/toppers_asp3/lib/armv7aLaiv/GR__\libkernel.a(task_term.o)
 .debug_loc     0x0003962b      0x18a C:/ProgramData/KMC/SOLID/SDK/2.0/solid-os/rtos/toppers_asp3/lib/armv7aLaiv/GR__\libkernel.a(time_manage.o)
 .debug_loc     0x000397b5       0x55 C:/Users/admin/Documents/SOLID-IDE/Projects/cpptest/Release/exeGCC_SOLID/\libbsp.a(impl_cs_event.o)
 .debug_loc     0x0003980a      0x51b C:/Users/admin/Documents/SOLID-IDE/Projects/cpptest/Release/exeGCC_SOLID/\libbsp.a(impl_dmac.o)
 .debug_loc     0x00039d25       0x2f C:/Users/admin/Documents/SOLID-IDE/Projects/cpptest/Release/exeGCC_SOLID/\libbsp.a(impl_log.o)
 .debug_loc     0x00039d54      0xd7d C:/Users/admin/Documents/SOLID-IDE/Projects/cpptest/Release/exeGCC_SOLID/\libbsp.a(impl_net_dev_ether.o)
 .debug_loc     0x0003aad1      0x29d C:/Users/admin/Documents/SOLID-IDE/Projects/cpptest/Release/exeGCC_SOLID/\libbsp.a(impl_net_dev_get_macaddr.o)
 .debug_loc     0x0003ad6e       0xa8 C:/Users/admin/Documents/SOLID-IDE/Projects/cpptest/Release/exeGCC_SOLID/\libbsp.a(impl_rtc.o)
 .debug_loc     0x0003ae16       0x5c C:/Users/admin/Documents/SOLID-IDE/Projects/cpptest/Release/exeGCC_SOLID/\libbsp.a(impl_timer.o)
 .debug_loc     0x0003ae72      0x321 C:/Users/admin/Documents/SOLID-IDE/Projects/cpptest/Release/exeGCC_SOLID/\libbsp.a(rtc.o)
 .debug_loc     0x0003b193      0x369 C:/Users/admin/Documents/SOLID-IDE/Projects/cpptest/Release/exeGCC_SOLID/\libbsp.a(rza_io_regrw.o)
 .debug_loc     0x0003b4fc      0x345 C:/GCC4/ARM/s002/lib/armv7aLaiv\libstdc++.a(class_type_info.o)
 .debug_loc     0x0003b841       0x4f C:/GCC4/ARM/s002/lib/armv7aLaiv\libstdc++.a(atexit_arm.o)
 .debug_loc     0x0003b890       0x13 C:/GCC4/ARM/s002/lib/armv7aLaiv\libstdc++.a(del_ops.o)
 .debug_loc     0x0003b8a3      0x497 C:/GCC4/ARM/s002/lib/armv7aLaiv\libstdc++.a(si_class_type_info.o)
 .debug_loc     0x0003bd3a       0x13 C:/GCC4/ARM/s002/lib/armv7aLaiv\libstdc++.a(del_op.o)
 .debug_loc     0x0003bd4d       0xa6 C:/GCC4/ARM/s002/lib/armv7aLaiv\libstdc++.a(tinfo.o)
 .debug_loc     0x0003bdf3      0x142 C:/GCC4/ARM/s002/lib/armv7aLaiv/libgcc.a(_udivmoddi4.o)
 .debug_loc     0x0003bf35      0xfc7 C:/GCC4/ARM/s002/lib/armv7aLaiv/libgcc.a(unwind-arm.o)
 .debug_loc     0x0003cefc      0x2e2 C:/GCC4/ARM/s002/lib/armv7aLaiv/libgcc.a(pr-support.o)
 .debug_loc     0x0003d1de      0x2b2 C:/GCC4/ARM/s002/lib/armv7aLaiv/libc.a(_m_init.o)
 .debug_loc     0x0003d490       0x3c C:/GCC4/ARM/s002/lib/armv7aLaiv/libc.a(abort.o)
 .debug_loc     0x0003d4cc       0x13 C:/GCC4/ARM/s002/lib/armv7aLaiv/libc.a(atoi.o)
 .debug_loc     0x0003d4df      0x33e C:/GCC4/ARM/s002/lib/armv7aLaiv/libc.a(strtol.o)
 .debug_loc     0x0003d81d      0x20e C:/GCC4/ARM/s002/lib/armv7aLaiv/libc.a(strtoul.o)
 .debug_loc     0x0003da2b      0x1ab C:/GCC4/ARM/s002/lib/armv7aLaiv/libc.a(atexit.o)
 .debug_loc     0x0003dbd6      0x23a C:/GCC4/ARM/s002/lib/armv7aLaiv/libc.a(isctype.o)
 .debug_loc     0x0003de10      0x2b9 C:/GCC4/ARM/s002/lib/armv7aLaiv/libc.a(thread-stub.o)
 .debug_loc     0x0003e0c9       0xde C:/GCC4/ARM/s002/lib/armv7aLaiv/libc.a(findfp.o)
 .debug_loc     0x0003e1a7       0x39 C:/GCC4/ARM/s002/lib/armv7aLaiv/libc.a(fprintf.o)
 .debug_loc     0x0003e1e0      0x183 C:/GCC4/ARM/s002/lib/armv7aLaiv/libc.a(stdio.o)
 .debug_loc     0x0003e363     0x3ac0 C:/GCC4/ARM/s002/lib/armv7aLaiv/libc.a(vfprintf.o)
 .debug_loc     0x00041e23      0x1aa C:/GCC4/ARM/s002/lib/armv7aLaiv/libc.a(vsnprintf.o)
 .debug_loc     0x00041fcd       0x34 C:/GCC4/ARM/s002/lib/armv7aLaiv/libc.a(wsetup.o)
 .debug_loc     0x00042001       0xc2 C:/GCC4/ARM/s002/lib/armv7aLaiv/libc.a(makebuf.o)
 .debug_loc     0x000420c3       0x8e C:/GCC4/ARM/s002/lib/armv7aLaiv/libc.a(close.o)
 .debug_loc     0x00042151       0xaf C:/GCC4/ARM/s002/lib/armv7aLaiv/libc.a(fstat.o)
 .debug_loc     0x00042200       0x66 C:/GCC4/ARM/s002/lib/armv7aLaiv/libc.a(lseek.o)
 .debug_loc     0x00042266       0xe2 C:/GCC4/ARM/s002/lib/armv7aLaiv/libc.a(open.o)
 .debug_loc     0x00042348      0xe1f C:/GCC4/ARM/s002/lib/armv7aLaiv/libc.a(osemu.o)
 .debug_loc     0x00043167      0x1df C:/GCC4/ARM/s002/lib/armv7aLaiv/libc.a(read.o)
 .debug_loc     0x00043346      0x274 C:/GCC4/ARM/s002/lib/armv7aLaiv/libc.a(u2dname.o)
 .debug_loc     0x000435ba       0x83 C:/GCC4/ARM/s002/lib/armv7aLaiv/libc.a(utime.o)
 .debug_loc     0x0004363d      0x21e C:/GCC4/ARM/s002/lib/armv7aLaiv/libc.a(write.o)
 .debug_loc     0x0004385b      0x494 C:/GCC4/ARM/s002/lib/armv7aLaiv/libc.a(_env.o)
 .debug_loc     0x00043cef       0x6d C:/GCC4/ARM/s002/lib/armv7aLaiv/libc.a(exit.o)
 .debug_loc     0x00043d5c       0x26 C:/GCC4/ARM/s002/lib/armv7aLaiv/libc.a(signal.o)
 .debug_loc     0x00043d82      0x2c2 C:/GCC4/ARM/s002/lib/armv7aLaiv/libc.a(localtime.o)
 .debug_loc     0x00044044       0xae C:/GCC4/ARM/s002/lib/armv7aLaiv/libc.a(lldiv.o)
 .debug_loc     0x000440f2       0x5f C:/GCC4/ARM/s002/lib/armv7aLaiv/libc.a(memchr.o)
 .debug_loc     0x00044151       0xb2 C:/GCC4/ARM/s002/lib/armv7aLaiv/libc.a(strcspn.o)
 .debug_loc     0x00044203       0x5a C:/GCC4/ARM/s002/lib/armv7aLaiv/libc.a(strncasecmp.o)
 .debug_loc     0x0004425d       0x3c C:/GCC4/ARM/s002/lib/armv7aLaiv/libc.a(strdup.o)
 .debug_loc     0x00044299       0x75 C:/GCC4/ARM/s002/lib/armv7aLaiv/libc.a(citrus_ctype.o)
 .debug_loc     0x0004430e      0xd9b C:/GCC4/ARM/s002/lib/armv7aLaiv/libc.a(citrus_none.o)
 .debug_loc     0x000450a9     0x2057 C:/GCC4/ARM/s002/lib/armv7aLaiv/libc.a(citrus_mskanji.o)
 .debug_loc     0x00047100     0x1c5f C:/GCC4/ARM/s002/lib/armv7aLaiv/libc.a(citrus_utf8.o)
 .debug_loc     0x00048d5f       0x13 C:/GCC4/ARM/s002/lib/armv7aLaiv/libc.a(localeconv.o)
 .debug_loc     0x00048d72      0xed8 C:/GCC4/ARM/s002/lib/armv7aLaiv/libc.a(multibyte_amd1.o)
 .debug_loc     0x00049c4a     0x1a80 C:/GCC4/ARM/s002/lib/armv7aLaiv/libc.a(dtoa.o)
 .debug_loc     0x0004b6ca       0x6e C:/GCC4/ARM/s002/lib/armv7aLaiv/libc.a(ldtoa.o)
 .debug_loc     0x0004b738      0x1be C:/GCC4/ARM/s002/lib/armv7aLaiv/libc.a(hdtoa.o)
 .debug_loc     0x0004b8f6      0x363 C:/GCC4/ARM/s002/lib/armv7aLaiv/libc.a(dmisc.o)
 .debug_loc     0x0004bc59      0xdec C:/GCC4/ARM/s002/lib/armv7aLaiv/libc.a(misc.o)
 .debug_loc     0x0004ca45     0x3552 C:/GCC4/ARM/s002/lib/armv7aLaiv/libc.a(softfloat.o)
 .debug_loc     0x0004ff97       0x30 C:/GCC4/ARM/s002/lib/armv7aLaiv/libc.a(__aeabi_dcmpeq.o)
 .debug_loc     0x0004ffc7       0x30 C:/GCC4/ARM/s002/lib/armv7aLaiv/libc.a(__aeabi_dcmpge.o)
 .debug_loc     0x0004fff7       0x30 C:/GCC4/ARM/s002/lib/armv7aLaiv/libc.a(__aeabi_dcmpgt.o)
 .debug_loc     0x00050027       0x30 C:/GCC4/ARM/s002/lib/armv7aLaiv/libc.a(__aeabi_dcmplt.o)
 .debug_loc     0x00050057      0xaad C:/GCC4/ARM/s002/lib/armv7aLaiv/libc.a(rb.o)
 .debug_loc     0x00050b04      0x106 C:/GCC4/ARM/s002/lib/armv7aLaiv/libc.a(fflush.o)
 .debug_loc     0x00050c0a      0x152 C:/GCC4/ARM/s002/lib/armv7aLaiv/libc.a(flockfile.o)
 .debug_loc     0x00050d5c      0x340 C:/GCC4/ARM/s002/lib/armv7aLaiv/libc.a(fvwrite.o)
 .debug_loc     0x0005109c       0x96 C:/GCC4/ARM/s002/lib/armv7aLaiv/libc.a(fwalk.o)
 .debug_loc     0x00051132       0x70 C:/GCC4/ARM/s002/lib/armv7aLaiv/libc.a(creat.o)
 .debug_loc     0x000511a2       0x58 C:/GCC4/ARM/s002/lib/armv7aLaiv/libc.a(fpclassifyd_ieee754.o)
 .debug_loc     0x000511fa       0x26 C:/GCC4/ARM/s002/lib/armv7aLaiv/libc.a(strcasecmp.o)

.comment        0x00000000       0x11
 .comment       0x00000000       0x11 C:/Users/admin/Documents/SOLID-IDE/Projects/cpptest/Release/exeGCC_SOLID/cpptest/cpptest_all.o
                                 0x48 (size before relaxing)
 .comment       0x00000011       0x12 C:/ProgramData/KMC/SOLID/SDK/2.0/solid-os/core/lib/armv7aLaiv/GR_\libsolid_cs.a(solid_cs_main.o)
 .comment       0x00000011       0x12 C:/ProgramData/KMC/SOLID/SDK/2.0/solid-os/core/lib/armv7aLaiv/GR_\libsolid_cs.a(kmc_trace_mem_dummy.o)
 .comment       0x00000011       0x12 C:/ProgramData/KMC/SOLID/SDK/2.0/solid-os/core/lib/armv7aLaiv/GR_\libsolid_cs.a(solid_cs_event.o)
 .comment       0x00000011       0x12 C:/ProgramData/KMC/SOLID/SDK/2.0/solid-os/core/lib/armv7aLaiv/GR_\libsolid_cs.a(solid_debugger.o)
 .comment       0x00000011       0x12 C:/ProgramData/KMC/SOLID/SDK/2.0/solid-os/core/lib/armv7aLaiv/GR_\libsolid_cs.a(solid_dmac.o)
 .comment       0x00000011       0x12 C:/ProgramData/KMC/SOLID/SDK/2.0/solid-os/core/lib/armv7aLaiv/GR_\libsolid_cs.a(solid_exception.o)
 .comment       0x00000011       0x12 C:/ProgramData/KMC/SOLID/SDK/2.0/solid-os/core/lib/armv7aLaiv/GR_\libsolid_cs.a(solid_fs_base.o)
 .comment       0x00000011       0x12 C:/ProgramData/KMC/SOLID/SDK/2.0/solid-os/core/lib/armv7aLaiv/GR_\libsolid_cs.a(solid_fs_mem.o)
 .comment       0x00000011       0x12 C:/ProgramData/KMC/SOLID/SDK/2.0/solid-os/core/lib/armv7aLaiv/GR_\libsolid_cs.a(solid_fs_vlink.o)
 .comment       0x00000011       0x12 C:/ProgramData/KMC/SOLID/SDK/2.0/solid-os/core/lib/armv7aLaiv/GR_\libsolid_cs.a(solid_intc.o)
 .comment       0x00000011       0x12 C:/ProgramData/KMC/SOLID/SDK/2.0/solid-os/core/lib/armv7aLaiv/GR_\libsolid_cs.a(solid_iores.o)
 .comment       0x00000011       0x12 C:/ProgramData/KMC/SOLID/SDK/2.0/solid-os/core/lib/armv7aLaiv/GR_\libsolid_cs.a(solid_loader.o)
 .comment       0x00000011       0x12 C:/ProgramData/KMC/SOLID/SDK/2.0/solid-os/core/lib/armv7aLaiv/GR_\libsolid_cs.a(solid_loader_fixed.o)
 .comment       0x00000011       0x12 C:/ProgramData/KMC/SOLID/SDK/2.0/solid-os/core/lib/armv7aLaiv/GR_\libsolid_cs.a(solid_log.o)
 .comment       0x00000011       0x12 C:/ProgramData/KMC/SOLID/SDK/2.0/solid-os/core/lib/armv7aLaiv/GR_\libsolid_cs.a(solid_malloc.o)
 .comment       0x00000011       0x12 C:/ProgramData/KMC/SOLID/SDK/2.0/solid-os/core/lib/armv7aLaiv/GR_\libsolid_cs.a(solid_mem.o)
 .comment       0x00000011       0x12 C:/ProgramData/KMC/SOLID/SDK/2.0/solid-os/core/lib/armv7aLaiv/GR_\libsolid_cs.a(solid_mem_cache.o)
 .comment       0x00000011       0x12 C:/ProgramData/KMC/SOLID/SDK/2.0/solid-os/core/lib/armv7aLaiv/GR_\libsolid_cs.a(solid_mutex.o)
 .comment       0x00000011       0x12 C:/ProgramData/KMC/SOLID/SDK/2.0/solid-os/core/lib/armv7aLaiv/GR_\libsolid_cs.a(solid_rtc.o)
 .comment       0x00000011       0x12 C:/ProgramData/KMC/SOLID/SDK/2.0/solid-os/core/lib/armv7aLaiv/GR_\libsolid_cs.a(solid_timer.o)
 .comment       0x00000011       0x12 C:/ProgramData/KMC/SOLID/SDK/2.0/solid-os/core/lib/armv7aLaiv/GR_\libsolid_cs.a(solid_vector.o)
 .comment       0x00000011       0x12 C:/ProgramData/KMC/SOLID/SDK/2.0/solid-os/core/lib/armv7aLaiv/GR_\libsolid_cs.a(solid_vlink.o)
 .comment       0x00000011       0x12 C:/ProgramData/KMC/SOLID/SDK/2.0/solid-os/core/lib/armv7aLaiv/GR_\libsolid_cs.a(solid_mem_mmu.o)
 .comment       0x00000011       0x12 C:/ProgramData/KMC/SOLID/SDK/2.0/solid-os/core/lib/armv7aLaiv/GR_\libsolid_cs.a(kmc_evttracker_core.o)
 .comment       0x00000011       0x12 C:/ProgramData/KMC/SOLID/SDK/2.0/solid-os/core/lib/armv7aLaiv/GR_\libsolid_cs.a(dlmalloc.o)
 .comment       0x00000011       0x12 C:/ProgramData/KMC/SOLID/SDK/2.0/solid-os/core/lib/armv7aLaiv/GR_\libsolid_cs.a(solid_asan.o)
 .comment       0x00000011       0x12 C:/ProgramData/KMC/SOLID/SDK/2.0/solid-os/core/lib/armv7aLaiv/GR_\libsolid_cs.a(solid_cs_args.o)
 .comment       0x00000011       0x12 C:/ProgramData/KMC/SOLID/SDK/2.0/solid-os/core/lib/armv7aLaiv/GR_\libsolid_cs.a(tasan.o)
 .comment       0x00000011       0x12 C:/Users/admin/Documents/SOLID-IDE/Projects/cpptest/Release/exeGCC_SOLID/\libnet.a(sys_arch.o)
 .comment       0x00000011       0x12 C:/Users/admin/Documents/SOLID-IDE/Projects/cpptest/Release/exeGCC_SOLID/\libnet.a(tcpip.o)
 .comment       0x00000011       0x12 C:/Users/admin/Documents/SOLID-IDE/Projects/cpptest/Release/exeGCC_SOLID/\libnet.a(init.o)
 .comment       0x00000011       0x12 C:/Users/admin/Documents/SOLID-IDE/Projects/cpptest/Release/exeGCC_SOLID/\libnet.a(ip4.o)
 .comment       0x00000011       0x12 C:/Users/admin/Documents/SOLID-IDE/Projects/cpptest/Release/exeGCC_SOLID/\libnet.a(ip4_addr.o)
 .comment       0x00000011       0x12 C:/Users/admin/Documents/SOLID-IDE/Projects/cpptest/Release/exeGCC_SOLID/\libnet.a(ip4_frag.o)
 .comment       0x00000011       0x12 C:/Users/admin/Documents/SOLID-IDE/Projects/cpptest/Release/exeGCC_SOLID/\libnet.a(mem.o)
 .comment       0x00000011       0x12 C:/Users/admin/Documents/SOLID-IDE/Projects/cpptest/Release/exeGCC_SOLID/\libnet.a(memp.o)
 .comment       0x00000011       0x12 C:/Users/admin/Documents/SOLID-IDE/Projects/cpptest/Release/exeGCC_SOLID/\libnet.a(netif.o)
 .comment       0x00000011       0x12 C:/Users/admin/Documents/SOLID-IDE/Projects/cpptest/Release/exeGCC_SOLID/\libnet.a(pbuf.o)
 .comment       0x00000011       0x12 C:/Users/admin/Documents/SOLID-IDE/Projects/cpptest/Release/exeGCC_SOLID/\libnet.a(stats.o)
 .comment       0x00000011       0x12 C:/Users/admin/Documents/SOLID-IDE/Projects/cpptest/Release/exeGCC_SOLID/\libnet.a(tcp.o)
 .comment       0x00000011       0x12 C:/Users/admin/Documents/SOLID-IDE/Projects/cpptest/Release/exeGCC_SOLID/\libnet.a(tcp_in.o)
 .comment       0x00000011       0x12 C:/Users/admin/Documents/SOLID-IDE/Projects/cpptest/Release/exeGCC_SOLID/\libnet.a(tcp_out.o)
 .comment       0x00000011       0x12 C:/Users/admin/Documents/SOLID-IDE/Projects/cpptest/Release/exeGCC_SOLID/\libnet.a(timeouts.o)
 .comment       0x00000011       0x12 C:/Users/admin/Documents/SOLID-IDE/Projects/cpptest/Release/exeGCC_SOLID/\libnet.a(udp.o)
 .comment       0x00000011       0x12 C:/Users/admin/Documents/SOLID-IDE/Projects/cpptest/Release/exeGCC_SOLID/\libnet.a(ethernet.o)
 .comment       0x00000011       0x12 C:/Users/admin/Documents/SOLID-IDE/Projects/cpptest/Release/exeGCC_SOLID/\libnet.a(solid_net_if.o)
 .comment       0x00000011       0x12 C:/Users/admin/Documents/SOLID-IDE/Projects/cpptest/Release/exeGCC_SOLID/\libnet.a(solid_net_registerapi.o)
 .comment       0x00000011       0x12 C:/Users/admin/Documents/SOLID-IDE/Projects/cpptest/Release/exeGCC_SOLID/\libnet.a(impl_net_stack.o)
 .comment       0x00000011       0x12 C:/Users/admin/Documents/SOLID-IDE/Projects/cpptest/Release/exeGCC_SOLID/\libnet.a(ethernetif.o)
 .comment       0x00000011       0x12 C:/Users/admin/Documents/SOLID-IDE/Projects/cpptest/Release/exeGCC_SOLID/\libnet.a(api_lib.o)
 .comment       0x00000011       0x12 C:/Users/admin/Documents/SOLID-IDE/Projects/cpptest/Release/exeGCC_SOLID/\libnet.a(api_msg.o)
 .comment       0x00000011       0x12 C:/Users/admin/Documents/SOLID-IDE/Projects/cpptest/Release/exeGCC_SOLID/\libnet.a(netbuf.o)
 .comment       0x00000011       0x12 C:/Users/admin/Documents/SOLID-IDE/Projects/cpptest/Release/exeGCC_SOLID/\libnet.a(netdb.o)
 .comment       0x00000011       0x12 C:/Users/admin/Documents/SOLID-IDE/Projects/cpptest/Release/exeGCC_SOLID/\libnet.a(sockets.o)
 .comment       0x00000011       0x12 C:/Users/admin/Documents/SOLID-IDE/Projects/cpptest/Release/exeGCC_SOLID/\libnet.a(def.o)
 .comment       0x00000011       0x12 C:/Users/admin/Documents/SOLID-IDE/Projects/cpptest/Release/exeGCC_SOLID/\libnet.a(dns.o)
 .comment       0x00000011       0x12 C:/Users/admin/Documents/SOLID-IDE/Projects/cpptest/Release/exeGCC_SOLID/\libnet.a(inet_chksum.o)
 .comment       0x00000011       0x12 C:/Users/admin/Documents/SOLID-IDE/Projects/cpptest/Release/exeGCC_SOLID/\libnet.a(ip.o)
 .comment       0x00000011       0x12 C:/Users/admin/Documents/SOLID-IDE/Projects/cpptest/Release/exeGCC_SOLID/\libnet.a(dhcp.o)
 .comment       0x00000011       0x12 C:/Users/admin/Documents/SOLID-IDE/Projects/cpptest/Release/exeGCC_SOLID/\libnet.a(etharp.o)
 .comment       0x00000011       0x12 C:/Users/admin/Documents/SOLID-IDE/Projects/cpptest/Release/exeGCC_SOLID/\libnet.a(icmp.o)
 .comment       0x00000011       0x12 C:/Users/admin/Documents/SOLID-IDE/Projects/cpptest/Release/exeGCC_SOLID/\libnet.a(impl_net_stack_errno.o)
 .comment       0x00000011       0x12 C:/Users/admin/Documents/SOLID-IDE/Projects/cpptest/Release/exeGCC_SOLID/\libnet.a(err.o)
 .comment       0x00000011       0x12 C:/ProgramData/KMC/SOLID/SDK/2.0/solid-os/rtos/toppers_asp3/lib/armv7aLaiv/GR__\libkernel.a(dataqueue.o)
 .comment       0x00000011       0x12 C:/ProgramData/KMC/SOLID/SDK/2.0/solid-os/rtos/toppers_asp3/lib/armv7aLaiv/GR__\libkernel.a(interrupt.o)
 .comment       0x00000011       0x12 C:/ProgramData/KMC/SOLID/SDK/2.0/solid-os/rtos/toppers_asp3/lib/armv7aLaiv/GR__\libkernel.a(tSysLog.o)
 .comment       0x00000011       0x12 C:/ProgramData/KMC/SOLID/SDK/2.0/solid-os/rtos/toppers_asp3/lib/armv7aLaiv/GR__\libkernel.a(vasyslog.o)
 .comment       0x00000011       0x12 C:/ProgramData/KMC/SOLID/SDK/2.0/solid-os/rtos/toppers_asp3/lib/armv7aLaiv/GR__\libkernel.a(semaphore.o)
 .comment       0x00000011       0x12 C:/ProgramData/KMC/SOLID/SDK/2.0/solid-os/rtos/toppers_asp3/lib/armv7aLaiv/GR__\libkernel.a(startup.o)
 .comment       0x00000011       0x12 C:/ProgramData/KMC/SOLID/SDK/2.0/solid-os/rtos/toppers_asp3/lib/armv7aLaiv/GR__\libkernel.a(sys_manage.o)
 .comment       0x00000011       0x12 C:/ProgramData/KMC/SOLID/SDK/2.0/solid-os/rtos/toppers_asp3/lib/armv7aLaiv/GR__\libkernel.a(task.o)
 .comment       0x00000011       0x12 C:/ProgramData/KMC/SOLID/SDK/2.0/solid-os/rtos/toppers_asp3/lib/armv7aLaiv/GR__\libkernel.a(taskhook.o)
 .comment       0x00000011       0x12 C:/ProgramData/KMC/SOLID/SDK/2.0/solid-os/rtos/toppers_asp3/lib/armv7aLaiv/GR__\libkernel.a(task_manage.o)
 .comment       0x00000011       0x12 C:/ProgramData/KMC/SOLID/SDK/2.0/solid-os/rtos/toppers_asp3/lib/armv7aLaiv/GR__\libkernel.a(time_event.o)
 .comment       0x00000011       0x12 C:/ProgramData/KMC/SOLID/SDK/2.0/solid-os/rtos/toppers_asp3/lib/armv7aLaiv/GR__\libkernel.a(wait.o)
 .comment       0x00000011       0x12 C:/ProgramData/KMC/SOLID/SDK/2.0/solid-os/rtos/toppers_asp3/lib/armv7aLaiv/GR__\libkernel.a(solid_rtos_registerapi.o)
 .comment       0x00000011       0x12 C:/ProgramData/KMC/SOLID/SDK/2.0/solid-os/rtos/toppers_asp3/lib/armv7aLaiv/GR__\libkernel.a(target_fput_log.o)
 .comment       0x00000011       0x12 C:/ProgramData/KMC/SOLID/SDK/2.0/solid-os/rtos/toppers_asp3/lib/armv7aLaiv/GR__\libkernel.a(target_intc_impl.o)
 .comment       0x00000011       0x12 C:/ProgramData/KMC/SOLID/SDK/2.0/solid-os/rtos/toppers_asp3/lib/armv7aLaiv/GR__\libkernel.a(target_timer_impl.o)
 .comment       0x00000011       0x12 C:/ProgramData/KMC/SOLID/SDK/2.0/solid-os/rtos/toppers_asp3/lib/armv7aLaiv/GR__\libkernel.a(kmc_evttracker_rtos.o)
 .comment       0x00000011       0x12 C:/ProgramData/KMC/SOLID/SDK/2.0/solid-os/rtos/toppers_asp3/lib/armv7aLaiv/GR__\libkernel.a(rtos_prof.o)
 .comment       0x00000011       0x12 C:/ProgramData/KMC/SOLID/SDK/2.0/solid-os/rtos/toppers_asp3/lib/armv7aLaiv/GR__\libkernel.a(kernel_cfg_intl.o)
 .comment       0x00000011       0x12 C:/ProgramData/KMC/SOLID/SDK/2.0/solid-os/rtos/toppers_asp3/lib/armv7aLaiv/GR__\libkernel.a(alarm.o)
 .comment       0x00000011       0x12 C:/ProgramData/KMC/SOLID/SDK/2.0/solid-os/rtos/toppers_asp3/lib/armv7aLaiv/GR__\libkernel.a(core_kernel_impl.o)
 .comment       0x00000011       0x12 C:/ProgramData/KMC/SOLID/SDK/2.0/solid-os/rtos/toppers_asp3/lib/armv7aLaiv/GR__\libkernel.a(cyclic.o)
 .comment       0x00000011       0x12 C:/ProgramData/KMC/SOLID/SDK/2.0/solid-os/rtos/toppers_asp3/lib/armv7aLaiv/GR__\libkernel.a(eventflag.o)
 .comment       0x00000011       0x12 C:/ProgramData/KMC/SOLID/SDK/2.0/solid-os/rtos/toppers_asp3/lib/armv7aLaiv/GR__\libkernel.a(exception.o)
 .comment       0x00000011       0x12 C:/ProgramData/KMC/SOLID/SDK/2.0/solid-os/rtos/toppers_asp3/lib/armv7aLaiv/GR__\libkernel.a(mempfix.o)
 .comment       0x00000011       0x12 C:/ProgramData/KMC/SOLID/SDK/2.0/solid-os/rtos/toppers_asp3/lib/armv7aLaiv/GR__\libkernel.a(log_output.o)
 .comment       0x00000011       0x12 C:/ProgramData/KMC/SOLID/SDK/2.0/solid-os/rtos/toppers_asp3/lib/armv7aLaiv/GR__\libkernel.a(mutex.o)
 .comment       0x00000011       0x12 C:/ProgramData/KMC/SOLID/SDK/2.0/solid-os/rtos/toppers_asp3/lib/armv7aLaiv/GR__\libkernel.a(pridataq.o)
 .comment       0x00000011       0x12 C:/ProgramData/KMC/SOLID/SDK/2.0/solid-os/rtos/toppers_asp3/lib/armv7aLaiv/GR__\libkernel.a(task_refer.o)
 .comment       0x00000011       0x12 C:/ProgramData/KMC/SOLID/SDK/2.0/solid-os/rtos/toppers_asp3/lib/armv7aLaiv/GR__\libkernel.a(task_sync.o)
 .comment       0x00000011       0x12 C:/ProgramData/KMC/SOLID/SDK/2.0/solid-os/rtos/toppers_asp3/lib/armv7aLaiv/GR__\libkernel.a(task_term.o)
 .comment       0x00000011       0x12 C:/ProgramData/KMC/SOLID/SDK/2.0/solid-os/rtos/toppers_asp3/lib/armv7aLaiv/GR__\libkernel.a(time_manage.o)
 .comment       0x00000011       0x12 C:/Users/admin/Documents/SOLID-IDE/Projects/cpptest/Release/exeGCC_SOLID/\libbsp.a(impl_cs_event.o)
 .comment       0x00000011       0x12 C:/Users/admin/Documents/SOLID-IDE/Projects/cpptest/Release/exeGCC_SOLID/\libbsp.a(impl_dmac.o)
 .comment       0x00000011       0x12 C:/Users/admin/Documents/SOLID-IDE/Projects/cpptest/Release/exeGCC_SOLID/\libbsp.a(impl_iores.o)
 .comment       0x00000011       0x12 C:/Users/admin/Documents/SOLID-IDE/Projects/cpptest/Release/exeGCC_SOLID/\libbsp.a(impl_log.o)
 .comment       0x00000011       0x12 C:/Users/admin/Documents/SOLID-IDE/Projects/cpptest/Release/exeGCC_SOLID/\libbsp.a(impl_net_dev_ether.o)
 .comment       0x00000011       0x12 C:/Users/admin/Documents/SOLID-IDE/Projects/cpptest/Release/exeGCC_SOLID/\libbsp.a(impl_net_dev_get_macaddr.o)
 .comment       0x00000011       0x12 C:/Users/admin/Documents/SOLID-IDE/Projects/cpptest/Release/exeGCC_SOLID/\libbsp.a(impl_net_dev_getconfig.o)
 .comment       0x00000011       0x12 C:/Users/admin/Documents/SOLID-IDE/Projects/cpptest/Release/exeGCC_SOLID/\libbsp.a(impl_rtc.o)
 .comment       0x00000011       0x12 C:/Users/admin/Documents/SOLID-IDE/Projects/cpptest/Release/exeGCC_SOLID/\libbsp.a(impl_timer.o)
 .comment       0x00000011       0x12 C:/Users/admin/Documents/SOLID-IDE/Projects/cpptest/Release/exeGCC_SOLID/\libbsp.a(rtc.o)
 .comment       0x00000011       0x12 C:/Users/admin/Documents/SOLID-IDE/Projects/cpptest/Release/exeGCC_SOLID/\libbsp.a(rtc_userdef.o)
 .comment       0x00000011       0x12 C:/Users/admin/Documents/SOLID-IDE/Projects/cpptest/Release/exeGCC_SOLID/\libbsp.a(bsp_globals.o)
 .comment       0x00000011       0x12 C:/Users/admin/Documents/SOLID-IDE/Projects/cpptest/Release/exeGCC_SOLID/\libbsp.a(rza_io_regrw.o)
 .comment       0x00000011       0x12 C:/GCC4/ARM/s002/lib/armv7aLaiv\libstdc++.a(class_type_info.o)
 .comment       0x00000011       0x12 C:/GCC4/ARM/s002/lib/armv7aLaiv\libstdc++.a(atexit_arm.o)
 .comment       0x00000011       0x12 C:/GCC4/ARM/s002/lib/armv7aLaiv\libstdc++.a(del_ops.o)
 .comment       0x00000011       0x12 C:/GCC4/ARM/s002/lib/armv7aLaiv\libstdc++.a(si_class_type_info.o)
 .comment       0x00000011       0x12 C:/GCC4/ARM/s002/lib/armv7aLaiv\libstdc++.a(del_op.o)
 .comment       0x00000011       0x12 C:/GCC4/ARM/s002/lib/armv7aLaiv\libstdc++.a(tinfo.o)
 .comment       0x00000011       0x12 C:/GCC4/ARM/s002/lib/armv7aLaiv/libgcc.a(_udivmoddi4.o)
 .comment       0x00000011       0x12 C:/GCC4/ARM/s002/lib/armv7aLaiv/libgcc.a(unwind-arm.o)
 .comment       0x00000011       0x12 C:/GCC4/ARM/s002/lib/armv7aLaiv/libgcc.a(pr-support.o)
 .comment       0x00000011       0x12 C:/GCC4/ARM/s002/lib/armv7aLaiv/libc.a(_m_init.o)
 .comment       0x00000011       0x12 C:/GCC4/ARM/s002/lib/armv7aLaiv/libc.a(abort.o)
 .comment       0x00000011       0x12 C:/GCC4/ARM/s002/lib/armv7aLaiv/libc.a(errno.o)
 .comment       0x00000011       0x12 C:/GCC4/ARM/s002/lib/armv7aLaiv/libc.a(atoi.o)
 .comment       0x00000011       0x12 C:/GCC4/ARM/s002/lib/armv7aLaiv/libc.a(rand.o)
 .comment       0x00000011       0x12 C:/GCC4/ARM/s002/lib/armv7aLaiv/libc.a(strtol.o)
 .comment       0x00000011       0x12 C:/GCC4/ARM/s002/lib/armv7aLaiv/libc.a(strtoul.o)
 .comment       0x00000011       0x12 C:/GCC4/ARM/s002/lib/armv7aLaiv/libc.a(atexit.o)
 .comment       0x00000011       0x12 C:/GCC4/ARM/s002/lib/armv7aLaiv/libc.a(isctype.o)
 .comment       0x00000011       0x12 C:/GCC4/ARM/s002/lib/armv7aLaiv/libc.a(global_locale.o)
 .comment       0x00000011       0x12 C:/GCC4/ARM/s002/lib/armv7aLaiv/libc.a(runetable.o)
 .comment       0x00000011       0x12 C:/GCC4/ARM/s002/lib/armv7aLaiv/libc.a(thread-stub-init.o)
 .comment       0x00000011       0x12 C:/GCC4/ARM/s002/lib/armv7aLaiv/libc.a(thread-stub.o)
 .comment       0x00000011       0x12 C:/GCC4/ARM/s002/lib/armv7aLaiv/libc.a(ssp_init.o)
 .comment       0x00000011       0x12 C:/GCC4/ARM/s002/lib/armv7aLaiv/libc.a(findfp.o)
 .comment       0x00000011       0x12 C:/GCC4/ARM/s002/lib/armv7aLaiv/libc.a(fprintf.o)
 .comment       0x00000011       0x12 C:/GCC4/ARM/s002/lib/armv7aLaiv/libc.a(stdio.o)
 .comment       0x00000011       0x12 C:/GCC4/ARM/s002/lib/armv7aLaiv/libc.a(vfprintf.o)
 .comment       0x00000011       0x12 C:/GCC4/ARM/s002/lib/armv7aLaiv/libc.a(vsnprintf.o)
 .comment       0x00000011       0x12 C:/GCC4/ARM/s002/lib/armv7aLaiv/libc.a(wsetup.o)
 .comment       0x00000011       0x12 C:/GCC4/ARM/s002/lib/armv7aLaiv/libc.a(makebuf.o)
 .comment       0x00000011       0x12 C:/GCC4/ARM/s002/lib/armv7aLaiv/libc.a(close.o)
 .comment       0x00000011       0x12 C:/GCC4/ARM/s002/lib/armv7aLaiv/libc.a(fstat.o)
 .comment       0x00000011       0x12 C:/GCC4/ARM/s002/lib/armv7aLaiv/libc.a(lseek.o)
 .comment       0x00000011       0x12 C:/GCC4/ARM/s002/lib/armv7aLaiv/libc.a(open.o)
 .comment       0x00000011       0x12 C:/GCC4/ARM/s002/lib/armv7aLaiv/libc.a(osemu.o)
 .comment       0x00000011       0x12 C:/GCC4/ARM/s002/lib/armv7aLaiv/libc.a(read.o)
 .comment       0x00000011       0x12 C:/GCC4/ARM/s002/lib/armv7aLaiv/libc.a(u2dname.o)
 .comment       0x00000011       0x12 C:/GCC4/ARM/s002/lib/armv7aLaiv/libc.a(utime.o)
 .comment       0x00000011       0x12 C:/GCC4/ARM/s002/lib/armv7aLaiv/libc.a(write.o)
 .comment       0x00000011       0x12 C:/GCC4/ARM/s002/lib/armv7aLaiv/libc.a(_env.o)
 .comment       0x00000011       0x12 C:/GCC4/ARM/s002/lib/armv7aLaiv/libc.a(exit.o)
 .comment       0x00000011       0x12 C:/GCC4/ARM/s002/lib/armv7aLaiv/libc.a(signal.o)
 .comment       0x00000011       0x12 C:/GCC4/ARM/s002/lib/armv7aLaiv/libc.a(localtime.o)
 .comment       0x00000011       0x12 C:/GCC4/ARM/s002/lib/armv7aLaiv/libc.a(lldiv.o)
 .comment       0x00000011       0x12 C:/GCC4/ARM/s002/lib/armv7aLaiv/libc.a(memchr.o)
 .comment       0x00000011       0x12 C:/GCC4/ARM/s002/lib/armv7aLaiv/libc.a(strcspn.o)
 .comment       0x00000011       0x12 C:/GCC4/ARM/s002/lib/armv7aLaiv/libc.a(strncasecmp.o)
 .comment       0x00000011       0x12 C:/GCC4/ARM/s002/lib/armv7aLaiv/libc.a(strdup.o)
 .comment       0x00000011       0x12 C:/GCC4/ARM/s002/lib/armv7aLaiv/libc.a(ctype_.o)
 .comment       0x00000011       0x12 C:/GCC4/ARM/s002/lib/armv7aLaiv/libc.a(toupper_.o)
 .comment       0x00000011       0x12 C:/GCC4/ARM/s002/lib/armv7aLaiv/libc.a(tolower_.o)
 .comment       0x00000011       0x12 C:/GCC4/ARM/s002/lib/armv7aLaiv/libc.a(citrus_ctype.o)
 .comment       0x00000011       0x12 C:/GCC4/ARM/s002/lib/armv7aLaiv/libc.a(citrus_none.o)
 .comment       0x00000011       0x12 C:/GCC4/ARM/s002/lib/armv7aLaiv/libc.a(citrus_mskanji.o)
 .comment       0x00000011       0x12 C:/GCC4/ARM/s002/lib/armv7aLaiv/libc.a(citrus_utf8.o)
 .comment       0x00000011       0x12 C:/GCC4/ARM/s002/lib/armv7aLaiv/libc.a(localeconv.o)
 .comment       0x00000011       0x12 C:/GCC4/ARM/s002/lib/armv7aLaiv/libc.a(multibyte_amd1.o)
 .comment       0x00000011       0x12 C:/GCC4/ARM/s002/lib/armv7aLaiv/libc.a(__isthreaded.o)
 .comment       0x00000011       0x12 C:/GCC4/ARM/s002/lib/armv7aLaiv/libc.a(dtoa.o)
 .comment       0x00000011       0x12 C:/GCC4/ARM/s002/lib/armv7aLaiv/libc.a(ldtoa.o)
 .comment       0x00000011       0x12 C:/GCC4/ARM/s002/lib/armv7aLaiv/libc.a(hdtoa.o)
 .comment       0x00000011       0x12 C:/GCC4/ARM/s002/lib/armv7aLaiv/libc.a(dmisc.o)
 .comment       0x00000011       0x12 C:/GCC4/ARM/s002/lib/armv7aLaiv/libc.a(misc.o)
 .comment       0x00000011       0x12 C:/GCC4/ARM/s002/lib/armv7aLaiv/libc.a(softfloat.o)
 .comment       0x00000011       0x12 C:/GCC4/ARM/s002/lib/armv7aLaiv/libc.a(__aeabi_dcmpeq.o)
 .comment       0x00000011       0x12 C:/GCC4/ARM/s002/lib/armv7aLaiv/libc.a(__aeabi_dcmpge.o)
 .comment       0x00000011       0x12 C:/GCC4/ARM/s002/lib/armv7aLaiv/libc.a(__aeabi_dcmpgt.o)
 .comment       0x00000011       0x12 C:/GCC4/ARM/s002/lib/armv7aLaiv/libc.a(__aeabi_dcmplt.o)
 .comment       0x00000011       0x12 C:/GCC4/ARM/s002/lib/armv7aLaiv/libc.a(rb.o)
 .comment       0x00000011       0x12 C:/GCC4/ARM/s002/lib/armv7aLaiv/libc.a(fflush.o)
 .comment       0x00000011       0x12 C:/GCC4/ARM/s002/lib/armv7aLaiv/libc.a(flockfile.o)
 .comment       0x00000011       0x12 C:/GCC4/ARM/s002/lib/armv7aLaiv/libc.a(fvwrite.o)
 .comment       0x00000011       0x12 C:/GCC4/ARM/s002/lib/armv7aLaiv/libc.a(fwalk.o)
 .comment       0x00000011       0x12 C:/GCC4/ARM/s002/lib/armv7aLaiv/libc.a(creat.o)
 .comment       0x00000011       0x12 C:/GCC4/ARM/s002/lib/armv7aLaiv/libc.a(fpclassifyd_ieee754.o)
 .comment       0x00000011       0x12 C:/GCC4/ARM/s002/lib/armv7aLaiv/libc.a(strcasecmp.o)
 .comment       0x00000011       0x12 C:/GCC4/ARM/s002/lib/armv7aLaiv/libc.a(gdtoa_locks.o)

.ARM.attributes
                0x00000000       0x37
 .ARM.attributes
                0x00000000       0x39 C:/Users/admin/Documents/SOLID-IDE/Projects/cpptest/Release/exeGCC_SOLID/cpptest/cpptest_all.o
 .ARM.attributes
                0x00000039       0x1d C:/ProgramData/KMC/SOLID/SDK/2.0/solid-os/core/lib/armv7aLaiv/GR_\libsolid_cs.a(solid_cs_asm.o)
 .ARM.attributes
                0x00000056       0x2f C:/ProgramData/KMC/SOLID/SDK/2.0/solid-os/core/lib/armv7aLaiv/GR_\libsolid_cs.a(solid_cs_main.o)
 .ARM.attributes
                0x00000085       0x2f C:/ProgramData/KMC/SOLID/SDK/2.0/solid-os/core/lib/armv7aLaiv/GR_\libsolid_cs.a(kmc_trace_mem_dummy.o)
 .ARM.attributes
                0x000000b4       0x2f C:/ProgramData/KMC/SOLID/SDK/2.0/solid-os/core/lib/armv7aLaiv/GR_\libsolid_cs.a(solid_cs_event.o)
 .ARM.attributes
                0x000000e3       0x2f C:/ProgramData/KMC/SOLID/SDK/2.0/solid-os/core/lib/armv7aLaiv/GR_\libsolid_cs.a(solid_debugger.o)
 .ARM.attributes
                0x00000112       0x2f C:/ProgramData/KMC/SOLID/SDK/2.0/solid-os/core/lib/armv7aLaiv/GR_\libsolid_cs.a(solid_dmac.o)
 .ARM.attributes
                0x00000141       0x2f C:/ProgramData/KMC/SOLID/SDK/2.0/solid-os/core/lib/armv7aLaiv/GR_\libsolid_cs.a(solid_exception.o)
 .ARM.attributes
                0x00000170       0x2f C:/ProgramData/KMC/SOLID/SDK/2.0/solid-os/core/lib/armv7aLaiv/GR_\libsolid_cs.a(solid_fs_base.o)
 .ARM.attributes
                0x0000019f       0x2f C:/ProgramData/KMC/SOLID/SDK/2.0/solid-os/core/lib/armv7aLaiv/GR_\libsolid_cs.a(solid_fs_mem.o)
 .ARM.attributes
                0x000001ce       0x2f C:/ProgramData/KMC/SOLID/SDK/2.0/solid-os/core/lib/armv7aLaiv/GR_\libsolid_cs.a(solid_fs_vlink.o)
 .ARM.attributes
                0x000001fd       0x2f C:/ProgramData/KMC/SOLID/SDK/2.0/solid-os/core/lib/armv7aLaiv/GR_\libsolid_cs.a(solid_intc.o)
 .ARM.attributes
                0x0000022c       0x2f C:/ProgramData/KMC/SOLID/SDK/2.0/solid-os/core/lib/armv7aLaiv/GR_\libsolid_cs.a(solid_iores.o)
 .ARM.attributes
                0x0000025b       0x2f C:/ProgramData/KMC/SOLID/SDK/2.0/solid-os/core/lib/armv7aLaiv/GR_\libsolid_cs.a(solid_loader.o)
 .ARM.attributes
                0x0000028a       0x2f C:/ProgramData/KMC/SOLID/SDK/2.0/solid-os/core/lib/armv7aLaiv/GR_\libsolid_cs.a(solid_loader_fixed.o)
 .ARM.attributes
                0x000002b9       0x2f C:/ProgramData/KMC/SOLID/SDK/2.0/solid-os/core/lib/armv7aLaiv/GR_\libsolid_cs.a(solid_log.o)
 .ARM.attributes
                0x000002e8       0x2f C:/ProgramData/KMC/SOLID/SDK/2.0/solid-os/core/lib/armv7aLaiv/GR_\libsolid_cs.a(solid_malloc.o)
 .ARM.attributes
                0x00000317       0x2f C:/ProgramData/KMC/SOLID/SDK/2.0/solid-os/core/lib/armv7aLaiv/GR_\libsolid_cs.a(solid_mem.o)
 .ARM.attributes
                0x00000346       0x2f C:/ProgramData/KMC/SOLID/SDK/2.0/solid-os/core/lib/armv7aLaiv/GR_\libsolid_cs.a(solid_mem_cache.o)
 .ARM.attributes
                0x00000375       0x2f C:/ProgramData/KMC/SOLID/SDK/2.0/solid-os/core/lib/armv7aLaiv/GR_\libsolid_cs.a(solid_mutex.o)
 .ARM.attributes
                0x000003a4       0x2f C:/ProgramData/KMC/SOLID/SDK/2.0/solid-os/core/lib/armv7aLaiv/GR_\libsolid_cs.a(solid_rtc.o)
 .ARM.attributes
                0x000003d3       0x2f C:/ProgramData/KMC/SOLID/SDK/2.0/solid-os/core/lib/armv7aLaiv/GR_\libsolid_cs.a(solid_timer.o)
 .ARM.attributes
                0x00000402       0x2f C:/ProgramData/KMC/SOLID/SDK/2.0/solid-os/core/lib/armv7aLaiv/GR_\libsolid_cs.a(solid_vector.o)
 .ARM.attributes
                0x00000431       0x2f C:/ProgramData/KMC/SOLID/SDK/2.0/solid-os/core/lib/armv7aLaiv/GR_\libsolid_cs.a(solid_vlink.o)
 .ARM.attributes
                0x00000460       0x2f C:/ProgramData/KMC/SOLID/SDK/2.0/solid-os/core/lib/armv7aLaiv/GR_\libsolid_cs.a(solid_mem_mmu.o)
 .ARM.attributes
                0x0000048f       0x2f C:/ProgramData/KMC/SOLID/SDK/2.0/solid-os/core/lib/armv7aLaiv/GR_\libsolid_cs.a(kmc_evttracker_core.o)
 .ARM.attributes
                0x000004be       0x2f C:/ProgramData/KMC/SOLID/SDK/2.0/solid-os/core/lib/armv7aLaiv/GR_\libsolid_cs.a(dlmalloc.o)
 .ARM.attributes
                0x000004ed       0x2f C:/ProgramData/KMC/SOLID/SDK/2.0/solid-os/core/lib/armv7aLaiv/GR_\libsolid_cs.a(solid_asan.o)
 .ARM.attributes
                0x0000051c       0x2f C:/ProgramData/KMC/SOLID/SDK/2.0/solid-os/core/lib/armv7aLaiv/GR_\libsolid_cs.a(solid_cs_args.o)
 .ARM.attributes
                0x0000054b       0x2f C:/ProgramData/KMC/SOLID/SDK/2.0/solid-os/core/lib/armv7aLaiv/GR_\libsolid_cs.a(tasan.o)
 .ARM.attributes
                0x0000057a       0x39 C:/Users/admin/Documents/SOLID-IDE/Projects/cpptest/Release/exeGCC_SOLID/\libnet.a(sys_arch.o)
 .ARM.attributes
                0x000005b3       0x39 C:/Users/admin/Documents/SOLID-IDE/Projects/cpptest/Release/exeGCC_SOLID/\libnet.a(tcpip.o)
 .ARM.attributes
                0x000005ec       0x39 C:/Users/admin/Documents/SOLID-IDE/Projects/cpptest/Release/exeGCC_SOLID/\libnet.a(init.o)
 .ARM.attributes
                0x00000625       0x39 C:/Users/admin/Documents/SOLID-IDE/Projects/cpptest/Release/exeGCC_SOLID/\libnet.a(ip4.o)
 .ARM.attributes
                0x0000065e       0x39 C:/Users/admin/Documents/SOLID-IDE/Projects/cpptest/Release/exeGCC_SOLID/\libnet.a(ip4_addr.o)
 .ARM.attributes
                0x00000697       0x39 C:/Users/admin/Documents/SOLID-IDE/Projects/cpptest/Release/exeGCC_SOLID/\libnet.a(ip4_frag.o)
 .ARM.attributes
                0x000006d0       0x39 C:/Users/admin/Documents/SOLID-IDE/Projects/cpptest/Release/exeGCC_SOLID/\libnet.a(mem.o)
 .ARM.attributes
                0x00000709       0x39 C:/Users/admin/Documents/SOLID-IDE/Projects/cpptest/Release/exeGCC_SOLID/\libnet.a(memp.o)
 .ARM.attributes
                0x00000742       0x39 C:/Users/admin/Documents/SOLID-IDE/Projects/cpptest/Release/exeGCC_SOLID/\libnet.a(netif.o)
 .ARM.attributes
                0x0000077b       0x39 C:/Users/admin/Documents/SOLID-IDE/Projects/cpptest/Release/exeGCC_SOLID/\libnet.a(pbuf.o)
 .ARM.attributes
                0x000007b4       0x39 C:/Users/admin/Documents/SOLID-IDE/Projects/cpptest/Release/exeGCC_SOLID/\libnet.a(stats.o)
 .ARM.attributes
                0x000007ed       0x39 C:/Users/admin/Documents/SOLID-IDE/Projects/cpptest/Release/exeGCC_SOLID/\libnet.a(tcp.o)
 .ARM.attributes
                0x00000826       0x39 C:/Users/admin/Documents/SOLID-IDE/Projects/cpptest/Release/exeGCC_SOLID/\libnet.a(tcp_in.o)
 .ARM.attributes
                0x0000085f       0x39 C:/Users/admin/Documents/SOLID-IDE/Projects/cpptest/Release/exeGCC_SOLID/\libnet.a(tcp_out.o)
 .ARM.attributes
                0x00000898       0x39 C:/Users/admin/Documents/SOLID-IDE/Projects/cpptest/Release/exeGCC_SOLID/\libnet.a(timeouts.o)
 .ARM.attributes
                0x000008d1       0x39 C:/Users/admin/Documents/SOLID-IDE/Projects/cpptest/Release/exeGCC_SOLID/\libnet.a(udp.o)
 .ARM.attributes
                0x0000090a       0x39 C:/Users/admin/Documents/SOLID-IDE/Projects/cpptest/Release/exeGCC_SOLID/\libnet.a(ethernet.o)
 .ARM.attributes
                0x00000943       0x39 C:/Users/admin/Documents/SOLID-IDE/Projects/cpptest/Release/exeGCC_SOLID/\libnet.a(solid_net_if.o)
 .ARM.attributes
                0x0000097c       0x39 C:/Users/admin/Documents/SOLID-IDE/Projects/cpptest/Release/exeGCC_SOLID/\libnet.a(solid_net_registerapi.o)
 .ARM.attributes
                0x000009b5       0x39 C:/Users/admin/Documents/SOLID-IDE/Projects/cpptest/Release/exeGCC_SOLID/\libnet.a(impl_net_stack.o)
 .ARM.attributes
                0x000009ee       0x39 C:/Users/admin/Documents/SOLID-IDE/Projects/cpptest/Release/exeGCC_SOLID/\libnet.a(ethernetif.o)
 .ARM.attributes
                0x00000a27       0x39 C:/Users/admin/Documents/SOLID-IDE/Projects/cpptest/Release/exeGCC_SOLID/\libnet.a(api_lib.o)
 .ARM.attributes
                0x00000a60       0x39 C:/Users/admin/Documents/SOLID-IDE/Projects/cpptest/Release/exeGCC_SOLID/\libnet.a(api_msg.o)
 .ARM.attributes
                0x00000a99       0x39 C:/Users/admin/Documents/SOLID-IDE/Projects/cpptest/Release/exeGCC_SOLID/\libnet.a(netbuf.o)
 .ARM.attributes
                0x00000ad2       0x39 C:/Users/admin/Documents/SOLID-IDE/Projects/cpptest/Release/exeGCC_SOLID/\libnet.a(netdb.o)
 .ARM.attributes
                0x00000b0b       0x39 C:/Users/admin/Documents/SOLID-IDE/Projects/cpptest/Release/exeGCC_SOLID/\libnet.a(sockets.o)
 .ARM.attributes
                0x00000b44       0x39 C:/Users/admin/Documents/SOLID-IDE/Projects/cpptest/Release/exeGCC_SOLID/\libnet.a(def.o)
 .ARM.attributes
                0x00000b7d       0x39 C:/Users/admin/Documents/SOLID-IDE/Projects/cpptest/Release/exeGCC_SOLID/\libnet.a(dns.o)
 .ARM.attributes
                0x00000bb6       0x39 C:/Users/admin/Documents/SOLID-IDE/Projects/cpptest/Release/exeGCC_SOLID/\libnet.a(inet_chksum.o)
 .ARM.attributes
                0x00000bef       0x39 C:/Users/admin/Documents/SOLID-IDE/Projects/cpptest/Release/exeGCC_SOLID/\libnet.a(ip.o)
 .ARM.attributes
                0x00000c28       0x39 C:/Users/admin/Documents/SOLID-IDE/Projects/cpptest/Release/exeGCC_SOLID/\libnet.a(dhcp.o)
 .ARM.attributes
                0x00000c61       0x39 C:/Users/admin/Documents/SOLID-IDE/Projects/cpptest/Release/exeGCC_SOLID/\libnet.a(etharp.o)
 .ARM.attributes
                0x00000c9a       0x39 C:/Users/admin/Documents/SOLID-IDE/Projects/cpptest/Release/exeGCC_SOLID/\libnet.a(icmp.o)
 .ARM.attributes
                0x00000cd3       0x39 C:/Users/admin/Documents/SOLID-IDE/Projects/cpptest/Release/exeGCC_SOLID/\libnet.a(impl_net_stack_errno.o)
 .ARM.attributes
                0x00000d0c       0x39 C:/Users/admin/Documents/SOLID-IDE/Projects/cpptest/Release/exeGCC_SOLID/\libnet.a(err.o)
 .ARM.attributes
                0x00000d45       0x2f C:/ProgramData/KMC/SOLID/SDK/2.0/solid-os/rtos/toppers_asp3/lib/armv7aLaiv/GR__\libkernel.a(dataqueue.o)
 .ARM.attributes
                0x00000d74       0x2f C:/ProgramData/KMC/SOLID/SDK/2.0/solid-os/rtos/toppers_asp3/lib/armv7aLaiv/GR__\libkernel.a(interrupt.o)
 .ARM.attributes
                0x00000da3       0x2f C:/ProgramData/KMC/SOLID/SDK/2.0/solid-os/rtos/toppers_asp3/lib/armv7aLaiv/GR__\libkernel.a(tSysLog.o)
 .ARM.attributes
                0x00000dd2       0x2f C:/ProgramData/KMC/SOLID/SDK/2.0/solid-os/rtos/toppers_asp3/lib/armv7aLaiv/GR__\libkernel.a(vasyslog.o)
 .ARM.attributes
                0x00000e01       0x2f C:/ProgramData/KMC/SOLID/SDK/2.0/solid-os/rtos/toppers_asp3/lib/armv7aLaiv/GR__\libkernel.a(semaphore.o)
 .ARM.attributes
                0x00000e30       0x2f C:/ProgramData/KMC/SOLID/SDK/2.0/solid-os/rtos/toppers_asp3/lib/armv7aLaiv/GR__\libkernel.a(startup.o)
 .ARM.attributes
                0x00000e5f       0x2f C:/ProgramData/KMC/SOLID/SDK/2.0/solid-os/rtos/toppers_asp3/lib/armv7aLaiv/GR__\libkernel.a(sys_manage.o)
 .ARM.attributes
                0x00000e8e       0x2f C:/ProgramData/KMC/SOLID/SDK/2.0/solid-os/rtos/toppers_asp3/lib/armv7aLaiv/GR__\libkernel.a(task.o)
 .ARM.attributes
                0x00000ebd       0x2f C:/ProgramData/KMC/SOLID/SDK/2.0/solid-os/rtos/toppers_asp3/lib/armv7aLaiv/GR__\libkernel.a(taskhook.o)
 .ARM.attributes
                0x00000eec       0x2f C:/ProgramData/KMC/SOLID/SDK/2.0/solid-os/rtos/toppers_asp3/lib/armv7aLaiv/GR__\libkernel.a(task_manage.o)
 .ARM.attributes
                0x00000f1b       0x2f C:/ProgramData/KMC/SOLID/SDK/2.0/solid-os/rtos/toppers_asp3/lib/armv7aLaiv/GR__\libkernel.a(time_event.o)
 .ARM.attributes
                0x00000f4a       0x2f C:/ProgramData/KMC/SOLID/SDK/2.0/solid-os/rtos/toppers_asp3/lib/armv7aLaiv/GR__\libkernel.a(wait.o)
 .ARM.attributes
                0x00000f79       0x2f C:/ProgramData/KMC/SOLID/SDK/2.0/solid-os/rtos/toppers_asp3/lib/armv7aLaiv/GR__\libkernel.a(solid_rtos_registerapi.o)
 .ARM.attributes
                0x00000fa8       0x2f C:/ProgramData/KMC/SOLID/SDK/2.0/solid-os/rtos/toppers_asp3/lib/armv7aLaiv/GR__\libkernel.a(target_fput_log.o)
 .ARM.attributes
                0x00000fd7       0x2f C:/ProgramData/KMC/SOLID/SDK/2.0/solid-os/rtos/toppers_asp3/lib/armv7aLaiv/GR__\libkernel.a(target_intc_impl.o)
 .ARM.attributes
                0x00001006       0x2f C:/ProgramData/KMC/SOLID/SDK/2.0/solid-os/rtos/toppers_asp3/lib/armv7aLaiv/GR__\libkernel.a(target_timer_impl.o)
 .ARM.attributes
                0x00001035       0x2f C:/ProgramData/KMC/SOLID/SDK/2.0/solid-os/rtos/toppers_asp3/lib/armv7aLaiv/GR__\libkernel.a(kmc_evttracker_rtos.o)
 .ARM.attributes
                0x00001064       0x2f C:/ProgramData/KMC/SOLID/SDK/2.0/solid-os/rtos/toppers_asp3/lib/armv7aLaiv/GR__\libkernel.a(rtos_prof.o)
 .ARM.attributes
                0x00001093       0x1d C:/ProgramData/KMC/SOLID/SDK/2.0/solid-os/rtos/toppers_asp3/lib/armv7aLaiv/GR__\libkernel.a(core_support.o)
 .ARM.attributes
                0x000010b0       0x2f C:/ProgramData/KMC/SOLID/SDK/2.0/solid-os/rtos/toppers_asp3/lib/armv7aLaiv/GR__\libkernel.a(kernel_cfg_intl.o)
 .ARM.attributes
                0x000010df       0x2f C:/ProgramData/KMC/SOLID/SDK/2.0/solid-os/rtos/toppers_asp3/lib/armv7aLaiv/GR__\libkernel.a(alarm.o)
 .ARM.attributes
                0x0000110e       0x2f C:/ProgramData/KMC/SOLID/SDK/2.0/solid-os/rtos/toppers_asp3/lib/armv7aLaiv/GR__\libkernel.a(core_kernel_impl.o)
 .ARM.attributes
                0x0000113d       0x2f C:/ProgramData/KMC/SOLID/SDK/2.0/solid-os/rtos/toppers_asp3/lib/armv7aLaiv/GR__\libkernel.a(cyclic.o)
 .ARM.attributes
                0x0000116c       0x2f C:/ProgramData/KMC/SOLID/SDK/2.0/solid-os/rtos/toppers_asp3/lib/armv7aLaiv/GR__\libkernel.a(eventflag.o)
 .ARM.attributes
                0x0000119b       0x2f C:/ProgramData/KMC/SOLID/SDK/2.0/solid-os/rtos/toppers_asp3/lib/armv7aLaiv/GR__\libkernel.a(exception.o)
 .ARM.attributes
                0x000011ca       0x2f C:/ProgramData/KMC/SOLID/SDK/2.0/solid-os/rtos/toppers_asp3/lib/armv7aLaiv/GR__\libkernel.a(mempfix.o)
 .ARM.attributes
                0x000011f9       0x2f C:/ProgramData/KMC/SOLID/SDK/2.0/solid-os/rtos/toppers_asp3/lib/armv7aLaiv/GR__\libkernel.a(log_output.o)
 .ARM.attributes
                0x00001228       0x2f C:/ProgramData/KMC/SOLID/SDK/2.0/solid-os/rtos/toppers_asp3/lib/armv7aLaiv/GR__\libkernel.a(mutex.o)
 .ARM.attributes
                0x00001257       0x2f C:/ProgramData/KMC/SOLID/SDK/2.0/solid-os/rtos/toppers_asp3/lib/armv7aLaiv/GR__\libkernel.a(pridataq.o)
 .ARM.attributes
                0x00001286       0x2f C:/ProgramData/KMC/SOLID/SDK/2.0/solid-os/rtos/toppers_asp3/lib/armv7aLaiv/GR__\libkernel.a(task_refer.o)
 .ARM.attributes
                0x000012b5       0x2f C:/ProgramData/KMC/SOLID/SDK/2.0/solid-os/rtos/toppers_asp3/lib/armv7aLaiv/GR__\libkernel.a(task_sync.o)
 .ARM.attributes
                0x000012e4       0x2f C:/ProgramData/KMC/SOLID/SDK/2.0/solid-os/rtos/toppers_asp3/lib/armv7aLaiv/GR__\libkernel.a(task_term.o)
 .ARM.attributes
                0x00001313       0x2f C:/ProgramData/KMC/SOLID/SDK/2.0/solid-os/rtos/toppers_asp3/lib/armv7aLaiv/GR__\libkernel.a(time_manage.o)
 .ARM.attributes
                0x00001342       0x39 C:/Users/admin/Documents/SOLID-IDE/Projects/cpptest/Release/exeGCC_SOLID/\libbsp.a(impl_cs_event.o)
 .ARM.attributes
                0x0000137b       0x39 C:/Users/admin/Documents/SOLID-IDE/Projects/cpptest/Release/exeGCC_SOLID/\libbsp.a(impl_dmac.o)
 .ARM.attributes
                0x000013b4       0x39 C:/Users/admin/Documents/SOLID-IDE/Projects/cpptest/Release/exeGCC_SOLID/\libbsp.a(impl_iores.o)
 .ARM.attributes
                0x000013ed       0x39 C:/Users/admin/Documents/SOLID-IDE/Projects/cpptest/Release/exeGCC_SOLID/\libbsp.a(impl_log.o)
 .ARM.attributes
                0x00001426       0x39 C:/Users/admin/Documents/SOLID-IDE/Projects/cpptest/Release/exeGCC_SOLID/\libbsp.a(impl_net_dev_ether.o)
 .ARM.attributes
                0x0000145f       0x39 C:/Users/admin/Documents/SOLID-IDE/Projects/cpptest/Release/exeGCC_SOLID/\libbsp.a(impl_net_dev_get_macaddr.o)
 .ARM.attributes
                0x00001498       0x39 C:/Users/admin/Documents/SOLID-IDE/Projects/cpptest/Release/exeGCC_SOLID/\libbsp.a(impl_net_dev_getconfig.o)
 .ARM.attributes
                0x000014d1       0x39 C:/Users/admin/Documents/SOLID-IDE/Projects/cpptest/Release/exeGCC_SOLID/\libbsp.a(impl_rtc.o)
 .ARM.attributes
                0x0000150a       0x39 C:/Users/admin/Documents/SOLID-IDE/Projects/cpptest/Release/exeGCC_SOLID/\libbsp.a(impl_timer.o)
 .ARM.attributes
                0x00001543       0x39 C:/Users/admin/Documents/SOLID-IDE/Projects/cpptest/Release/exeGCC_SOLID/\libbsp.a(rtc.o)
 .ARM.attributes
                0x0000157c       0x39 C:/Users/admin/Documents/SOLID-IDE/Projects/cpptest/Release/exeGCC_SOLID/\libbsp.a(rtc_userdef.o)
 .ARM.attributes
                0x000015b5       0x39 C:/Users/admin/Documents/SOLID-IDE/Projects/cpptest/Release/exeGCC_SOLID/\libbsp.a(bsp_globals.o)
 .ARM.attributes
                0x000015ee       0x39 C:/Users/admin/Documents/SOLID-IDE/Projects/cpptest/Release/exeGCC_SOLID/\libbsp.a(rza_io_regrw.o)
 .ARM.attributes
                0x00001627       0x2d C:/GCC4/ARM/s002/lib/armv7aLaiv\libstdc++.a(class_type_info.o)
 .ARM.attributes
                0x00001654       0x2d C:/GCC4/ARM/s002/lib/armv7aLaiv\libstdc++.a(atexit_arm.o)
 .ARM.attributes
                0x00001681       0x2d C:/GCC4/ARM/s002/lib/armv7aLaiv\libstdc++.a(del_ops.o)
 .ARM.attributes
                0x000016ae       0x2d C:/GCC4/ARM/s002/lib/armv7aLaiv\libstdc++.a(si_class_type_info.o)
 .ARM.attributes
                0x000016db       0x2d C:/GCC4/ARM/s002/lib/armv7aLaiv\libstdc++.a(del_op.o)
 .ARM.attributes
                0x00001708       0x2d C:/GCC4/ARM/s002/lib/armv7aLaiv\libstdc++.a(tinfo.o)
 .ARM.attributes
                0x00001735       0x1f C:/GCC4/ARM/s002/lib/armv7aLaiv/libgcc.a(_udivsi3.o)
 .ARM.attributes
                0x00001754       0x1f C:/GCC4/ARM/s002/lib/armv7aLaiv/libgcc.a(_dvmd_tls.o)
 .ARM.attributes
                0x00001773       0x1f C:/GCC4/ARM/s002/lib/armv7aLaiv/libgcc.a(_aeabi_uldivmod.o)
 .ARM.attributes
                0x00001792       0x2d C:/GCC4/ARM/s002/lib/armv7aLaiv/libgcc.a(_udivmoddi4.o)
 .ARM.attributes
                0x000017bf       0x2d C:/GCC4/ARM/s002/lib/armv7aLaiv/libgcc.a(unwind-arm.o)
 .ARM.attributes
                0x000017ec       0x1f C:/GCC4/ARM/s002/lib/armv7aLaiv/libgcc.a(libunwind.o)
 .ARM.attributes
                0x0000180b       0x2d C:/GCC4/ARM/s002/lib/armv7aLaiv/libgcc.a(pr-support.o)
 .ARM.attributes
                0x00001838       0x2d C:/GCC4/ARM/s002/lib/armv7aLaiv/libc.a(_m_init.o)
 .ARM.attributes
                0x00001865       0x2d C:/GCC4/ARM/s002/lib/armv7aLaiv/libc.a(abort.o)
 .ARM.attributes
                0x00001892       0x2d C:/GCC4/ARM/s002/lib/armv7aLaiv/libc.a(errno.o)
 .ARM.attributes
                0x000018bf       0x2d C:/GCC4/ARM/s002/lib/armv7aLaiv/libc.a(atoi.o)
 .ARM.attributes
                0x000018ec       0x2d C:/GCC4/ARM/s002/lib/armv7aLaiv/libc.a(rand.o)
 .ARM.attributes
                0x00001919       0x2d C:/GCC4/ARM/s002/lib/armv7aLaiv/libc.a(strtol.o)
 .ARM.attributes
                0x00001946       0x2d C:/GCC4/ARM/s002/lib/armv7aLaiv/libc.a(strtoul.o)
 .ARM.attributes
                0x00001973       0x2d C:/GCC4/ARM/s002/lib/armv7aLaiv/libc.a(atexit.o)
 .ARM.attributes
                0x000019a0       0x1d C:/GCC4/ARM/s002/lib/armv7aLaiv/libc.a(memcmp.o)
 .ARM.attributes
                0x000019bd       0x1d C:/GCC4/ARM/s002/lib/armv7aLaiv/libc.a(memcpy.o)
 .ARM.attributes
                0x000019da       0x1d C:/GCC4/ARM/s002/lib/armv7aLaiv/libc.a(memset.o)
 .ARM.attributes
                0x000019f7       0x1d C:/GCC4/ARM/s002/lib/armv7aLaiv/libc.a(strncpy.o)
 .ARM.attributes
                0x00001a14       0x1d C:/GCC4/ARM/s002/lib/armv7aLaiv/libc.a(strcmp.o)
 .ARM.attributes
                0x00001a31       0x1d C:/GCC4/ARM/s002/lib/armv7aLaiv/libc.a(strncmp.o)
 .ARM.attributes
                0x00001a4e       0x1d C:/GCC4/ARM/s002/lib/armv7aLaiv/libc.a(strlen.o)
 .ARM.attributes
                0x00001a6b       0x2d C:/GCC4/ARM/s002/lib/armv7aLaiv/libc.a(isctype.o)
 .ARM.attributes
                0x00001a98       0x2d C:/GCC4/ARM/s002/lib/armv7aLaiv/libc.a(global_locale.o)
 .ARM.attributes
                0x00001ac5       0x2d C:/GCC4/ARM/s002/lib/armv7aLaiv/libc.a(runetable.o)
 .ARM.attributes
                0x00001af2       0x2d C:/GCC4/ARM/s002/lib/armv7aLaiv/libc.a(thread-stub-init.o)
 .ARM.attributes
                0x00001b1f       0x2d C:/GCC4/ARM/s002/lib/armv7aLaiv/libc.a(thread-stub.o)
 .ARM.attributes
                0x00001b4c       0x2d C:/GCC4/ARM/s002/lib/armv7aLaiv/libc.a(ssp_init.o)
 .ARM.attributes
                0x00001b79       0x2d C:/GCC4/ARM/s002/lib/armv7aLaiv/libc.a(findfp.o)
 .ARM.attributes
                0x00001ba6       0x2d C:/GCC4/ARM/s002/lib/armv7aLaiv/libc.a(fprintf.o)
 .ARM.attributes
                0x00001bd3       0x2d C:/GCC4/ARM/s002/lib/armv7aLaiv/libc.a(stdio.o)
 .ARM.attributes
                0x00001c00       0x2d C:/GCC4/ARM/s002/lib/armv7aLaiv/libc.a(vfprintf.o)
 .ARM.attributes
                0x00001c2d       0x2d C:/GCC4/ARM/s002/lib/armv7aLaiv/libc.a(vsnprintf.o)
 .ARM.attributes
                0x00001c5a       0x2d C:/GCC4/ARM/s002/lib/armv7aLaiv/libc.a(wsetup.o)
 .ARM.attributes
                0x00001c87       0x2d C:/GCC4/ARM/s002/lib/armv7aLaiv/libc.a(makebuf.o)
 .ARM.attributes
                0x00001cb4       0x2d C:/GCC4/ARM/s002/lib/armv7aLaiv/libc.a(close.o)
 .ARM.attributes
                0x00001ce1       0x2d C:/GCC4/ARM/s002/lib/armv7aLaiv/libc.a(fstat.o)
 .ARM.attributes
                0x00001d0e       0x2d C:/GCC4/ARM/s002/lib/armv7aLaiv/libc.a(lseek.o)
 .ARM.attributes
                0x00001d3b       0x2d C:/GCC4/ARM/s002/lib/armv7aLaiv/libc.a(open.o)
 .ARM.attributes
                0x00001d68       0x2d C:/GCC4/ARM/s002/lib/armv7aLaiv/libc.a(osemu.o)
 .ARM.attributes
                0x00001d95       0x2d C:/GCC4/ARM/s002/lib/armv7aLaiv/libc.a(read.o)
 .ARM.attributes
                0x00001dc2       0x2d C:/GCC4/ARM/s002/lib/armv7aLaiv/libc.a(u2dname.o)
 .ARM.attributes
                0x00001def       0x2d C:/GCC4/ARM/s002/lib/armv7aLaiv/libc.a(utime.o)
 .ARM.attributes
                0x00001e1c       0x2d C:/GCC4/ARM/s002/lib/armv7aLaiv/libc.a(write.o)
 .ARM.attributes
                0x00001e49       0x2d C:/GCC4/ARM/s002/lib/armv7aLaiv/libc.a(_env.o)
 .ARM.attributes
                0x00001e76       0x2d C:/GCC4/ARM/s002/lib/armv7aLaiv/libc.a(exit.o)
 .ARM.attributes
                0x00001ea3       0x2d C:/GCC4/ARM/s002/lib/armv7aLaiv/libc.a(signal.o)
 .ARM.attributes
                0x00001ed0       0x2d C:/GCC4/ARM/s002/lib/armv7aLaiv/libc.a(localtime.o)
 .ARM.attributes
                0x00001efd       0x2d C:/GCC4/ARM/s002/lib/armv7aLaiv/libc.a(lldiv.o)
 .ARM.attributes
                0x00001f2a       0x2d C:/GCC4/ARM/s002/lib/armv7aLaiv/libc.a(memchr.o)
 .ARM.attributes
                0x00001f57       0x2d C:/GCC4/ARM/s002/lib/armv7aLaiv/libc.a(strcspn.o)
 .ARM.attributes
                0x00001f84       0x2d C:/GCC4/ARM/s002/lib/armv7aLaiv/libc.a(strncasecmp.o)
 .ARM.attributes
                0x00001fb1       0x2d C:/GCC4/ARM/s002/lib/armv7aLaiv/libc.a(strdup.o)
 .ARM.attributes
                0x00001fde       0x2d C:/GCC4/ARM/s002/lib/armv7aLaiv/libc.a(ctype_.o)
 .ARM.attributes
                0x0000200b       0x2d C:/GCC4/ARM/s002/lib/armv7aLaiv/libc.a(toupper_.o)
 .ARM.attributes
                0x00002038       0x2d C:/GCC4/ARM/s002/lib/armv7aLaiv/libc.a(tolower_.o)
 .ARM.attributes
                0x00002065       0x2d C:/GCC4/ARM/s002/lib/armv7aLaiv/libc.a(citrus_ctype.o)
 .ARM.attributes
                0x00002092       0x2d C:/GCC4/ARM/s002/lib/armv7aLaiv/libc.a(citrus_none.o)
 .ARM.attributes
                0x000020bf       0x2d C:/GCC4/ARM/s002/lib/armv7aLaiv/libc.a(citrus_mskanji.o)
 .ARM.attributes
                0x000020ec       0x2d C:/GCC4/ARM/s002/lib/armv7aLaiv/libc.a(citrus_utf8.o)
 .ARM.attributes
                0x00002119       0x2d C:/GCC4/ARM/s002/lib/armv7aLaiv/libc.a(localeconv.o)
 .ARM.attributes
                0x00002146       0x2d C:/GCC4/ARM/s002/lib/armv7aLaiv/libc.a(multibyte_amd1.o)
 .ARM.attributes
                0x00002173       0x2d C:/GCC4/ARM/s002/lib/armv7aLaiv/libc.a(__isthreaded.o)
 .ARM.attributes
                0x000021a0       0x2d C:/GCC4/ARM/s002/lib/armv7aLaiv/libc.a(dtoa.o)
 .ARM.attributes
                0x000021cd       0x2d C:/GCC4/ARM/s002/lib/armv7aLaiv/libc.a(ldtoa.o)
 .ARM.attributes
                0x000021fa       0x2d C:/GCC4/ARM/s002/lib/armv7aLaiv/libc.a(hdtoa.o)
 .ARM.attributes
                0x00002227       0x2d C:/GCC4/ARM/s002/lib/armv7aLaiv/libc.a(dmisc.o)
 .ARM.attributes
                0x00002254       0x2d C:/GCC4/ARM/s002/lib/armv7aLaiv/libc.a(misc.o)
 .ARM.attributes
                0x00002281       0x2d C:/GCC4/ARM/s002/lib/armv7aLaiv/libc.a(softfloat.o)
 .ARM.attributes
                0x000022ae       0x2d C:/GCC4/ARM/s002/lib/armv7aLaiv/libc.a(__aeabi_dcmpeq.o)
 .ARM.attributes
                0x000022db       0x2d C:/GCC4/ARM/s002/lib/armv7aLaiv/libc.a(__aeabi_dcmpge.o)
 .ARM.attributes
                0x00002308       0x2d C:/GCC4/ARM/s002/lib/armv7aLaiv/libc.a(__aeabi_dcmpgt.o)
 .ARM.attributes
                0x00002335       0x2d C:/GCC4/ARM/s002/lib/armv7aLaiv/libc.a(__aeabi_dcmplt.o)
 .ARM.attributes
                0x00002362       0x2d C:/GCC4/ARM/s002/lib/armv7aLaiv/libc.a(rb.o)
 .ARM.attributes
                0x0000238f       0x2d C:/GCC4/ARM/s002/lib/armv7aLaiv/libc.a(fflush.o)
 .ARM.attributes
                0x000023bc       0x2d C:/GCC4/ARM/s002/lib/armv7aLaiv/libc.a(flockfile.o)
 .ARM.attributes
                0x000023e9       0x2d C:/GCC4/ARM/s002/lib/armv7aLaiv/libc.a(fvwrite.o)
 .ARM.attributes
                0x00002416       0x2d C:/GCC4/ARM/s002/lib/armv7aLaiv/libc.a(fwalk.o)
 .ARM.attributes
                0x00002443       0x2d C:/GCC4/ARM/s002/lib/armv7aLaiv/libc.a(creat.o)
 .ARM.attributes
                0x00002470       0x2d C:/GCC4/ARM/s002/lib/armv7aLaiv/libc.a(fpclassifyd_ieee754.o)
 .ARM.attributes
                0x0000249d       0x2d C:/GCC4/ARM/s002/lib/armv7aLaiv/libc.a(strcasecmp.o)
 .ARM.attributes
                0x000024ca       0x2d C:/GCC4/ARM/s002/lib/armv7aLaiv/libc.a(gdtoa_locks.o)
 .ARM.attributes
                0x000024f7       0x1f C:/GCC4/ARM/s002/lib/armv7aLaiv/libgcc.a(_divsi3.o)
 .ARM.attributes
                0x00002516       0x1f C:/GCC4/ARM/s002/lib/armv7aLaiv/libgcc.a(_arm_addsubdf3.o)
 .ARM.attributes
                0x00002535       0x1f C:/GCC4/ARM/s002/lib/armv7aLaiv/libgcc.a(_aeabi_ldivmod.o)

.ident          0x00000000      0x273
 .ident         0x00000000       0x39 C:/GCC4/ARM/s002/lib/armv7aLaiv/libc.a(strtol.o)
 .ident         0x00000039       0x39 C:/GCC4/ARM/s002/lib/armv7aLaiv/libc.a(strtoul.o)
 .ident         0x00000072       0x38 C:/GCC4/ARM/s002/lib/armv7aLaiv/libc.a(memcmp.o)
 .ident         0x000000aa       0x3b C:/GCC4/ARM/s002/lib/armv7aLaiv/libc.a(strncpy.o)
 .ident         0x000000e5       0x37 C:/GCC4/ARM/s002/lib/armv7aLaiv/libc.a(strcmp.o)
 .ident         0x0000011c       0x38 C:/GCC4/ARM/s002/lib/armv7aLaiv/libc.a(strncmp.o)
 .ident         0x00000154       0x3c C:/GCC4/ARM/s002/lib/armv7aLaiv/libc.a(strlen.o)
 .ident         0x00000190       0x39 C:/GCC4/ARM/s002/lib/armv7aLaiv/libc.a(strcspn.o)
 .ident         0x000001c9       0x3a C:/GCC4/ARM/s002/lib/armv7aLaiv/libc.a(ldtoa.o)
 .ident         0x00000203       0x35 C:/GCC4/ARM/s002/lib/armv7aLaiv/libc.a(hdtoa.o)
 .ident         0x00000238       0x3b C:/GCC4/ARM/s002/lib/armv7aLaiv/libc.a(rb.o)

.debug_macinfo
 *(.debug_macinfo)

.debug_weaknames
 *(.debug_weaknames)

.debug_funcnames
 *(.debug_funcnames)

.debug_typenames
 *(.debug_typenames)

.debug_varnames
 *(.debug_varnames)
OUTPUT(C:/Users/admin/Documents/SOLID-IDE/Projects/cpptest/Release/exeGCC_SOLID/cpptest.out elf32-littlearm)

.debug_ranges   0x00000000     0xa0f8
 .debug_ranges  0x00000000       0x20 C:/ProgramData/KMC/SOLID/SDK/2.0/solid-os/core/lib/armv7aLaiv/GR_\libsolid_cs.a(solid_cs_asm.o)
 .debug_ranges  0x00000020       0x18 C:/ProgramData/KMC/SOLID/SDK/2.0/solid-os/core/lib/armv7aLaiv/GR_\libsolid_cs.a(solid_cs_main.o)
 .debug_ranges  0x00000038       0x20 C:/ProgramData/KMC/SOLID/SDK/2.0/solid-os/core/lib/armv7aLaiv/GR_\libsolid_cs.a(solid_cs_event.o)
 .debug_ranges  0x00000058      0x220 C:/ProgramData/KMC/SOLID/SDK/2.0/solid-os/core/lib/armv7aLaiv/GR_\libsolid_cs.a(solid_dmac.o)
 .debug_ranges  0x00000278      0x148 C:/ProgramData/KMC/SOLID/SDK/2.0/solid-os/core/lib/armv7aLaiv/GR_\libsolid_cs.a(solid_fs_base.o)
 .debug_ranges  0x000003c0      0x408 C:/ProgramData/KMC/SOLID/SDK/2.0/solid-os/core/lib/armv7aLaiv/GR_\libsolid_cs.a(solid_intc.o)
 .debug_ranges  0x000007c8      0x170 C:/ProgramData/KMC/SOLID/SDK/2.0/solid-os/core/lib/armv7aLaiv/GR_\libsolid_cs.a(solid_iores.o)
 .debug_ranges  0x00000938      0xb78 C:/ProgramData/KMC/SOLID/SDK/2.0/solid-os/core/lib/armv7aLaiv/GR_\libsolid_cs.a(solid_loader.o)
 .debug_ranges  0x000014b0       0x68 C:/ProgramData/KMC/SOLID/SDK/2.0/solid-os/core/lib/armv7aLaiv/GR_\libsolid_cs.a(solid_malloc.o)
 .debug_ranges  0x00001518      0x810 C:/ProgramData/KMC/SOLID/SDK/2.0/solid-os/core/lib/armv7aLaiv/GR_\libsolid_cs.a(solid_mem.o)
 .debug_ranges  0x00001d28      0x1d8 C:/ProgramData/KMC/SOLID/SDK/2.0/solid-os/core/lib/armv7aLaiv/GR_\libsolid_cs.a(solid_mem_cache.o)
 .debug_ranges  0x00001f00      0x3b8 C:/ProgramData/KMC/SOLID/SDK/2.0/solid-os/core/lib/armv7aLaiv/GR_\libsolid_cs.a(solid_timer.o)
 .debug_ranges  0x000022b8       0xb0 C:/ProgramData/KMC/SOLID/SDK/2.0/solid-os/core/lib/armv7aLaiv/GR_\libsolid_cs.a(solid_vector.o)
 .debug_ranges  0x00002368       0x48 C:/ProgramData/KMC/SOLID/SDK/2.0/solid-os/core/lib/armv7aLaiv/GR_\libsolid_cs.a(solid_vlink.o)
 .debug_ranges  0x000023b0      0x5e0 C:/ProgramData/KMC/SOLID/SDK/2.0/solid-os/core/lib/armv7aLaiv/GR_\libsolid_cs.a(solid_mem_mmu.o)
 .debug_ranges  0x00002990      0xd88 C:/ProgramData/KMC/SOLID/SDK/2.0/solid-os/core/lib/armv7aLaiv/GR_\libsolid_cs.a(dlmalloc.o)
 .debug_ranges  0x00003718       0x18 C:/Users/admin/Documents/SOLID-IDE/Projects/cpptest/Release/exeGCC_SOLID/\libnet.a(sys_arch.o)
 .debug_ranges  0x00003730       0x68 C:/Users/admin/Documents/SOLID-IDE/Projects/cpptest/Release/exeGCC_SOLID/\libnet.a(ip4.o)
 .debug_ranges  0x00003798       0xc0 C:/Users/admin/Documents/SOLID-IDE/Projects/cpptest/Release/exeGCC_SOLID/\libnet.a(ip4_frag.o)
 .debug_ranges  0x00003858       0x38 C:/Users/admin/Documents/SOLID-IDE/Projects/cpptest/Release/exeGCC_SOLID/\libnet.a(mem.o)
 .debug_ranges  0x00003890       0x30 C:/Users/admin/Documents/SOLID-IDE/Projects/cpptest/Release/exeGCC_SOLID/\libnet.a(memp.o)
 .debug_ranges  0x000038c0       0xe0 C:/Users/admin/Documents/SOLID-IDE/Projects/cpptest/Release/exeGCC_SOLID/\libnet.a(netif.o)
 .debug_ranges  0x000039a0      0x100 C:/Users/admin/Documents/SOLID-IDE/Projects/cpptest/Release/exeGCC_SOLID/\libnet.a(pbuf.o)
 .debug_ranges  0x00003aa0      0x230 C:/Users/admin/Documents/SOLID-IDE/Projects/cpptest/Release/exeGCC_SOLID/\libnet.a(tcp.o)
 .debug_ranges  0x00003cd0      0x170 C:/Users/admin/Documents/SOLID-IDE/Projects/cpptest/Release/exeGCC_SOLID/\libnet.a(tcp_in.o)
 .debug_ranges  0x00003e40      0x190 C:/Users/admin/Documents/SOLID-IDE/Projects/cpptest/Release/exeGCC_SOLID/\libnet.a(tcp_out.o)
 .debug_ranges  0x00003fd0       0x48 C:/Users/admin/Documents/SOLID-IDE/Projects/cpptest/Release/exeGCC_SOLID/\libnet.a(timeouts.o)
 .debug_ranges  0x00004018       0x38 C:/Users/admin/Documents/SOLID-IDE/Projects/cpptest/Release/exeGCC_SOLID/\libnet.a(udp.o)
 .debug_ranges  0x00004050       0x18 C:/Users/admin/Documents/SOLID-IDE/Projects/cpptest/Release/exeGCC_SOLID/\libnet.a(solid_net_if.o)
 .debug_ranges  0x00004068       0x48 C:/Users/admin/Documents/SOLID-IDE/Projects/cpptest/Release/exeGCC_SOLID/\libnet.a(impl_net_stack.o)
 .debug_ranges  0x000040b0       0x28 C:/Users/admin/Documents/SOLID-IDE/Projects/cpptest/Release/exeGCC_SOLID/\libnet.a(ethernetif.o)
 .debug_ranges  0x000040d8      0x190 C:/Users/admin/Documents/SOLID-IDE/Projects/cpptest/Release/exeGCC_SOLID/\libnet.a(api_lib.o)
 .debug_ranges  0x00004268      0x1c0 C:/Users/admin/Documents/SOLID-IDE/Projects/cpptest/Release/exeGCC_SOLID/\libnet.a(api_msg.o)
 .debug_ranges  0x00004428       0x28 C:/Users/admin/Documents/SOLID-IDE/Projects/cpptest/Release/exeGCC_SOLID/\libnet.a(netdb.o)
 .debug_ranges  0x00004450      0x790 C:/Users/admin/Documents/SOLID-IDE/Projects/cpptest/Release/exeGCC_SOLID/\libnet.a(sockets.o)
 .debug_ranges  0x00004be0       0x38 C:/Users/admin/Documents/SOLID-IDE/Projects/cpptest/Release/exeGCC_SOLID/\libnet.a(def.o)
 .debug_ranges  0x00004c18      0x140 C:/Users/admin/Documents/SOLID-IDE/Projects/cpptest/Release/exeGCC_SOLID/\libnet.a(dns.o)
 .debug_ranges  0x00004d58       0x30 C:/Users/admin/Documents/SOLID-IDE/Projects/cpptest/Release/exeGCC_SOLID/\libnet.a(inet_chksum.o)
 .debug_ranges  0x00004d88      0x710 C:/Users/admin/Documents/SOLID-IDE/Projects/cpptest/Release/exeGCC_SOLID/\libnet.a(dhcp.o)
 .debug_ranges  0x00005498      0x1c0 C:/Users/admin/Documents/SOLID-IDE/Projects/cpptest/Release/exeGCC_SOLID/\libnet.a(etharp.o)
 .debug_ranges  0x00005658       0x20 C:/Users/admin/Documents/SOLID-IDE/Projects/cpptest/Release/exeGCC_SOLID/\libnet.a(icmp.o)
 .debug_ranges  0x00005678      0x348 C:/ProgramData/KMC/SOLID/SDK/2.0/solid-os/rtos/toppers_asp3/lib/armv7aLaiv/GR__\libkernel.a(dataqueue.o)
 .debug_ranges  0x000059c0       0xe0 C:/ProgramData/KMC/SOLID/SDK/2.0/solid-os/rtos/toppers_asp3/lib/armv7aLaiv/GR__\libkernel.a(interrupt.o)
 .debug_ranges  0x00005aa0       0x60 C:/ProgramData/KMC/SOLID/SDK/2.0/solid-os/rtos/toppers_asp3/lib/armv7aLaiv/GR__\libkernel.a(tSysLog.o)
 .debug_ranges  0x00005b00       0xc8 C:/ProgramData/KMC/SOLID/SDK/2.0/solid-os/rtos/toppers_asp3/lib/armv7aLaiv/GR__\libkernel.a(semaphore.o)
 .debug_ranges  0x00005bc8       0x18 C:/ProgramData/KMC/SOLID/SDK/2.0/solid-os/rtos/toppers_asp3/lib/armv7aLaiv/GR__\libkernel.a(startup.o)
 .debug_ranges  0x00005be0      0x280 C:/ProgramData/KMC/SOLID/SDK/2.0/solid-os/rtos/toppers_asp3/lib/armv7aLaiv/GR__\libkernel.a(task.o)
 .debug_ranges  0x00005e60       0xa8 C:/ProgramData/KMC/SOLID/SDK/2.0/solid-os/rtos/toppers_asp3/lib/armv7aLaiv/GR__\libkernel.a(task_manage.o)
 .debug_ranges  0x00005f08      0x128 C:/ProgramData/KMC/SOLID/SDK/2.0/solid-os/rtos/toppers_asp3/lib/armv7aLaiv/GR__\libkernel.a(time_event.o)
 .debug_ranges  0x00006030      0x248 C:/ProgramData/KMC/SOLID/SDK/2.0/solid-os/rtos/toppers_asp3/lib/armv7aLaiv/GR__\libkernel.a(wait.o)
 .debug_ranges  0x00006278       0x78 C:/ProgramData/KMC/SOLID/SDK/2.0/solid-os/rtos/toppers_asp3/lib/armv7aLaiv/GR__\libkernel.a(rtos_prof.o)
 .debug_ranges  0x000062f0       0x78 C:/ProgramData/KMC/SOLID/SDK/2.0/solid-os/rtos/toppers_asp3/lib/armv7aLaiv/GR__\libkernel.a(alarm.o)
 .debug_ranges  0x00006368       0x90 C:/ProgramData/KMC/SOLID/SDK/2.0/solid-os/rtos/toppers_asp3/lib/armv7aLaiv/GR__\libkernel.a(core_kernel_impl.o)
 .debug_ranges  0x000063f8       0x60 C:/ProgramData/KMC/SOLID/SDK/2.0/solid-os/rtos/toppers_asp3/lib/armv7aLaiv/GR__\libkernel.a(cyclic.o)
 .debug_ranges  0x00006458      0x130 C:/ProgramData/KMC/SOLID/SDK/2.0/solid-os/rtos/toppers_asp3/lib/armv7aLaiv/GR__\libkernel.a(eventflag.o)
 .debug_ranges  0x00006588       0xe0 C:/ProgramData/KMC/SOLID/SDK/2.0/solid-os/rtos/toppers_asp3/lib/armv7aLaiv/GR__\libkernel.a(mempfix.o)
 .debug_ranges  0x00006668      0x220 C:/ProgramData/KMC/SOLID/SDK/2.0/solid-os/rtos/toppers_asp3/lib/armv7aLaiv/GR__\libkernel.a(mutex.o)
 .debug_ranges  0x00006888      0x288 C:/ProgramData/KMC/SOLID/SDK/2.0/solid-os/rtos/toppers_asp3/lib/armv7aLaiv/GR__\libkernel.a(pridataq.o)
 .debug_ranges  0x00006b10      0x1a0 C:/ProgramData/KMC/SOLID/SDK/2.0/solid-os/rtos/toppers_asp3/lib/armv7aLaiv/GR__\libkernel.a(task_sync.o)
 .debug_ranges  0x00006cb0       0x30 C:/ProgramData/KMC/SOLID/SDK/2.0/solid-os/rtos/toppers_asp3/lib/armv7aLaiv/GR__\libkernel.a(task_term.o)
 .debug_ranges  0x00006ce0       0x30 C:/ProgramData/KMC/SOLID/SDK/2.0/solid-os/rtos/toppers_asp3/lib/armv7aLaiv/GR__\libkernel.a(time_manage.o)
 .debug_ranges  0x00006d10       0x70 C:/Users/admin/Documents/SOLID-IDE/Projects/cpptest/Release/exeGCC_SOLID/\libbsp.a(impl_dmac.o)
 .debug_ranges  0x00006d80       0x18 C:/Users/admin/Documents/SOLID-IDE/Projects/cpptest/Release/exeGCC_SOLID/\libbsp.a(impl_log.o)
 .debug_ranges  0x00006d98      0x3d0 C:/Users/admin/Documents/SOLID-IDE/Projects/cpptest/Release/exeGCC_SOLID/\libbsp.a(impl_net_dev_ether.o)
 .debug_ranges  0x00007168       0x90 C:/GCC4/ARM/s002/lib/armv7aLaiv\libstdc++.a(class_type_info.o)
 .debug_ranges  0x000071f8       0x10 C:/GCC4/ARM/s002/lib/armv7aLaiv\libstdc++.a(atexit_arm.o)
 .debug_ranges  0x00007208       0x10 C:/GCC4/ARM/s002/lib/armv7aLaiv\libstdc++.a(del_ops.o)
 .debug_ranges  0x00007218       0x90 C:/GCC4/ARM/s002/lib/armv7aLaiv\libstdc++.a(si_class_type_info.o)
 .debug_ranges  0x000072a8       0x10 C:/GCC4/ARM/s002/lib/armv7aLaiv\libstdc++.a(del_op.o)
 .debug_ranges  0x000072b8       0x38 C:/GCC4/ARM/s002/lib/armv7aLaiv\libstdc++.a(tinfo.o)
 .debug_ranges  0x000072f0       0x10 C:/GCC4/ARM/s002/lib/armv7aLaiv/libgcc.a(_udivmoddi4.o)
 .debug_ranges  0x00007300      0x200 C:/GCC4/ARM/s002/lib/armv7aLaiv/libgcc.a(unwind-arm.o)
 .debug_ranges  0x00007500       0x48 C:/GCC4/ARM/s002/lib/armv7aLaiv/libgcc.a(pr-support.o)
 .debug_ranges  0x00007548       0x70 C:/GCC4/ARM/s002/lib/armv7aLaiv/libc.a(_m_init.o)
 .debug_ranges  0x000075b8       0x18 C:/GCC4/ARM/s002/lib/armv7aLaiv/libc.a(abort.o)
 .debug_ranges  0x000075d0       0x18 C:/GCC4/ARM/s002/lib/armv7aLaiv/libc.a(errno.o)
 .debug_ranges  0x000075e8       0x10 C:/GCC4/ARM/s002/lib/armv7aLaiv/libc.a(atoi.o)
 .debug_ranges  0x000075f8       0x18 C:/GCC4/ARM/s002/lib/armv7aLaiv/libc.a(rand.o)
 .debug_ranges  0x00007610       0x20 C:/GCC4/ARM/s002/lib/armv7aLaiv/libc.a(strtol.o)
 .debug_ranges  0x00007630       0x20 C:/GCC4/ARM/s002/lib/armv7aLaiv/libc.a(strtoul.o)
 .debug_ranges  0x00007650       0x68 C:/GCC4/ARM/s002/lib/armv7aLaiv/libc.a(atexit.o)
 .debug_ranges  0x000076b8       0xf8 C:/GCC4/ARM/s002/lib/armv7aLaiv/libc.a(isctype.o)
 .debug_ranges  0x000077b0       0x18 C:/GCC4/ARM/s002/lib/armv7aLaiv/libc.a(thread-stub-init.o)
 .debug_ranges  0x000077c8       0xa0 C:/GCC4/ARM/s002/lib/armv7aLaiv/libc.a(thread-stub.o)
 .debug_ranges  0x00007868       0x10 C:/GCC4/ARM/s002/lib/armv7aLaiv/libc.a(ssp_init.o)
 .debug_ranges  0x00007878       0x48 C:/GCC4/ARM/s002/lib/armv7aLaiv/libc.a(findfp.o)
 .debug_ranges  0x000078c0       0x18 C:/GCC4/ARM/s002/lib/armv7aLaiv/libc.a(fprintf.o)
 .debug_ranges  0x000078d8       0x28 C:/GCC4/ARM/s002/lib/armv7aLaiv/libc.a(stdio.o)
 .debug_ranges  0x00007900      0x640 C:/GCC4/ARM/s002/lib/armv7aLaiv/libc.a(vfprintf.o)
 .debug_ranges  0x00007f40       0x48 C:/GCC4/ARM/s002/lib/armv7aLaiv/libc.a(vsnprintf.o)
 .debug_ranges  0x00007f88       0x10 C:/GCC4/ARM/s002/lib/armv7aLaiv/libc.a(wsetup.o)
 .debug_ranges  0x00007f98       0x18 C:/GCC4/ARM/s002/lib/armv7aLaiv/libc.a(makebuf.o)
 .debug_ranges  0x00007fb0       0x20 C:/GCC4/ARM/s002/lib/armv7aLaiv/libc.a(close.o)
 .debug_ranges  0x00007fd0       0x10 C:/GCC4/ARM/s002/lib/armv7aLaiv/libc.a(fstat.o)
 .debug_ranges  0x00007fe0       0x10 C:/GCC4/ARM/s002/lib/armv7aLaiv/libc.a(lseek.o)
 .debug_ranges  0x00007ff0       0x10 C:/GCC4/ARM/s002/lib/armv7aLaiv/libc.a(open.o)
 .debug_ranges  0x00008000      0x1c8 C:/GCC4/ARM/s002/lib/armv7aLaiv/libc.a(osemu.o)
 .debug_ranges  0x000081c8       0x30 C:/GCC4/ARM/s002/lib/armv7aLaiv/libc.a(read.o)
 .debug_ranges  0x000081f8       0x10 C:/GCC4/ARM/s002/lib/armv7aLaiv/libc.a(u2dname.o)
 .debug_ranges  0x00008208       0x18 C:/GCC4/ARM/s002/lib/armv7aLaiv/libc.a(utime.o)
 .debug_ranges  0x00008220       0x30 C:/GCC4/ARM/s002/lib/armv7aLaiv/libc.a(write.o)
 .debug_ranges  0x00008250       0x78 C:/GCC4/ARM/s002/lib/armv7aLaiv/libc.a(_env.o)
 .debug_ranges  0x000082c8       0x20 C:/GCC4/ARM/s002/lib/armv7aLaiv/libc.a(exit.o)
 .debug_ranges  0x000082e8       0x18 C:/GCC4/ARM/s002/lib/armv7aLaiv/libc.a(signal.o)
 .debug_ranges  0x00008300       0xb8 C:/GCC4/ARM/s002/lib/armv7aLaiv/libc.a(localtime.o)
 .debug_ranges  0x000083b8       0x10 C:/GCC4/ARM/s002/lib/armv7aLaiv/libc.a(lldiv.o)
 .debug_ranges  0x000083c8       0x28 C:/GCC4/ARM/s002/lib/armv7aLaiv/libc.a(memchr.o)
 .debug_ranges  0x000083f0       0x10 C:/GCC4/ARM/s002/lib/armv7aLaiv/libc.a(strcspn.o)
 .debug_ranges  0x00008400       0x28 C:/GCC4/ARM/s002/lib/armv7aLaiv/libc.a(strncasecmp.o)
 .debug_ranges  0x00008428       0x10 C:/GCC4/ARM/s002/lib/armv7aLaiv/libc.a(strdup.o)
 .debug_ranges  0x00008438       0x28 C:/GCC4/ARM/s002/lib/armv7aLaiv/libc.a(citrus_ctype.o)
 .debug_ranges  0x00008460      0x130 C:/GCC4/ARM/s002/lib/armv7aLaiv/libc.a(citrus_none.o)
 .debug_ranges  0x00008590      0x3e0 C:/GCC4/ARM/s002/lib/armv7aLaiv/libc.a(citrus_mskanji.o)
 .debug_ranges  0x00008970      0x440 C:/GCC4/ARM/s002/lib/armv7aLaiv/libc.a(citrus_utf8.o)
 .debug_ranges  0x00008db0       0x18 C:/GCC4/ARM/s002/lib/armv7aLaiv/libc.a(localeconv.o)
 .debug_ranges  0x00008dc8      0x300 C:/GCC4/ARM/s002/lib/armv7aLaiv/libc.a(multibyte_amd1.o)
 .debug_ranges  0x000090c8       0x10 C:/GCC4/ARM/s002/lib/armv7aLaiv/libc.a(dtoa.o)
 .debug_ranges  0x000090d8       0x10 C:/GCC4/ARM/s002/lib/armv7aLaiv/libc.a(ldtoa.o)
 .debug_ranges  0x000090e8       0x18 C:/GCC4/ARM/s002/lib/armv7aLaiv/libc.a(hdtoa.o)
 .debug_ranges  0x00009100       0x28 C:/GCC4/ARM/s002/lib/armv7aLaiv/libc.a(dmisc.o)
 .debug_ranges  0x00009128       0xb0 C:/GCC4/ARM/s002/lib/armv7aLaiv/libc.a(misc.o)
 .debug_ranges  0x000091d8      0xc90 C:/GCC4/ARM/s002/lib/armv7aLaiv/libc.a(softfloat.o)
 .debug_ranges  0x00009e68       0x10 C:/GCC4/ARM/s002/lib/armv7aLaiv/libc.a(__aeabi_dcmpeq.o)
 .debug_ranges  0x00009e78       0x10 C:/GCC4/ARM/s002/lib/armv7aLaiv/libc.a(__aeabi_dcmpge.o)
 .debug_ranges  0x00009e88       0x10 C:/GCC4/ARM/s002/lib/armv7aLaiv/libc.a(__aeabi_dcmpgt.o)
 .debug_ranges  0x00009e98       0x10 C:/GCC4/ARM/s002/lib/armv7aLaiv/libc.a(__aeabi_dcmplt.o)
 .debug_ranges  0x00009ea8      0x178 C:/GCC4/ARM/s002/lib/armv7aLaiv/libc.a(rb.o)
 .debug_ranges  0x0000a020       0x30 C:/GCC4/ARM/s002/lib/armv7aLaiv/libc.a(fflush.o)
 .debug_ranges  0x0000a050       0x58 C:/GCC4/ARM/s002/lib/armv7aLaiv/libc.a(flockfile.o)
 .debug_ranges  0x0000a0a8       0x10 C:/GCC4/ARM/s002/lib/armv7aLaiv/libc.a(fvwrite.o)
 .debug_ranges  0x0000a0b8       0x10 C:/GCC4/ARM/s002/lib/armv7aLaiv/libc.a(fwalk.o)
 .debug_ranges  0x0000a0c8       0x10 C:/GCC4/ARM/s002/lib/armv7aLaiv/libc.a(creat.o)
 .debug_ranges  0x0000a0d8       0x10 C:/GCC4/ARM/s002/lib/armv7aLaiv/libc.a(fpclassifyd_ieee754.o)
 .debug_ranges  0x0000a0e8       0x10 C:/GCC4/ARM/s002/lib/armv7aLaiv/libc.a(strcasecmp.o)
